
tse_tutorial.elf:     file format elf32-littlenios2
tse_tutorial.elf
architecture: nios2:r1, flags 0x00000112:
EXEC_P, HAS_SYMS, D_PAGED
start address 0x00080244

Program Header:
    LOAD off    0x00001000 vaddr 0x00080000 paddr 0x00080000 align 2**12
         filesz 0x00000020 memsz 0x00000020 flags r-x
    LOAD off    0x00001020 vaddr 0x00080020 paddr 0x00080020 align 2**12
         filesz 0x00006484 memsz 0x00006484 flags r-x
    LOAD off    0x000074a4 vaddr 0x000864a4 paddr 0x00088570 align 2**12
         filesz 0x000020cc memsz 0x000020cc flags rw-
    LOAD off    0x0000963c vaddr 0x0008a63c paddr 0x0008a63c align 2**12
         filesz 0x00000000 memsz 0x000007a4 flags rw-
    LOAD off    0x0000a000 vaddr 0x00100000 paddr 0x0008ade0 align 2**12
         filesz 0x00000080 memsz 0x00000080 flags rw-

Sections:
Idx Name          Size      VMA       LMA       File off  Algn
  0 .entry        00000020  00080000  00080000  00001000  2**5
                  CONTENTS, ALLOC, LOAD, READONLY, CODE
  1 .exceptions   00000224  00080020  00080020  00001020  2**2
                  CONTENTS, ALLOC, LOAD, READONLY, CODE
  2 .text         00006094  00080244  00080244  00001244  2**2
                  CONTENTS, ALLOC, LOAD, READONLY, CODE
  3 .rodata       000001cc  000862d8  000862d8  000072d8  2**2
                  CONTENTS, ALLOC, LOAD, READONLY, DATA
  4 .rwdata       000020cc  000864a4  00088570  000074a4  2**2
                  CONTENTS, ALLOC, LOAD, DATA, SMALL_DATA
  5 .bss          000007a4  0008a63c  0008a63c  0000963c  2**2
                  ALLOC, SMALL_DATA
  6 .main_memory  00000000  0008ade0  0008ade0  0000a080  2**0
                  CONTENTS
  7 .descriptor_memory 00000080  00100000  0008ade0  0000a000  2**0
                  CONTENTS, ALLOC, LOAD, DATA
  8 .RAM_block    00000000  00101800  00101800  0000a080  2**0
                  CONTENTS
  9 .comment      00000023  00000000  00000000  0000a080  2**0
                  CONTENTS, READONLY
 10 .debug_aranges 00000a38  00000000  00000000  0000a0a8  2**3
                  CONTENTS, READONLY, DEBUGGING
 11 .debug_info   00016d06  00000000  00000000  0000aae0  2**0
                  CONTENTS, READONLY, DEBUGGING
 12 .debug_abbrev 0000627b  00000000  00000000  000217e6  2**0
                  CONTENTS, READONLY, DEBUGGING
 13 .debug_line   000067be  00000000  00000000  00027a61  2**0
                  CONTENTS, READONLY, DEBUGGING
 14 .debug_frame  000018d8  00000000  00000000  0002e220  2**2
                  CONTENTS, READONLY, DEBUGGING
 15 .debug_str    00002bda  00000000  00000000  0002faf8  2**0
                  CONTENTS, READONLY, DEBUGGING
 16 .debug_loc    000034a7  00000000  00000000  000326d2  2**0
                  CONTENTS, READONLY, DEBUGGING
 17 .debug_alt_sim_info 00000030  00000000  00000000  00035b7c  2**2
                  CONTENTS, READONLY, DEBUGGING
 18 .debug_ranges 00000530  00000000  00000000  00035bb0  2**3
                  CONTENTS, READONLY, DEBUGGING
 19 .thread_model 00000003  00000000  00000000  00038c48  2**0
                  CONTENTS, READONLY
 20 .cpu          0000000c  00000000  00000000  00038c4b  2**0
                  CONTENTS, READONLY
 21 .qsys         00000001  00000000  00000000  00038c57  2**0
                  CONTENTS, READONLY
 22 .simulation_enabled 00000001  00000000  00000000  00038c58  2**0
                  CONTENTS, READONLY
 23 .stderr_dev   00000009  00000000  00000000  00038c59  2**0
                  CONTENTS, READONLY
 24 .stdin_dev    00000009  00000000  00000000  00038c62  2**0
                  CONTENTS, READONLY
 25 .stdout_dev   00000009  00000000  00000000  00038c6b  2**0
                  CONTENTS, READONLY
 26 .sopc_system_name 0000000b  00000000  00000000  00038c74  2**0
                  CONTENTS, READONLY
 27 .sopcinfo     00070e4c  00000000  00000000  00038c7f  2**0
                  CONTENTS, READONLY
SYMBOL TABLE:
00080000 l    d  .entry	00000000 .entry
00080020 l    d  .exceptions	00000000 .exceptions
00080244 l    d  .text	00000000 .text
000862d8 l    d  .rodata	00000000 .rodata
000864a4 l    d  .rwdata	00000000 .rwdata
0008a63c l    d  .bss	00000000 .bss
0008ade0 l    d  .main_memory	00000000 .main_memory
00100000 l    d  .descriptor_memory	00000000 .descriptor_memory
00101800 l    d  .RAM_block	00000000 .RAM_block
00000000 l    d  .comment	00000000 .comment
00000000 l    d  .debug_aranges	00000000 .debug_aranges
00000000 l    d  .debug_info	00000000 .debug_info
00000000 l    d  .debug_abbrev	00000000 .debug_abbrev
00000000 l    d  .debug_line	00000000 .debug_line
00000000 l    d  .debug_frame	00000000 .debug_frame
00000000 l    d  .debug_str	00000000 .debug_str
00000000 l    d  .debug_loc	00000000 .debug_loc
00000000 l    d  .debug_alt_sim_info	00000000 .debug_alt_sim_info
00000000 l    d  .debug_ranges	00000000 .debug_ranges
00000000 l    df *ABS*	00000000 BSP//obj/HAL/src/crt0.o
0008028c l       .text	00000000 alt_after_alt_main
00000000 l    df *ABS*	00000000 alt_irq_handler.c
00000000 l    df *ABS*	00000000 alt_instruction_exception_entry.c
00000000 l    df *ABS*	00000000 tse_tutorial.c
00000000 l    df *ABS*	00000000 lib2-divmod.c
00000000 l    df *ABS*	00000000 alt_iic.c
00000000 l    df *ABS*	00000000 alt_iic_isr_register.c
00000000 l    df *ABS*	00000000 alt_irq_vars.c
00000000 l    df *ABS*	00000000 alt_load.c
00080c98 l     F .text	00000068 alt_load_section
00000000 l    df *ABS*	00000000 alt_main.c
00000000 l    df *ABS*	00000000 alt_printf.c
00000000 l    df *ABS*	00000000 alt_putchar.c
00000000 l    df *ABS*	00000000 alt_sys_init.c
00081068 l     F .text	00000034 alt_dev_reg
00086a94 l     O .rwdata	00001060 jtag_uart
00087af4 l     O .rwdata	00000030 sgdma_rx
00087b24 l     O .rwdata	00000030 sgdma_tx
00000000 l    df *ABS*	00000000 altera_avalon_jtag_uart_fd.c
00000000 l    df *ABS*	00000000 altera_avalon_jtag_uart_init.c
0008136c l     F .text	0000020c altera_avalon_jtag_uart_irq
00081578 l     F .text	000000a0 altera_avalon_jtag_uart_timeout
00000000 l    df *ABS*	00000000 altera_avalon_jtag_uart_ioctl.c
00000000 l    df *ABS*	00000000 altera_avalon_jtag_uart_read.c
00000000 l    df *ABS*	00000000 altera_avalon_jtag_uart_write.c
00000000 l    df *ABS*	00000000 altera_avalon_sgdma.c
00081bb0 l     F .text	0000003c alt_get_errno
000827e0 l     F .text	000000bc alt_avalon_sgdma_irq
00000000 l    df *ABS*	00000000 alt_alarm_start.c
00000000 l    df *ABS*	00000000 alt_close.c
00082a70 l     F .text	0000003c alt_get_errno
00000000 l    df *ABS*	00000000 alt_dcache_flush.c
00000000 l    df *ABS*	00000000 alt_dcache_flush_all.c
00000000 l    df *ABS*	00000000 alt_dev.c
00082c3c l     F .text	0000002c alt_dev_null_write
00000000 l    df *ABS*	00000000 alt_dev_llist_insert.c
00082c68 l     F .text	0000003c alt_get_errno
00000000 l    df *ABS*	00000000 alt_do_ctors.c
00000000 l    df *ABS*	00000000 alt_do_dtors.c
00000000 l    df *ABS*	00000000 alt_errno.c
00000000 l    df *ABS*	00000000 alt_find_dev.c
00000000 l    df *ABS*	00000000 alt_icache_flush_all.c
00000000 l    df *ABS*	00000000 alt_io_redirect.c
00082f68 l     F .text	000000c4 alt_open_fd
00000000 l    df *ABS*	00000000 alt_open.c
000830a8 l     F .text	0000003c alt_get_errno
000830e4 l     F .text	000000c4 alt_file_locked
00000000 l    df *ABS*	00000000 alt_release_fd.c
00000000 l    df *ABS*	00000000 alt_tick.c
00000000 l    df *ABS*	00000000 altera_nios2_gen2_irq.c
00000000 l    df *ABS*	00000000 alt_find_file.c
00000000 l    df *ABS*	00000000 alt_get_fd.c
00000000 l    df *ABS*	00000000 alt_icache_flush.c
00000000 l    df *ABS*	00000000 atexit.c
00000000 l    df *ABS*	00000000 exit.c
00000000 l    df *ABS*	00000000 impure.c
00087cfc l     O .rwdata	00000424 impure_data
00000000 l    df *ABS*	00000000 int_errno.c
00000000 l    df *ABS*	00000000 memcmp.c
00000000 l    df *ABS*	00000000 memcpy.c
00000000 l    df *ABS*	00000000 putc.c
00000000 l    df *ABS*	00000000 strlen.c
00000000 l    df *ABS*	00000000 wbuf.c
00000000 l    df *ABS*	00000000 wsetup.c
00000000 l    df *ABS*	00000000 __atexit.c
00000000 l    df *ABS*	00000000 __call_atexit.c
00000000 l    df *ABS*	00000000 fflush.c
00000000 l    df *ABS*	00000000 findfp.c
00084360 l     F .text	00000008 __fp_unlock
00084374 l     F .text	0000019c __sinit.part.1
00084510 l     F .text	00000008 __fp_lock
00000000 l    df *ABS*	00000000 mallocr.c
00000000 l    df *ABS*	00000000 fwalk.c
00000000 l    df *ABS*	00000000 makebuf.c
00000000 l    df *ABS*	00000000 mallocr.c
00000000 l    df *ABS*	00000000 memset.c
00000000 l    df *ABS*	00000000 sbrkr.c
00000000 l    df *ABS*	00000000 stdio.c
00000000 l    df *ABS*	00000000 writer.c
00000000 l    df *ABS*	00000000 closer.c
00000000 l    df *ABS*	00000000 fclose.c
00000000 l    df *ABS*	00000000 fstatr.c
00000000 l    df *ABS*	00000000 isattyr.c
00000000 l    df *ABS*	00000000 lseekr.c
00000000 l    df *ABS*	00000000 readr.c
00000000 l    df *ABS*	00000000 alt_exit.c
00000000 l    df *ABS*	00000000 alt_fstat.c
00085c98 l     F .text	0000003c alt_get_errno
00000000 l    df *ABS*	00000000 alt_isatty.c
00085d84 l     F .text	0000003c alt_get_errno
00000000 l    df *ABS*	00000000 alt_lseek.c
00085e64 l     F .text	0000003c alt_get_errno
00000000 l    df *ABS*	00000000 alt_malloc_lock.c
00000000 l    df *ABS*	00000000 alt_read.c
00085fbc l     F .text	0000003c alt_get_errno
00000000 l    df *ABS*	00000000 alt_sbrk.c
0008856c l     O .rwdata	00000004 heap_end
00000000 l    df *ABS*	00000000 alt_write.c
000861a4 l     F .text	0000003c alt_get_errno
0008a65c g     O .bss	00000004 alt_instruction_exception_handler
00085b50 g     F .text	00000054 _isatty_r
00080d84 g     F .text	0000007c alt_main
000805e4 g     F .text	00000078 rx_ethernet_isr
0008ace0 g     O .bss	00000100 alt_irq
00085ba4 g     F .text	00000060 _lseek_r
00088570 g       *ABS*	00000000 __flash_rwdata_start
0008ade0 g       *ABS*	00000000 __alt_heap_start
00081d10 g     F .text	00000110 alt_avalon_sgdma_do_sync_transfer
000858d8 g     F .text	0000005c __sseek
000846b0 g     F .text	00000010 __sinit
00083b74 g     F .text	00000140 __swbuf_r
00084518 g     F .text	00000068 __sfmoreglue
00085f98 g     F .text	00000024 __malloc_unlock
00082428 g     F .text	000003b8 alt_avalon_sgdma_construct_descriptor_burst
00084698 g     F .text	00000018 _cleanup
00083504 g     F .text	00000024 altera_nios2_gen2_irq_init
00080000 g     F .entry	0000001c __reset
00081f78 g     F .text	00000078 alt_avalon_sgdma_construct_stream_to_mem_desc_burst
00080020 g       *ABS*	00000000 __flash_exceptions_start
00085af4 g     F .text	0000005c _fstat_r
0008a668 g     O .bss	00000004 errno
00085854 g     F .text	00000008 __seofread
0008a654 g     O .bss	00000004 alt_argv
00090528 g       *ABS*	00000000 _gp
00087b7c g     O .rwdata	00000180 alt_fd_list
00082e08 g     F .text	00000090 alt_find_dev
0008382c g     F .text	00000148 memcpy
00084368 g     F .text	0000000c _cleanup_r
0008302c g     F .text	0000007c alt_io_redirect
000862d8 g       *ABS*	00000000 __DTOR_END__
00082ecc g     F .text	0000009c alt_exception_cause_generated_bad_addr
00082070 g     F .text	0000008c alt_avalon_sgdma_construct_mem_to_stream_desc_burst
00081770 g     F .text	0000021c altera_avalon_jtag_uart_read
0008093c g     F .text	00000064 .hidden __udivsi3
00085dc0 g     F .text	000000a4 isatty
000836d4 g     F .text	00000090 alt_icache_flush
0008a674 g     O .bss	00000004 __malloc_top_pad
000821a8 g     F .text	0000005c alt_avalon_sgdma_stop
000857ac g     F .text	00000054 _sbrk_r
00085c04 g     F .text	00000060 _read_r
00082b7c g     F .text	00000078 alt_dcache_flush
0008854c g     O .rwdata	00000004 alt_max_fd
000859f0 g     F .text	000000f0 _fclose_r
00084330 g     F .text	00000030 fflush
0008a670 g     O .bss	00000004 __malloc_max_sbrked_mem
00080000 g       *ABS*	00000000 __alt_mem_main_memory
0008852c g     O .rwdata	00000004 ram_block_size
00085ea0 g     F .text	000000d4 lseek
0008855c g     O .rwdata	00000004 _global_impure_ptr
0008ade0 g       *ABS*	00000000 __bss_end
00080ba8 g     F .text	000000f0 alt_iic_isr_register
00081bec g     F .text	00000124 alt_avalon_sgdma_do_async_transfer
000833fc g     F .text	00000108 alt_tick
00100060 g     O .descriptor_memory	00000020 rx_descriptor_end
00101800 g       *ABS*	00000000 __alt_mem_RAM_block
0008065c g     F .text	00000098 mic_filter_isr
000846d0 g     F .text	00000018 __fp_lock_all
00080b5c g     F .text	0000004c alt_ic_irq_enabled
00083360 g     F .text	0000009c alt_alarm_stop
00100000 g       *ABS*	00000000 __alt_mem_descriptor_memory
0008a64c g     O .bss	00000004 alt_irq_active
000864a4 g     O .rwdata	000005ee tx_frame
000800fc g     F .exceptions	000000d4 alt_irq_handler
00087b54 g     O .rwdata	00000028 alt_dev_null
00082204 g     F .text	00000064 alt_avalon_sgdma_check_descriptor_status
00082bf4 g     F .text	00000048 alt_dcache_flush_all
00100040 g     O .descriptor_memory	00000020 rx_descriptor
00088570 g       *ABS*	00000000 __ram_rwdata_end
00088544 g     O .rwdata	00000008 alt_dev_list
000861e0 g     F .text	000000f8 write
00082348 g     F .text	00000080 alt_avalon_sgdma_enable_desc_poll
00083974 g     F .text	000000a0 _putc_r
000864a4 g       *ABS*	00000000 __ram_rodata_end
00085cd4 g     F .text	000000b0 fstat
000809a0 g     F .text	00000058 .hidden __umodsi3
00081ff0 g     F .text	00000080 alt_avalon_sgdma_construct_mem_to_stream_desc
000820fc g     F .text	00000054 alt_avalon_sgdma_register_callback
0008ade0 g       *ABS*	00000000 end
00088528 g     O .rwdata	00000004 ram_block
000812ac g     F .text	000000c0 altera_avalon_jtag_uart_init
000801d0 g     F .exceptions	00000074 alt_instruction_exception_entry
000862d8 g       *ABS*	00000000 __CTOR_LIST__
000cb000 g       *ABS*	00000000 __alt_stack_pointer
000823c8 g     F .text	00000060 alt_avalon_sgdma_disable_desc_poll
0008198c g     F .text	00000224 altera_avalon_jtag_uart_write
00081e20 g     F .text	00000074 alt_avalon_sgdma_construct_mem_to_mem_desc
000846c0 g     F .text	00000004 __sfp_lock_acquire
00081f18 g     F .text	00000060 alt_avalon_sgdma_construct_stream_to_mem_desc
00084824 g     F .text	00000310 _free_r
00080e00 g     F .text	0000022c alt_printf
00083f38 g     F .text	00000180 __call_exitprocs
0008a63c g     O .bss	00000004 mic_isr_cnt
00088564 g     O .rwdata	00000004 __malloc_sbrk_base
00080244 g     F .text	0000004c _start
0008a660 g     O .bss	00000004 _alt_tick_rate
0008a640 g     O .bss	00000004 sgdma_tx_dev
00082268 g     F .text	00000054 alt_avalon_sgdma_open
0008a664 g     O .bss	00000004 _alt_nticks
0008a644 g     O .bss	00000004 text_length
00085ff8 g     F .text	000000fc read
000810d4 g     F .text	00000074 alt_sys_init
00083e20 g     F .text	00000118 __register_exitproc
00081618 g     F .text	00000068 altera_avalon_jtag_uart_close
000864a4 g       *ABS*	00000000 __ram_rwdata_start
000862d8 g       *ABS*	00000000 __ram_rodata_start
0008ac68 g     O .bss	00000028 __malloc_current_mallinfo
000806f4 g     F .text	000000d4 fill_ipv4_checksum
00081148 g     F .text	00000060 altera_avalon_jtag_uart_read_fd
00083630 g     F .text	000000a4 alt_get_fd
0008599c g     F .text	00000054 _close_r
000837b0 g     F .text	0000007c memcmp
00081208 g     F .text	00000050 altera_avalon_jtag_uart_close_fd
0008ade0 g       *ABS*	00000000 __alt_stack_base
00081258 g     F .text	00000054 altera_avalon_jtag_uart_ioctl_fd
00083ccc g     F .text	00000154 __swsetup_r
00084580 g     F .text	00000118 __sfp
00088120 g     O .rwdata	00000408 __malloc_av_
000846cc g     F .text	00000004 __sinit_lock_release
00085800 g     F .text	00000054 __sread
00083528 g     F .text	00000108 alt_find_file
00082ca4 g     F .text	000000a4 alt_dev_llist_insert
00085f74 g     F .text	00000024 __malloc_lock
000860f4 g     F .text	000000b0 sbrk
00082150 g     F .text	00000058 alt_avalon_sgdma_start
000842d4 g     F .text	0000005c _fflush_r
0008a63c g       *ABS*	00000000 __bss_start
00085684 g     F .text	00000128 memset
00080290 g     F .text	00000354 main
0008a658 g     O .bss	00000004 alt_envp
0008a66c g     O .bss	00000004 __malloc_max_total_mem
000811a8 g     F .text	00000060 altera_avalon_jtag_uart_write_fd
00083cb4 g     F .text	00000018 __swbuf
00088534 g     O .rwdata	00000008 alt_sgdma_list
00085934 g     F .text	00000008 __sclose
000cb000 g       *ABS*	00000000 __alt_heap_limit
00085ae0 g     F .text	00000014 fclose
00084e78 g     F .text	0000080c _malloc_r
00088550 g     O .rwdata	00000004 alt_errno
00100000 g     O .descriptor_memory	00000020 tx_descriptor
0008a678 g     O .bss	000005ee rx_frame
00084b34 g     F .text	000000c4 _fwalk
00083a14 g     F .text	000000c8 putc
00080844 g     F .text	00000084 .hidden __divsi3
00084700 g     F .text	00000124 _malloc_trim_r
000862d8 g       *ABS*	00000000 __CTOR_END__
000862d8 g       *ABS*	00000000 __flash_rodata_start
000862d8 g       *ABS*	00000000 __DTOR_LIST__
0008109c g     F .text	00000038 alt_irq_init
000832fc g     F .text	00000064 alt_release_fd
00083764 g     F .text	00000014 atexit
0008593c g     F .text	00000060 _write_r
00088560 g     O .rwdata	00000004 _impure_ptr
0008a650 g     O .bss	00000004 alt_argc
000840b8 g     F .text	0000021c __sflush_r
00082da8 g     F .text	00000060 _do_dtors
00080020 g       .exceptions	00000000 alt_irq_entry
000846e8 g     F .text	00000018 __fp_unlock_all
0008853c g     O .rwdata	00000008 alt_fs_list
00080020 g       *ABS*	00000000 __ram_exceptions_start
000809f8 g     F .text	00000050 alt_ic_isr_register
00088570 g       *ABS*	00000000 _edata
0008ade0 g       *ABS*	00000000 _end
00080244 g       *ABS*	00000000 __ram_exceptions_end
00081680 g     F .text	000000f0 altera_avalon_jtag_uart_ioctl
00080ad0 g     F .text	0000008c alt_ic_irq_disable
00100020 g     O .descriptor_memory	00000020 tx_descriptor_end
000822bc g     F .text	0000008c alt_avalon_sgdma_construct_descriptor
0008585c g     F .text	0000007c __swrite
00088568 g     O .rwdata	00000004 __malloc_trim_threshold
00083778 g     F .text	00000038 exit
00084bf8 g     F .text	000000c4 _fwalk_reent
000808c8 g     F .text	00000074 .hidden __modsi3
000cb000 g       *ABS*	00000000 __alt_data_end
00080020 g     F .exceptions	00000000 alt_exception
000846c4 g     F .text	00000004 __sfp_lock_release
0008a648 g     O .bss	00000004 sgdma_rx_dev
000807c8 g     F .text	0000007c volatile_memcpy
00085c64 g     F .text	00000034 _exit
00082944 g     F .text	0000012c alt_alarm_start
00084cbc g     F .text	000001bc __smakebuf_r
00083adc g     F .text	00000098 strlen
000831a8 g     F .text	00000154 open
0008102c g     F .text	0000003c alt_putchar
00082e98 g     F .text	00000034 alt_icache_flush_all
00088530 g     O .rwdata	00000004 alt_priority_mask
00080a48 g     F .text	00000088 alt_ic_irq_enable
00081e94 g     F .text	00000084 alt_avalon_sgdma_construct_mem_to_mem_desc_burst
0008ac90 g     O .bss	00000050 data_buffer
00088554 g     O .rwdata	00000008 alt_alarm_list
00082d48 g     F .text	00000060 _do_ctors
00082aac g     F .text	000000d0 close
00080d00 g     F .text	00000084 alt_load
0008289c g     F .text	000000a8 alt_avalon_sgdma_init
000846c8 g     F .text	00000004 __sinit_lock_acquire



Disassembly of section .entry:

00080000 <__reset>:
   80000:	00840014 	movui	r2,4096
   80004:	1001483a 	initi	r2
   80008:	10bff804 	addi	r2,r2,-32
   8000c:	00bffd16 	blt	zero,r2,80004 <__alt_mem_RAM_block+0xfff7e804>
   80010:	00400234 	movhi	at,8
   80014:	08409114 	ori	at,at,580
   80018:	0800683a 	jmp	at
   8001c:	00000000 	call	0 <__reset-0x80000>

Disassembly of section .exceptions:

00080020 <alt_exception>:
   80020:	deffed04 	addi	sp,sp,-76
   80024:	dfc00015 	stw	ra,0(sp)
   80028:	d8400215 	stw	at,8(sp)
   8002c:	d8800315 	stw	r2,12(sp)
   80030:	d8c00415 	stw	r3,16(sp)
   80034:	d9000515 	stw	r4,20(sp)
   80038:	d9400615 	stw	r5,24(sp)
   8003c:	d9800715 	stw	r6,28(sp)
   80040:	d9c00815 	stw	r7,32(sp)
   80044:	000b307a 	rdctl	r5,estatus
   80048:	da000915 	stw	r8,36(sp)
   8004c:	da400a15 	stw	r9,40(sp)
   80050:	da800b15 	stw	r10,44(sp)
   80054:	dac00c15 	stw	r11,48(sp)
   80058:	db000d15 	stw	r12,52(sp)
   8005c:	db400e15 	stw	r13,56(sp)
   80060:	db800f15 	stw	r14,60(sp)
   80064:	dbc01015 	stw	r15,64(sp)
   80068:	d9401115 	stw	r5,68(sp)
   8006c:	ebffff04 	addi	r15,ea,-4
   80070:	dbc01215 	stw	r15,72(sp)
   80074:	0009313a 	rdctl	r4,ipending
   80078:	2880004c 	andi	r2,r5,1
   8007c:	10000326 	beq	r2,zero,8008c <alt_exception+0x6c>
   80080:	20000226 	beq	r4,zero,8008c <alt_exception+0x6c>
   80084:	00800fc0 	call	800fc <alt_irq_handler>
   80088:	00000706 	br	800a8 <alt_exception+0x88>
   8008c:	df401215 	stw	ea,72(sp)
   80090:	e8bfff17 	ldw	r2,-4(ea)
   80094:	e93fff04 	addi	r4,ea,-4
   80098:	00801d00 	call	801d0 <alt_instruction_exception_entry>
   8009c:	1000021e 	bne	r2,zero,800a8 <alt_exception+0x88>
   800a0:	ebffff04 	addi	r15,ea,-4
   800a4:	dbc01215 	stw	r15,72(sp)
   800a8:	d9401117 	ldw	r5,68(sp)
   800ac:	df401217 	ldw	ea,72(sp)
   800b0:	dfc00017 	ldw	ra,0(sp)
   800b4:	2801707a 	wrctl	estatus,r5
   800b8:	d8400217 	ldw	at,8(sp)
   800bc:	d8800317 	ldw	r2,12(sp)
   800c0:	d8c00417 	ldw	r3,16(sp)
   800c4:	d9000517 	ldw	r4,20(sp)
   800c8:	d9400617 	ldw	r5,24(sp)
   800cc:	d9800717 	ldw	r6,28(sp)
   800d0:	d9c00817 	ldw	r7,32(sp)
   800d4:	da000917 	ldw	r8,36(sp)
   800d8:	da400a17 	ldw	r9,40(sp)
   800dc:	da800b17 	ldw	r10,44(sp)
   800e0:	dac00c17 	ldw	r11,48(sp)
   800e4:	db000d17 	ldw	r12,52(sp)
   800e8:	db400e17 	ldw	r13,56(sp)
   800ec:	db800f17 	ldw	r14,60(sp)
   800f0:	dbc01017 	ldw	r15,64(sp)
   800f4:	dec01304 	addi	sp,sp,76
   800f8:	ef80083a 	eret

000800fc <alt_irq_handler>:
   800fc:	defff904 	addi	sp,sp,-28
   80100:	dfc00615 	stw	ra,24(sp)
   80104:	df000515 	stw	fp,20(sp)
   80108:	df000504 	addi	fp,sp,20
   8010c:	0001883a 	nop
   80110:	0005313a 	rdctl	r2,ipending
   80114:	e0bffe15 	stw	r2,-8(fp)
   80118:	e0bffe17 	ldw	r2,-8(fp)
   8011c:	e0bffb15 	stw	r2,-20(fp)
   80120:	e03ffd15 	stw	zero,-12(fp)
   80124:	00800044 	movi	r2,1
   80128:	e0bffc15 	stw	r2,-16(fp)
   8012c:	e0fffb17 	ldw	r3,-20(fp)
   80130:	e0bffc17 	ldw	r2,-16(fp)
   80134:	1884703a 	and	r2,r3,r2
   80138:	10001426 	beq	r2,zero,8018c <alt_irq_handler+0x90>
   8013c:	00800274 	movhi	r2,9
   80140:	10ab3804 	addi	r2,r2,-21280
   80144:	e0fffd17 	ldw	r3,-12(fp)
   80148:	180690fa 	slli	r3,r3,3
   8014c:	10c5883a 	add	r2,r2,r3
   80150:	10c00017 	ldw	r3,0(r2)
   80154:	00800274 	movhi	r2,9
   80158:	10ab3804 	addi	r2,r2,-21280
   8015c:	e13ffd17 	ldw	r4,-12(fp)
   80160:	200890fa 	slli	r4,r4,3
   80164:	1105883a 	add	r2,r2,r4
   80168:	10800104 	addi	r2,r2,4
   8016c:	10800017 	ldw	r2,0(r2)
   80170:	1009883a 	mov	r4,r2
   80174:	183ee83a 	callr	r3
   80178:	0001883a 	nop
   8017c:	0005313a 	rdctl	r2,ipending
   80180:	e0bfff15 	stw	r2,-4(fp)
   80184:	e0bfff17 	ldw	r2,-4(fp)
   80188:	00000706 	br	801a8 <alt_irq_handler+0xac>
   8018c:	e0bffc17 	ldw	r2,-16(fp)
   80190:	1085883a 	add	r2,r2,r2
   80194:	e0bffc15 	stw	r2,-16(fp)
   80198:	e0bffd17 	ldw	r2,-12(fp)
   8019c:	10800044 	addi	r2,r2,1
   801a0:	e0bffd15 	stw	r2,-12(fp)
   801a4:	003fe106 	br	8012c <__alt_mem_RAM_block+0xfff7e92c>
   801a8:	e0bffb15 	stw	r2,-20(fp)
   801ac:	e0bffb17 	ldw	r2,-20(fp)
   801b0:	103fdb1e 	bne	r2,zero,80120 <__alt_mem_RAM_block+0xfff7e920>
   801b4:	0001883a 	nop
   801b8:	0001883a 	nop
   801bc:	e037883a 	mov	sp,fp
   801c0:	dfc00117 	ldw	ra,4(sp)
   801c4:	df000017 	ldw	fp,0(sp)
   801c8:	dec00204 	addi	sp,sp,8
   801cc:	f800283a 	ret

000801d0 <alt_instruction_exception_entry>:
   801d0:	defffb04 	addi	sp,sp,-20
   801d4:	dfc00415 	stw	ra,16(sp)
   801d8:	df000315 	stw	fp,12(sp)
   801dc:	df000304 	addi	fp,sp,12
   801e0:	e13fff15 	stw	r4,-4(fp)
   801e4:	000531fa 	rdctl	r2,exception
   801e8:	e0bffd15 	stw	r2,-12(fp)
   801ec:	e0bffd17 	ldw	r2,-12(fp)
   801f0:	10801f0c 	andi	r2,r2,124
   801f4:	1004d0ba 	srli	r2,r2,2
   801f8:	e0bffd15 	stw	r2,-12(fp)
   801fc:	0005333a 	rdctl	r2,badaddr
   80200:	e0bffe15 	stw	r2,-8(fp)
   80204:	d0a84d17 	ldw	r2,-24268(gp)
   80208:	10000726 	beq	r2,zero,80228 <alt_instruction_exception_entry+0x58>
   8020c:	d0a84d17 	ldw	r2,-24268(gp)
   80210:	e0fffd17 	ldw	r3,-12(fp)
   80214:	e1bffe17 	ldw	r6,-8(fp)
   80218:	e17fff17 	ldw	r5,-4(fp)
   8021c:	1809883a 	mov	r4,r3
   80220:	103ee83a 	callr	r2
   80224:	00000206 	br	80230 <alt_instruction_exception_entry+0x60>
   80228:	003da03a 	break	0
   8022c:	0005883a 	mov	r2,zero
   80230:	e037883a 	mov	sp,fp
   80234:	dfc00117 	ldw	ra,4(sp)
   80238:	df000017 	ldw	fp,0(sp)
   8023c:	dec00204 	addi	sp,sp,8
   80240:	f800283a 	ret

Disassembly of section .text:

00080244 <_start>:
   80244:	00840014 	movui	r2,4096
   80248:	10000033 	initd	0(r2)
   8024c:	10bff804 	addi	r2,r2,-32
   80250:	00bffd16 	blt	zero,r2,80248 <__alt_mem_RAM_block+0xfff7ea48>
   80254:	06c00334 	movhi	sp,12
   80258:	deec0014 	ori	sp,sp,45056
   8025c:	06800274 	movhi	gp,9
   80260:	d6814a14 	ori	gp,gp,1320
   80264:	00800234 	movhi	r2,8
   80268:	10a98f14 	ori	r2,r2,42556
   8026c:	00c00234 	movhi	r3,8
   80270:	18eb7814 	ori	r3,r3,44512
   80274:	10c00326 	beq	r2,r3,80284 <_start+0x40>
   80278:	10000015 	stw	zero,0(r2)
   8027c:	10800104 	addi	r2,r2,4
   80280:	10fffd36 	bltu	r2,r3,80278 <__alt_mem_RAM_block+0xfff7ea78>
   80284:	0080d000 	call	80d00 <alt_load>
   80288:	0080d840 	call	80d84 <alt_main>

0008028c <alt_after_alt_main>:
   8028c:	003fff06 	br	8028c <__alt_mem_RAM_block+0xfff7ea8c>

00080290 <main>:
   80290:	defff604 	addi	sp,sp,-40
   80294:	dfc00915 	stw	ra,36(sp)
   80298:	df000815 	stw	fp,32(sp)
   8029c:	df000804 	addi	fp,sp,32
   802a0:	01000234 	movhi	r4,8
   802a4:	2118b604 	addi	r4,r4,25304
   802a8:	00822680 	call	82268 <alt_avalon_sgdma_open>
   802ac:	d0a84615 	stw	r2,-24296(gp)
   802b0:	d0a84617 	ldw	r2,-24296(gp)
   802b4:	1000051e 	bne	r2,zero,802cc <main+0x3c>
   802b8:	01000234 	movhi	r4,8
   802bc:	2118ba04 	addi	r4,r4,25320
   802c0:	0080e000 	call	80e00 <alt_printf>
   802c4:	00bfffc4 	movi	r2,-1
   802c8:	0000c106 	br	805d0 <main+0x340>
   802cc:	01000234 	movhi	r4,8
   802d0:	2118c904 	addi	r4,r4,25380
   802d4:	0080e000 	call	80e00 <alt_printf>
   802d8:	01000234 	movhi	r4,8
   802dc:	2118d404 	addi	r4,r4,25424
   802e0:	00822680 	call	82268 <alt_avalon_sgdma_open>
   802e4:	d0a84815 	stw	r2,-24288(gp)
   802e8:	d0a84817 	ldw	r2,-24288(gp)
   802ec:	1000051e 	bne	r2,zero,80304 <main+0x74>
   802f0:	01000234 	movhi	r4,8
   802f4:	2118d804 	addi	r4,r4,25440
   802f8:	0080e000 	call	80e00 <alt_printf>
   802fc:	00bfffc4 	movi	r2,-1
   80300:	0000b306 	br	805d0 <main+0x340>
   80304:	01000234 	movhi	r4,8
   80308:	2118e704 	addi	r4,r4,25500
   8030c:	0080e000 	call	80e00 <alt_printf>
   80310:	01000234 	movhi	r4,8
   80314:	2118f204 	addi	r4,r4,25544
   80318:	0080e000 	call	80e00 <alt_printf>
   8031c:	d0a84817 	ldw	r2,-24288(gp)
   80320:	000f883a 	mov	r7,zero
   80324:	01800504 	movi	r6,20
   80328:	01400234 	movhi	r5,8
   8032c:	29417904 	addi	r5,r5,1508
   80330:	1009883a 	mov	r4,r2
   80334:	00820fc0 	call	820fc <alt_avalon_sgdma_register_callback>
   80338:	01000234 	movhi	r4,8
   8033c:	2118f804 	addi	r4,r4,25568
   80340:	0080e000 	call	80e00 <alt_printf>
   80344:	d8000015 	stw	zero,0(sp)
   80348:	000f883a 	mov	r7,zero
   8034c:	01800274 	movhi	r6,9
   80350:	31a99e04 	addi	r6,r6,-22920
   80354:	01400434 	movhi	r5,16
   80358:	29401804 	addi	r5,r5,96
   8035c:	01000434 	movhi	r4,16
   80360:	21001004 	addi	r4,r4,64
   80364:	0081f180 	call	81f18 <alt_avalon_sgdma_construct_stream_to_mem_desc>
   80368:	01000234 	movhi	r4,8
   8036c:	21190004 	addi	r4,r4,25600
   80370:	0080e000 	call	80e00 <alt_printf>
   80374:	d0a84817 	ldw	r2,-24288(gp)
   80378:	01400434 	movhi	r5,16
   8037c:	29401004 	addi	r5,r5,64
   80380:	1009883a 	mov	r4,r2
   80384:	0081bec0 	call	81bec <alt_avalon_sgdma_do_async_transfer>
   80388:	00800434 	movhi	r2,16
   8038c:	108a0004 	addi	r2,r2,10240
   80390:	e0bffc15 	stw	r2,-16(fp)
   80394:	e0bffc17 	ldw	r2,-16(fp)
   80398:	10c00304 	addi	r3,r2,12
   8039c:	00845bb4 	movhi	r2,4462
   803a0:	10980044 	addi	r2,r2,24577
   803a4:	18800015 	stw	r2,0(r3)
   803a8:	e0bffc17 	ldw	r2,-16(fp)
   803ac:	10800404 	addi	r2,r2,16
   803b0:	00c3c084 	movi	r3,3842
   803b4:	10c00015 	stw	r3,0(r2)
   803b8:	e0bffc17 	ldw	r2,-16(fp)
   803bc:	10800f04 	addi	r2,r2,60
   803c0:	10000015 	stw	zero,0(r2)
   803c4:	e0bffc17 	ldw	r2,-16(fp)
   803c8:	10801004 	addi	r2,r2,64
   803cc:	10000015 	stw	zero,0(r2)
   803d0:	e0bffc17 	ldw	r2,-16(fp)
   803d4:	10809404 	addi	r2,r2,592
   803d8:	10000015 	stw	zero,0(r2)
   803dc:	e0bffc17 	ldw	r2,-16(fp)
   803e0:	1080b004 	addi	r2,r2,704
   803e4:	e0fffc17 	ldw	r3,-16(fp)
   803e8:	18c0b004 	addi	r3,r3,704
   803ec:	18c00017 	ldw	r3,0(r3)
   803f0:	18c01814 	ori	r3,r3,96
   803f4:	10c00015 	stw	r3,0(r2)
   803f8:	e0bffc17 	ldw	r2,-16(fp)
   803fc:	1080b404 	addi	r2,r2,720
   80400:	e0fffc17 	ldw	r3,-16(fp)
   80404:	18c0b404 	addi	r3,r3,720
   80408:	18c00017 	ldw	r3,0(r3)
   8040c:	18c02094 	ori	r3,r3,130
   80410:	10c00015 	stw	r3,0(r2)
   80414:	e0bffc17 	ldw	r2,-16(fp)
   80418:	1080a004 	addi	r2,r2,640
   8041c:	e0fffc17 	ldw	r3,-16(fp)
   80420:	18c0a004 	addi	r3,r3,640
   80424:	18c00017 	ldw	r3,0(r3)
   80428:	18e00014 	ori	r3,r3,32768
   8042c:	10c00015 	stw	r3,0(r2)
   80430:	0001883a 	nop
   80434:	e0bffc17 	ldw	r2,-16(fp)
   80438:	1080a004 	addi	r2,r2,640
   8043c:	10800017 	ldw	r2,0(r2)
   80440:	10a0000c 	andi	r2,r2,32768
   80444:	103ffb1e 	bne	r2,zero,80434 <__alt_mem_RAM_block+0xfff7ec34>
   80448:	e0bffc17 	ldw	r2,-16(fp)
   8044c:	10800204 	addi	r2,r2,8
   80450:	e0fffc17 	ldw	r3,-16(fp)
   80454:	18c00204 	addi	r3,r3,8
   80458:	18c00017 	ldw	r3,0(r3)
   8045c:	18c012d4 	ori	r3,r3,75
   80460:	10c00015 	stw	r3,0(r2)
   80464:	01000234 	movhi	r4,8
   80468:	21190804 	addi	r4,r4,25632
   8046c:	0080e000 	call	80e00 <alt_printf>
   80470:	d8000015 	stw	zero,0(sp)
   80474:	000f883a 	mov	r7,zero
   80478:	01800234 	movhi	r6,8
   8047c:	31819704 	addi	r6,r6,1628
   80480:	01400084 	movi	r5,2
   80484:	0009883a 	mov	r4,zero
   80488:	00809f80 	call	809f8 <alt_ic_isr_register>
   8048c:	01400084 	movi	r5,2
   80490:	0009883a 	mov	r4,zero
   80494:	0080a480 	call	80a48 <alt_ic_irq_enable>
   80498:	01000234 	movhi	r4,8
   8049c:	21190f04 	addi	r4,r4,25660
   804a0:	0080e000 	call	80e00 <alt_printf>
   804a4:	00801104 	movi	r2,68
   804a8:	e0bffd0d 	sth	r2,-12(fp)
   804ac:	e0bffd0b 	ldhu	r2,-12(fp)
   804b0:	1004d23a 	srli	r2,r2,8
   804b4:	1007883a 	mov	r3,r2
   804b8:	00800234 	movhi	r2,8
   804bc:	10992904 	addi	r2,r2,25764
   804c0:	10c00485 	stb	r3,18(r2)
   804c4:	e0bffd0b 	ldhu	r2,-12(fp)
   804c8:	1007883a 	mov	r3,r2
   804cc:	00800234 	movhi	r2,8
   804d0:	10992904 	addi	r2,r2,25764
   804d4:	10c004c5 	stb	r3,19(r2)
   804d8:	00800c04 	movi	r2,48
   804dc:	e0bffd8d 	sth	r2,-10(fp)
   804e0:	e0bffd8b 	ldhu	r2,-10(fp)
   804e4:	1004d23a 	srli	r2,r2,8
   804e8:	1007883a 	mov	r3,r2
   804ec:	00800234 	movhi	r2,8
   804f0:	10992904 	addi	r2,r2,25764
   804f4:	10c00a05 	stb	r3,40(r2)
   804f8:	e0bffd8b 	ldhu	r2,-10(fp)
   804fc:	1007883a 	mov	r3,r2
   80500:	00800234 	movhi	r2,8
   80504:	10992904 	addi	r2,r2,25764
   80508:	10c00a45 	stb	r3,41(r2)
   8050c:	d0a84517 	ldw	r2,-24300(gp)
   80510:	01400284 	movi	r5,10
   80514:	1009883a 	mov	r4,r2
   80518:	00809a00 	call	809a0 <__umodsi3>
   8051c:	103ffb1e 	bne	r2,zero,8050c <__alt_mem_RAM_block+0xfff7ed0c>
   80520:	d0a84517 	ldw	r2,-24300(gp)
   80524:	e0bffe15 	stw	r2,-8(fp)
   80528:	e0bffe17 	ldw	r2,-8(fp)
   8052c:	01400284 	movi	r5,10
   80530:	1009883a 	mov	r4,r2
   80534:	008093c0 	call	8093c <__udivsi3>
   80538:	108002a4 	muli	r2,r2,10
   8053c:	e0bffe15 	stw	r2,-8(fp)
   80540:	e0bffe17 	ldw	r2,-8(fp)
   80544:	1000021e 	bne	r2,zero,80550 <main+0x2c0>
   80548:	00800a04 	movi	r2,40
   8054c:	00000106 	br	80554 <main+0x2c4>
   80550:	0005883a 	mov	r2,zero
   80554:	e0bfff15 	stw	r2,-4(fp)
   80558:	00c00234 	movhi	r3,8
   8055c:	18d93404 	addi	r3,r3,25808
   80560:	e13fff17 	ldw	r4,-4(fp)
   80564:	00800274 	movhi	r2,9
   80568:	10ab2404 	addi	r2,r2,-21360
   8056c:	2085883a 	add	r2,r4,r2
   80570:	01800284 	movi	r6,10
   80574:	100b883a 	mov	r5,r2
   80578:	1809883a 	mov	r4,r3
   8057c:	00807c80 	call	807c8 <volatile_memcpy>
   80580:	d8000315 	stw	zero,12(sp)
   80584:	00800044 	movi	r2,1
   80588:	d8800215 	stw	r2,8(sp)
   8058c:	00800044 	movi	r2,1
   80590:	d8800115 	stw	r2,4(sp)
   80594:	d8000015 	stw	zero,0(sp)
   80598:	01c01504 	movi	r7,84
   8059c:	01800234 	movhi	r6,8
   805a0:	31992904 	addi	r6,r6,25764
   805a4:	01400434 	movhi	r5,16
   805a8:	29400804 	addi	r5,r5,32
   805ac:	01000434 	movhi	r4,16
   805b0:	21000004 	addi	r4,r4,0
   805b4:	0081ff00 	call	81ff0 <alt_avalon_sgdma_construct_mem_to_stream_desc>
   805b8:	d0a84617 	ldw	r2,-24296(gp)
   805bc:	01400434 	movhi	r5,16
   805c0:	29400004 	addi	r5,r5,0
   805c4:	1009883a 	mov	r4,r2
   805c8:	0081bec0 	call	81bec <alt_avalon_sgdma_do_async_transfer>
   805cc:	003fcf06 	br	8050c <__alt_mem_RAM_block+0xfff7ed0c>
   805d0:	e037883a 	mov	sp,fp
   805d4:	dfc00117 	ldw	ra,4(sp)
   805d8:	df000017 	ldw	fp,0(sp)
   805dc:	dec00204 	addi	sp,sp,8
   805e0:	f800283a 	ret

000805e4 <rx_ethernet_isr>:
   805e4:	defffc04 	addi	sp,sp,-16
   805e8:	dfc00315 	stw	ra,12(sp)
   805ec:	df000215 	stw	fp,8(sp)
   805f0:	df000204 	addi	fp,sp,8
   805f4:	e13fff15 	stw	r4,-4(fp)
   805f8:	0001883a 	nop
   805fc:	01000434 	movhi	r4,16
   80600:	21001004 	addi	r4,r4,64
   80604:	00822040 	call	82204 <alt_avalon_sgdma_check_descriptor_status>
   80608:	103ffc1e 	bne	r2,zero,805fc <__alt_mem_RAM_block+0xfff7edfc>
   8060c:	d8000015 	stw	zero,0(sp)
   80610:	000f883a 	mov	r7,zero
   80614:	01800274 	movhi	r6,9
   80618:	31a99e04 	addi	r6,r6,-22920
   8061c:	01400434 	movhi	r5,16
   80620:	29401804 	addi	r5,r5,96
   80624:	01000434 	movhi	r4,16
   80628:	21001004 	addi	r4,r4,64
   8062c:	0081f180 	call	81f18 <alt_avalon_sgdma_construct_stream_to_mem_desc>
   80630:	d0a84817 	ldw	r2,-24288(gp)
   80634:	01400434 	movhi	r5,16
   80638:	29401004 	addi	r5,r5,64
   8063c:	1009883a 	mov	r4,r2
   80640:	0081bec0 	call	81bec <alt_avalon_sgdma_do_async_transfer>
   80644:	0001883a 	nop
   80648:	e037883a 	mov	sp,fp
   8064c:	dfc00117 	ldw	ra,4(sp)
   80650:	df000017 	ldw	fp,0(sp)
   80654:	dec00204 	addi	sp,sp,8
   80658:	f800283a 	ret

0008065c <mic_filter_isr>:
   8065c:	defffd04 	addi	sp,sp,-12
   80660:	dfc00215 	stw	ra,8(sp)
   80664:	df000115 	stw	fp,4(sp)
   80668:	df000104 	addi	fp,sp,4
   8066c:	e13fff15 	stw	r4,-4(fp)
   80670:	d0a84517 	ldw	r2,-24300(gp)
   80674:	1085883a 	add	r2,r2,r2
   80678:	1085883a 	add	r2,r2,r2
   8067c:	1007883a 	mov	r3,r2
   80680:	00800274 	movhi	r2,9
   80684:	10ab2404 	addi	r2,r2,-21360
   80688:	1885883a 	add	r2,r3,r2
   8068c:	d0e00017 	ldw	r3,-32768(gp)
   80690:	01800044 	movi	r6,1
   80694:	180b883a 	mov	r5,r3
   80698:	1009883a 	mov	r4,r2
   8069c:	00807c80 	call	807c8 <volatile_memcpy>
   806a0:	d0a84517 	ldw	r2,-24300(gp)
   806a4:	10800044 	addi	r2,r2,1
   806a8:	01400504 	movi	r5,20
   806ac:	1009883a 	mov	r4,r2
   806b0:	00809a00 	call	809a0 <__umodsi3>
   806b4:	d0a84515 	stw	r2,-24300(gp)
   806b8:	d0e00017 	ldw	r3,-32768(gp)
   806bc:	01008004 	movi	r4,512
   806c0:	00900034 	movhi	r2,16384
   806c4:	10bfffc4 	addi	r2,r2,-1
   806c8:	2085883a 	add	r2,r4,r2
   806cc:	1085883a 	add	r2,r2,r2
   806d0:	1085883a 	add	r2,r2,r2
   806d4:	1885883a 	add	r2,r3,r2
   806d8:	10000015 	stw	zero,0(r2)
   806dc:	0001883a 	nop
   806e0:	e037883a 	mov	sp,fp
   806e4:	dfc00117 	ldw	ra,4(sp)
   806e8:	df000017 	ldw	fp,0(sp)
   806ec:	dec00204 	addi	sp,sp,8
   806f0:	f800283a 	ret

000806f4 <fill_ipv4_checksum>:
   806f4:	defff904 	addi	sp,sp,-28
   806f8:	df000615 	stw	fp,24(sp)
   806fc:	df000604 	addi	fp,sp,24
   80700:	e13ffe15 	stw	r4,-8(fp)
   80704:	e17fff15 	stw	r5,-4(fp)
   80708:	e0bffe17 	ldw	r2,-8(fp)
   8070c:	e0bffa15 	stw	r2,-24(fp)
   80710:	e0bfff17 	ldw	r2,-4(fp)
   80714:	1005d07a 	srai	r2,r2,1
   80718:	e0bfff15 	stw	r2,-4(fp)
   8071c:	e03ffb15 	stw	zero,-20(fp)
   80720:	00000b06 	br	80750 <fill_ipv4_checksum+0x5c>
   80724:	e0bffa17 	ldw	r2,-24(fp)
   80728:	10c00084 	addi	r3,r2,2
   8072c:	e0fffa15 	stw	r3,-24(fp)
   80730:	1080000b 	ldhu	r2,0(r2)
   80734:	10bfffcc 	andi	r2,r2,65535
   80738:	e0fffb17 	ldw	r3,-20(fp)
   8073c:	1885883a 	add	r2,r3,r2
   80740:	e0bffb15 	stw	r2,-20(fp)
   80744:	e0bfff17 	ldw	r2,-4(fp)
   80748:	10bfffc4 	addi	r2,r2,-1
   8074c:	e0bfff15 	stw	r2,-4(fp)
   80750:	e0bfff17 	ldw	r2,-4(fp)
   80754:	00bff316 	blt	zero,r2,80724 <__alt_mem_RAM_block+0xfff7ef24>
   80758:	00000506 	br	80770 <fill_ipv4_checksum+0x7c>
   8075c:	e0bffb17 	ldw	r2,-20(fp)
   80760:	10ffffcc 	andi	r3,r2,65535
   80764:	e0bffc17 	ldw	r2,-16(fp)
   80768:	1885883a 	add	r2,r3,r2
   8076c:	e0bffb15 	stw	r2,-20(fp)
   80770:	e0bffb17 	ldw	r2,-20(fp)
   80774:	1004d43a 	srli	r2,r2,16
   80778:	e0bffc15 	stw	r2,-16(fp)
   8077c:	e0bffc17 	ldw	r2,-16(fp)
   80780:	103ff61e 	bne	r2,zero,8075c <__alt_mem_RAM_block+0xfff7ef5c>
   80784:	e0bffb17 	ldw	r2,-20(fp)
   80788:	0084303a 	nor	r2,zero,r2
   8078c:	e0bffd0d 	sth	r2,-12(fp)
   80790:	e0bffe17 	ldw	r2,-8(fp)
   80794:	10800284 	addi	r2,r2,10
   80798:	e0fffd0b 	ldhu	r3,-12(fp)
   8079c:	10c00005 	stb	r3,0(r2)
   807a0:	e0bffe17 	ldw	r2,-8(fp)
   807a4:	108002c4 	addi	r2,r2,11
   807a8:	e0fffd0b 	ldhu	r3,-12(fp)
   807ac:	1806d23a 	srli	r3,r3,8
   807b0:	10c00005 	stb	r3,0(r2)
   807b4:	0001883a 	nop
   807b8:	e037883a 	mov	sp,fp
   807bc:	df000017 	ldw	fp,0(sp)
   807c0:	dec00104 	addi	sp,sp,4
   807c4:	f800283a 	ret

000807c8 <volatile_memcpy>:
   807c8:	defff904 	addi	sp,sp,-28
   807cc:	df000615 	stw	fp,24(sp)
   807d0:	df000604 	addi	fp,sp,24
   807d4:	e13ffd15 	stw	r4,-12(fp)
   807d8:	e17ffe15 	stw	r5,-8(fp)
   807dc:	e1bfff15 	stw	r6,-4(fp)
   807e0:	e0bffd17 	ldw	r2,-12(fp)
   807e4:	e0bffa15 	stw	r2,-24(fp)
   807e8:	e0bffe17 	ldw	r2,-8(fp)
   807ec:	e0bffb15 	stw	r2,-20(fp)
   807f0:	e03ffc15 	stw	zero,-16(fp)
   807f4:	00000b06 	br	80824 <volatile_memcpy+0x5c>
   807f8:	e0bffa17 	ldw	r2,-24(fp)
   807fc:	10c00104 	addi	r3,r2,4
   80800:	e0fffa15 	stw	r3,-24(fp)
   80804:	e0fffb17 	ldw	r3,-20(fp)
   80808:	19000104 	addi	r4,r3,4
   8080c:	e13ffb15 	stw	r4,-20(fp)
   80810:	18c00017 	ldw	r3,0(r3)
   80814:	10c00015 	stw	r3,0(r2)
   80818:	e0bffc17 	ldw	r2,-16(fp)
   8081c:	10800044 	addi	r2,r2,1
   80820:	e0bffc15 	stw	r2,-16(fp)
   80824:	e0fffc17 	ldw	r3,-16(fp)
   80828:	e0bfff17 	ldw	r2,-4(fp)
   8082c:	18bff216 	blt	r3,r2,807f8 <__alt_mem_RAM_block+0xfff7eff8>
   80830:	0001883a 	nop
   80834:	e037883a 	mov	sp,fp
   80838:	df000017 	ldw	fp,0(sp)
   8083c:	dec00104 	addi	sp,sp,4
   80840:	f800283a 	ret

00080844 <__divsi3>:
   80844:	20001b16 	blt	r4,zero,808b4 <__divsi3+0x70>
   80848:	000f883a 	mov	r7,zero
   8084c:	28001616 	blt	r5,zero,808a8 <__divsi3+0x64>
   80850:	200d883a 	mov	r6,r4
   80854:	29001a2e 	bgeu	r5,r4,808c0 <__divsi3+0x7c>
   80858:	00800804 	movi	r2,32
   8085c:	00c00044 	movi	r3,1
   80860:	00000106 	br	80868 <__divsi3+0x24>
   80864:	10000d26 	beq	r2,zero,8089c <__divsi3+0x58>
   80868:	294b883a 	add	r5,r5,r5
   8086c:	10bfffc4 	addi	r2,r2,-1
   80870:	18c7883a 	add	r3,r3,r3
   80874:	293ffb36 	bltu	r5,r4,80864 <__alt_mem_RAM_block+0xfff7f064>
   80878:	0005883a 	mov	r2,zero
   8087c:	18000726 	beq	r3,zero,8089c <__divsi3+0x58>
   80880:	0005883a 	mov	r2,zero
   80884:	31400236 	bltu	r6,r5,80890 <__divsi3+0x4c>
   80888:	314dc83a 	sub	r6,r6,r5
   8088c:	10c4b03a 	or	r2,r2,r3
   80890:	1806d07a 	srli	r3,r3,1
   80894:	280ad07a 	srli	r5,r5,1
   80898:	183ffa1e 	bne	r3,zero,80884 <__alt_mem_RAM_block+0xfff7f084>
   8089c:	38000126 	beq	r7,zero,808a4 <__divsi3+0x60>
   808a0:	0085c83a 	sub	r2,zero,r2
   808a4:	f800283a 	ret
   808a8:	014bc83a 	sub	r5,zero,r5
   808ac:	39c0005c 	xori	r7,r7,1
   808b0:	003fe706 	br	80850 <__alt_mem_RAM_block+0xfff7f050>
   808b4:	0109c83a 	sub	r4,zero,r4
   808b8:	01c00044 	movi	r7,1
   808bc:	003fe306 	br	8084c <__alt_mem_RAM_block+0xfff7f04c>
   808c0:	00c00044 	movi	r3,1
   808c4:	003fee06 	br	80880 <__alt_mem_RAM_block+0xfff7f080>

000808c8 <__modsi3>:
   808c8:	20001716 	blt	r4,zero,80928 <__modsi3+0x60>
   808cc:	000f883a 	mov	r7,zero
   808d0:	2005883a 	mov	r2,r4
   808d4:	28001216 	blt	r5,zero,80920 <__modsi3+0x58>
   808d8:	2900162e 	bgeu	r5,r4,80934 <__modsi3+0x6c>
   808dc:	01800804 	movi	r6,32
   808e0:	00c00044 	movi	r3,1
   808e4:	00000106 	br	808ec <__modsi3+0x24>
   808e8:	30000a26 	beq	r6,zero,80914 <__modsi3+0x4c>
   808ec:	294b883a 	add	r5,r5,r5
   808f0:	31bfffc4 	addi	r6,r6,-1
   808f4:	18c7883a 	add	r3,r3,r3
   808f8:	293ffb36 	bltu	r5,r4,808e8 <__alt_mem_RAM_block+0xfff7f0e8>
   808fc:	18000526 	beq	r3,zero,80914 <__modsi3+0x4c>
   80900:	1806d07a 	srli	r3,r3,1
   80904:	11400136 	bltu	r2,r5,8090c <__modsi3+0x44>
   80908:	1145c83a 	sub	r2,r2,r5
   8090c:	280ad07a 	srli	r5,r5,1
   80910:	183ffb1e 	bne	r3,zero,80900 <__alt_mem_RAM_block+0xfff7f100>
   80914:	38000126 	beq	r7,zero,8091c <__modsi3+0x54>
   80918:	0085c83a 	sub	r2,zero,r2
   8091c:	f800283a 	ret
   80920:	014bc83a 	sub	r5,zero,r5
   80924:	003fec06 	br	808d8 <__alt_mem_RAM_block+0xfff7f0d8>
   80928:	0109c83a 	sub	r4,zero,r4
   8092c:	01c00044 	movi	r7,1
   80930:	003fe706 	br	808d0 <__alt_mem_RAM_block+0xfff7f0d0>
   80934:	00c00044 	movi	r3,1
   80938:	003ff106 	br	80900 <__alt_mem_RAM_block+0xfff7f100>

0008093c <__udivsi3>:
   8093c:	200d883a 	mov	r6,r4
   80940:	2900152e 	bgeu	r5,r4,80998 <__udivsi3+0x5c>
   80944:	28001416 	blt	r5,zero,80998 <__udivsi3+0x5c>
   80948:	00800804 	movi	r2,32
   8094c:	00c00044 	movi	r3,1
   80950:	00000206 	br	8095c <__udivsi3+0x20>
   80954:	10000e26 	beq	r2,zero,80990 <__udivsi3+0x54>
   80958:	28000516 	blt	r5,zero,80970 <__udivsi3+0x34>
   8095c:	294b883a 	add	r5,r5,r5
   80960:	10bfffc4 	addi	r2,r2,-1
   80964:	18c7883a 	add	r3,r3,r3
   80968:	293ffa36 	bltu	r5,r4,80954 <__alt_mem_RAM_block+0xfff7f154>
   8096c:	18000826 	beq	r3,zero,80990 <__udivsi3+0x54>
   80970:	0005883a 	mov	r2,zero
   80974:	31400236 	bltu	r6,r5,80980 <__udivsi3+0x44>
   80978:	314dc83a 	sub	r6,r6,r5
   8097c:	10c4b03a 	or	r2,r2,r3
   80980:	1806d07a 	srli	r3,r3,1
   80984:	280ad07a 	srli	r5,r5,1
   80988:	183ffa1e 	bne	r3,zero,80974 <__alt_mem_RAM_block+0xfff7f174>
   8098c:	f800283a 	ret
   80990:	0005883a 	mov	r2,zero
   80994:	f800283a 	ret
   80998:	00c00044 	movi	r3,1
   8099c:	003ff406 	br	80970 <__alt_mem_RAM_block+0xfff7f170>

000809a0 <__umodsi3>:
   809a0:	2005883a 	mov	r2,r4
   809a4:	2900122e 	bgeu	r5,r4,809f0 <__umodsi3+0x50>
   809a8:	28001116 	blt	r5,zero,809f0 <__umodsi3+0x50>
   809ac:	01800804 	movi	r6,32
   809b0:	00c00044 	movi	r3,1
   809b4:	00000206 	br	809c0 <__umodsi3+0x20>
   809b8:	30000c26 	beq	r6,zero,809ec <__umodsi3+0x4c>
   809bc:	28000516 	blt	r5,zero,809d4 <__umodsi3+0x34>
   809c0:	294b883a 	add	r5,r5,r5
   809c4:	31bfffc4 	addi	r6,r6,-1
   809c8:	18c7883a 	add	r3,r3,r3
   809cc:	293ffa36 	bltu	r5,r4,809b8 <__alt_mem_RAM_block+0xfff7f1b8>
   809d0:	18000626 	beq	r3,zero,809ec <__umodsi3+0x4c>
   809d4:	1806d07a 	srli	r3,r3,1
   809d8:	11400136 	bltu	r2,r5,809e0 <__umodsi3+0x40>
   809dc:	1145c83a 	sub	r2,r2,r5
   809e0:	280ad07a 	srli	r5,r5,1
   809e4:	183ffb1e 	bne	r3,zero,809d4 <__alt_mem_RAM_block+0xfff7f1d4>
   809e8:	f800283a 	ret
   809ec:	f800283a 	ret
   809f0:	00c00044 	movi	r3,1
   809f4:	003ff706 	br	809d4 <__alt_mem_RAM_block+0xfff7f1d4>

000809f8 <alt_ic_isr_register>:
   809f8:	defff904 	addi	sp,sp,-28
   809fc:	dfc00615 	stw	ra,24(sp)
   80a00:	df000515 	stw	fp,20(sp)
   80a04:	df000504 	addi	fp,sp,20
   80a08:	e13ffc15 	stw	r4,-16(fp)
   80a0c:	e17ffd15 	stw	r5,-12(fp)
   80a10:	e1bffe15 	stw	r6,-8(fp)
   80a14:	e1ffff15 	stw	r7,-4(fp)
   80a18:	e0800217 	ldw	r2,8(fp)
   80a1c:	d8800015 	stw	r2,0(sp)
   80a20:	e1ffff17 	ldw	r7,-4(fp)
   80a24:	e1bffe17 	ldw	r6,-8(fp)
   80a28:	e17ffd17 	ldw	r5,-12(fp)
   80a2c:	e13ffc17 	ldw	r4,-16(fp)
   80a30:	0080ba80 	call	80ba8 <alt_iic_isr_register>
   80a34:	e037883a 	mov	sp,fp
   80a38:	dfc00117 	ldw	ra,4(sp)
   80a3c:	df000017 	ldw	fp,0(sp)
   80a40:	dec00204 	addi	sp,sp,8
   80a44:	f800283a 	ret

00080a48 <alt_ic_irq_enable>:
   80a48:	defff904 	addi	sp,sp,-28
   80a4c:	df000615 	stw	fp,24(sp)
   80a50:	df000604 	addi	fp,sp,24
   80a54:	e13ffe15 	stw	r4,-8(fp)
   80a58:	e17fff15 	stw	r5,-4(fp)
   80a5c:	e0bfff17 	ldw	r2,-4(fp)
   80a60:	e0bffa15 	stw	r2,-24(fp)
   80a64:	0005303a 	rdctl	r2,status
   80a68:	e0bffb15 	stw	r2,-20(fp)
   80a6c:	e0fffb17 	ldw	r3,-20(fp)
   80a70:	00bfff84 	movi	r2,-2
   80a74:	1884703a 	and	r2,r3,r2
   80a78:	1001703a 	wrctl	status,r2
   80a7c:	e0bffb17 	ldw	r2,-20(fp)
   80a80:	e0bffc15 	stw	r2,-16(fp)
   80a84:	00c00044 	movi	r3,1
   80a88:	e0bffa17 	ldw	r2,-24(fp)
   80a8c:	1884983a 	sll	r2,r3,r2
   80a90:	1007883a 	mov	r3,r2
   80a94:	d0a84917 	ldw	r2,-24284(gp)
   80a98:	1884b03a 	or	r2,r3,r2
   80a9c:	d0a84915 	stw	r2,-24284(gp)
   80aa0:	d0a84917 	ldw	r2,-24284(gp)
   80aa4:	100170fa 	wrctl	ienable,r2
   80aa8:	e0bffc17 	ldw	r2,-16(fp)
   80aac:	e0bffd15 	stw	r2,-12(fp)
   80ab0:	e0bffd17 	ldw	r2,-12(fp)
   80ab4:	1001703a 	wrctl	status,r2
   80ab8:	0005883a 	mov	r2,zero
   80abc:	0001883a 	nop
   80ac0:	e037883a 	mov	sp,fp
   80ac4:	df000017 	ldw	fp,0(sp)
   80ac8:	dec00104 	addi	sp,sp,4
   80acc:	f800283a 	ret

00080ad0 <alt_ic_irq_disable>:
   80ad0:	defff904 	addi	sp,sp,-28
   80ad4:	df000615 	stw	fp,24(sp)
   80ad8:	df000604 	addi	fp,sp,24
   80adc:	e13ffe15 	stw	r4,-8(fp)
   80ae0:	e17fff15 	stw	r5,-4(fp)
   80ae4:	e0bfff17 	ldw	r2,-4(fp)
   80ae8:	e0bffa15 	stw	r2,-24(fp)
   80aec:	0005303a 	rdctl	r2,status
   80af0:	e0bffb15 	stw	r2,-20(fp)
   80af4:	e0fffb17 	ldw	r3,-20(fp)
   80af8:	00bfff84 	movi	r2,-2
   80afc:	1884703a 	and	r2,r3,r2
   80b00:	1001703a 	wrctl	status,r2
   80b04:	e0bffb17 	ldw	r2,-20(fp)
   80b08:	e0bffc15 	stw	r2,-16(fp)
   80b0c:	00c00044 	movi	r3,1
   80b10:	e0bffa17 	ldw	r2,-24(fp)
   80b14:	1884983a 	sll	r2,r3,r2
   80b18:	0084303a 	nor	r2,zero,r2
   80b1c:	1007883a 	mov	r3,r2
   80b20:	d0a84917 	ldw	r2,-24284(gp)
   80b24:	1884703a 	and	r2,r3,r2
   80b28:	d0a84915 	stw	r2,-24284(gp)
   80b2c:	d0a84917 	ldw	r2,-24284(gp)
   80b30:	100170fa 	wrctl	ienable,r2
   80b34:	e0bffc17 	ldw	r2,-16(fp)
   80b38:	e0bffd15 	stw	r2,-12(fp)
   80b3c:	e0bffd17 	ldw	r2,-12(fp)
   80b40:	1001703a 	wrctl	status,r2
   80b44:	0005883a 	mov	r2,zero
   80b48:	0001883a 	nop
   80b4c:	e037883a 	mov	sp,fp
   80b50:	df000017 	ldw	fp,0(sp)
   80b54:	dec00104 	addi	sp,sp,4
   80b58:	f800283a 	ret

00080b5c <alt_ic_irq_enabled>:
   80b5c:	defffc04 	addi	sp,sp,-16
   80b60:	df000315 	stw	fp,12(sp)
   80b64:	df000304 	addi	fp,sp,12
   80b68:	e13ffe15 	stw	r4,-8(fp)
   80b6c:	e17fff15 	stw	r5,-4(fp)
   80b70:	000530fa 	rdctl	r2,ienable
   80b74:	e0bffd15 	stw	r2,-12(fp)
   80b78:	00c00044 	movi	r3,1
   80b7c:	e0bfff17 	ldw	r2,-4(fp)
   80b80:	1884983a 	sll	r2,r3,r2
   80b84:	1007883a 	mov	r3,r2
   80b88:	e0bffd17 	ldw	r2,-12(fp)
   80b8c:	1884703a 	and	r2,r3,r2
   80b90:	1004c03a 	cmpne	r2,r2,zero
   80b94:	10803fcc 	andi	r2,r2,255
   80b98:	e037883a 	mov	sp,fp
   80b9c:	df000017 	ldw	fp,0(sp)
   80ba0:	dec00104 	addi	sp,sp,4
   80ba4:	f800283a 	ret

00080ba8 <alt_iic_isr_register>:
   80ba8:	defff504 	addi	sp,sp,-44
   80bac:	dfc00a15 	stw	ra,40(sp)
   80bb0:	df000915 	stw	fp,36(sp)
   80bb4:	df000904 	addi	fp,sp,36
   80bb8:	e13ffc15 	stw	r4,-16(fp)
   80bbc:	e17ffd15 	stw	r5,-12(fp)
   80bc0:	e1bffe15 	stw	r6,-8(fp)
   80bc4:	e1ffff15 	stw	r7,-4(fp)
   80bc8:	00bffa84 	movi	r2,-22
   80bcc:	e0bff715 	stw	r2,-36(fp)
   80bd0:	e0bffd17 	ldw	r2,-12(fp)
   80bd4:	e0bff815 	stw	r2,-32(fp)
   80bd8:	e0bff817 	ldw	r2,-32(fp)
   80bdc:	10800808 	cmpgei	r2,r2,32
   80be0:	1000271e 	bne	r2,zero,80c80 <alt_iic_isr_register+0xd8>
   80be4:	0005303a 	rdctl	r2,status
   80be8:	e0bffb15 	stw	r2,-20(fp)
   80bec:	e0fffb17 	ldw	r3,-20(fp)
   80bf0:	00bfff84 	movi	r2,-2
   80bf4:	1884703a 	and	r2,r3,r2
   80bf8:	1001703a 	wrctl	status,r2
   80bfc:	e0bffb17 	ldw	r2,-20(fp)
   80c00:	e0bffa15 	stw	r2,-24(fp)
   80c04:	00800274 	movhi	r2,9
   80c08:	10ab3804 	addi	r2,r2,-21280
   80c0c:	e0fff817 	ldw	r3,-32(fp)
   80c10:	180690fa 	slli	r3,r3,3
   80c14:	10c5883a 	add	r2,r2,r3
   80c18:	e0fffe17 	ldw	r3,-8(fp)
   80c1c:	10c00015 	stw	r3,0(r2)
   80c20:	00800274 	movhi	r2,9
   80c24:	10ab3804 	addi	r2,r2,-21280
   80c28:	e0fff817 	ldw	r3,-32(fp)
   80c2c:	180690fa 	slli	r3,r3,3
   80c30:	10c5883a 	add	r2,r2,r3
   80c34:	10800104 	addi	r2,r2,4
   80c38:	e0ffff17 	ldw	r3,-4(fp)
   80c3c:	10c00015 	stw	r3,0(r2)
   80c40:	e0bffe17 	ldw	r2,-8(fp)
   80c44:	10000526 	beq	r2,zero,80c5c <alt_iic_isr_register+0xb4>
   80c48:	e0bff817 	ldw	r2,-32(fp)
   80c4c:	100b883a 	mov	r5,r2
   80c50:	e13ffc17 	ldw	r4,-16(fp)
   80c54:	0080a480 	call	80a48 <alt_ic_irq_enable>
   80c58:	00000406 	br	80c6c <alt_iic_isr_register+0xc4>
   80c5c:	e0bff817 	ldw	r2,-32(fp)
   80c60:	100b883a 	mov	r5,r2
   80c64:	e13ffc17 	ldw	r4,-16(fp)
   80c68:	0080ad00 	call	80ad0 <alt_ic_irq_disable>
   80c6c:	e0bff715 	stw	r2,-36(fp)
   80c70:	e0bffa17 	ldw	r2,-24(fp)
   80c74:	e0bff915 	stw	r2,-28(fp)
   80c78:	e0bff917 	ldw	r2,-28(fp)
   80c7c:	1001703a 	wrctl	status,r2
   80c80:	e0bff717 	ldw	r2,-36(fp)
   80c84:	e037883a 	mov	sp,fp
   80c88:	dfc00117 	ldw	ra,4(sp)
   80c8c:	df000017 	ldw	fp,0(sp)
   80c90:	dec00204 	addi	sp,sp,8
   80c94:	f800283a 	ret

00080c98 <alt_load_section>:
   80c98:	defffc04 	addi	sp,sp,-16
   80c9c:	df000315 	stw	fp,12(sp)
   80ca0:	df000304 	addi	fp,sp,12
   80ca4:	e13ffd15 	stw	r4,-12(fp)
   80ca8:	e17ffe15 	stw	r5,-8(fp)
   80cac:	e1bfff15 	stw	r6,-4(fp)
   80cb0:	e0fffe17 	ldw	r3,-8(fp)
   80cb4:	e0bffd17 	ldw	r2,-12(fp)
   80cb8:	18800c26 	beq	r3,r2,80cec <alt_load_section+0x54>
   80cbc:	00000806 	br	80ce0 <alt_load_section+0x48>
   80cc0:	e0bffe17 	ldw	r2,-8(fp)
   80cc4:	10c00104 	addi	r3,r2,4
   80cc8:	e0fffe15 	stw	r3,-8(fp)
   80ccc:	e0fffd17 	ldw	r3,-12(fp)
   80cd0:	19000104 	addi	r4,r3,4
   80cd4:	e13ffd15 	stw	r4,-12(fp)
   80cd8:	18c00017 	ldw	r3,0(r3)
   80cdc:	10c00015 	stw	r3,0(r2)
   80ce0:	e0fffe17 	ldw	r3,-8(fp)
   80ce4:	e0bfff17 	ldw	r2,-4(fp)
   80ce8:	18bff51e 	bne	r3,r2,80cc0 <__alt_mem_RAM_block+0xfff7f4c0>
   80cec:	0001883a 	nop
   80cf0:	e037883a 	mov	sp,fp
   80cf4:	df000017 	ldw	fp,0(sp)
   80cf8:	dec00104 	addi	sp,sp,4
   80cfc:	f800283a 	ret

00080d00 <alt_load>:
   80d00:	defffe04 	addi	sp,sp,-8
   80d04:	dfc00115 	stw	ra,4(sp)
   80d08:	df000015 	stw	fp,0(sp)
   80d0c:	d839883a 	mov	fp,sp
   80d10:	01800274 	movhi	r6,9
   80d14:	31a15c04 	addi	r6,r6,-31376
   80d18:	01400234 	movhi	r5,8
   80d1c:	29592904 	addi	r5,r5,25764
   80d20:	01000274 	movhi	r4,9
   80d24:	21215c04 	addi	r4,r4,-31376
   80d28:	0080c980 	call	80c98 <alt_load_section>
   80d2c:	01800234 	movhi	r6,8
   80d30:	31809104 	addi	r6,r6,580
   80d34:	01400234 	movhi	r5,8
   80d38:	29400804 	addi	r5,r5,32
   80d3c:	01000234 	movhi	r4,8
   80d40:	21000804 	addi	r4,r4,32
   80d44:	0080c980 	call	80c98 <alt_load_section>
   80d48:	01800234 	movhi	r6,8
   80d4c:	31992904 	addi	r6,r6,25764
   80d50:	01400234 	movhi	r5,8
   80d54:	2958b604 	addi	r5,r5,25304
   80d58:	01000234 	movhi	r4,8
   80d5c:	2118b604 	addi	r4,r4,25304
   80d60:	0080c980 	call	80c98 <alt_load_section>
   80d64:	0082bf40 	call	82bf4 <alt_dcache_flush_all>
   80d68:	0082e980 	call	82e98 <alt_icache_flush_all>
   80d6c:	0001883a 	nop
   80d70:	e037883a 	mov	sp,fp
   80d74:	dfc00117 	ldw	ra,4(sp)
   80d78:	df000017 	ldw	fp,0(sp)
   80d7c:	dec00204 	addi	sp,sp,8
   80d80:	f800283a 	ret

00080d84 <alt_main>:
   80d84:	defffd04 	addi	sp,sp,-12
   80d88:	dfc00215 	stw	ra,8(sp)
   80d8c:	df000115 	stw	fp,4(sp)
   80d90:	df000104 	addi	fp,sp,4
   80d94:	0009883a 	mov	r4,zero
   80d98:	008109c0 	call	8109c <alt_irq_init>
   80d9c:	0001883a 	nop
   80da0:	00810d40 	call	810d4 <alt_sys_init>
   80da4:	01800234 	movhi	r6,8
   80da8:	31991504 	addi	r6,r6,25684
   80dac:	01400234 	movhi	r5,8
   80db0:	29591504 	addi	r5,r5,25684
   80db4:	01000234 	movhi	r4,8
   80db8:	21191504 	addi	r4,r4,25684
   80dbc:	008302c0 	call	8302c <alt_io_redirect>
   80dc0:	0082d480 	call	82d48 <_do_ctors>
   80dc4:	01000234 	movhi	r4,8
   80dc8:	210b6a04 	addi	r4,r4,11688
   80dcc:	00837640 	call	83764 <atexit>
   80dd0:	d0a84a17 	ldw	r2,-24280(gp)
   80dd4:	d0e84b17 	ldw	r3,-24276(gp)
   80dd8:	d1284c17 	ldw	r4,-24272(gp)
   80ddc:	200d883a 	mov	r6,r4
   80de0:	180b883a 	mov	r5,r3
   80de4:	1009883a 	mov	r4,r2
   80de8:	00802900 	call	80290 <main>
   80dec:	e0bfff15 	stw	r2,-4(fp)
   80df0:	01000044 	movi	r4,1
   80df4:	0082aac0 	call	82aac <close>
   80df8:	e13fff17 	ldw	r4,-4(fp)
   80dfc:	00837780 	call	83778 <exit>

00080e00 <alt_printf>:
   80e00:	defff204 	addi	sp,sp,-56
   80e04:	dfc00a15 	stw	ra,40(sp)
   80e08:	df000915 	stw	fp,36(sp)
   80e0c:	df000904 	addi	fp,sp,36
   80e10:	e13fff15 	stw	r4,-4(fp)
   80e14:	e1400215 	stw	r5,8(fp)
   80e18:	e1800315 	stw	r6,12(fp)
   80e1c:	e1c00415 	stw	r7,16(fp)
   80e20:	e0800204 	addi	r2,fp,8
   80e24:	e0bffe15 	stw	r2,-8(fp)
   80e28:	e0bfff17 	ldw	r2,-4(fp)
   80e2c:	e0bff715 	stw	r2,-36(fp)
   80e30:	00006f06 	br	80ff0 <alt_printf+0x1f0>
   80e34:	e0bff807 	ldb	r2,-32(fp)
   80e38:	10800960 	cmpeqi	r2,r2,37
   80e3c:	1000041e 	bne	r2,zero,80e50 <alt_printf+0x50>
   80e40:	e0bff807 	ldb	r2,-32(fp)
   80e44:	1009883a 	mov	r4,r2
   80e48:	008102c0 	call	8102c <alt_putchar>
   80e4c:	00006806 	br	80ff0 <alt_printf+0x1f0>
   80e50:	e0bff717 	ldw	r2,-36(fp)
   80e54:	10c00044 	addi	r3,r2,1
   80e58:	e0fff715 	stw	r3,-36(fp)
   80e5c:	10800003 	ldbu	r2,0(r2)
   80e60:	e0bff805 	stb	r2,-32(fp)
   80e64:	e0bff807 	ldb	r2,-32(fp)
   80e68:	10006926 	beq	r2,zero,81010 <alt_printf+0x210>
   80e6c:	e0bff807 	ldb	r2,-32(fp)
   80e70:	10800958 	cmpnei	r2,r2,37
   80e74:	1000041e 	bne	r2,zero,80e88 <alt_printf+0x88>
   80e78:	e0bff807 	ldb	r2,-32(fp)
   80e7c:	1009883a 	mov	r4,r2
   80e80:	008102c0 	call	8102c <alt_putchar>
   80e84:	00005a06 	br	80ff0 <alt_printf+0x1f0>
   80e88:	e0bff807 	ldb	r2,-32(fp)
   80e8c:	108018d8 	cmpnei	r2,r2,99
   80e90:	1000081e 	bne	r2,zero,80eb4 <alt_printf+0xb4>
   80e94:	e0bffe17 	ldw	r2,-8(fp)
   80e98:	10c00104 	addi	r3,r2,4
   80e9c:	e0fffe15 	stw	r3,-8(fp)
   80ea0:	10800017 	ldw	r2,0(r2)
   80ea4:	e0bffd15 	stw	r2,-12(fp)
   80ea8:	e13ffd17 	ldw	r4,-12(fp)
   80eac:	008102c0 	call	8102c <alt_putchar>
   80eb0:	00004f06 	br	80ff0 <alt_printf+0x1f0>
   80eb4:	e0bff807 	ldb	r2,-32(fp)
   80eb8:	10801e18 	cmpnei	r2,r2,120
   80ebc:	1000341e 	bne	r2,zero,80f90 <alt_printf+0x190>
   80ec0:	e0bffe17 	ldw	r2,-8(fp)
   80ec4:	10c00104 	addi	r3,r2,4
   80ec8:	e0fffe15 	stw	r3,-8(fp)
   80ecc:	10800017 	ldw	r2,0(r2)
   80ed0:	e0bffb15 	stw	r2,-20(fp)
   80ed4:	e0bffb17 	ldw	r2,-20(fp)
   80ed8:	1000031e 	bne	r2,zero,80ee8 <alt_printf+0xe8>
   80edc:	01000c04 	movi	r4,48
   80ee0:	008102c0 	call	8102c <alt_putchar>
   80ee4:	00004206 	br	80ff0 <alt_printf+0x1f0>
   80ee8:	00800704 	movi	r2,28
   80eec:	e0bff915 	stw	r2,-28(fp)
   80ef0:	00000306 	br	80f00 <alt_printf+0x100>
   80ef4:	e0bff917 	ldw	r2,-28(fp)
   80ef8:	10bfff04 	addi	r2,r2,-4
   80efc:	e0bff915 	stw	r2,-28(fp)
   80f00:	00c003c4 	movi	r3,15
   80f04:	e0bff917 	ldw	r2,-28(fp)
   80f08:	1884983a 	sll	r2,r3,r2
   80f0c:	1007883a 	mov	r3,r2
   80f10:	e0bffb17 	ldw	r2,-20(fp)
   80f14:	1884703a 	and	r2,r3,r2
   80f18:	103ff626 	beq	r2,zero,80ef4 <__alt_mem_RAM_block+0xfff7f6f4>
   80f1c:	00001906 	br	80f84 <alt_printf+0x184>
   80f20:	00c003c4 	movi	r3,15
   80f24:	e0bff917 	ldw	r2,-28(fp)
   80f28:	1884983a 	sll	r2,r3,r2
   80f2c:	1007883a 	mov	r3,r2
   80f30:	e0bffb17 	ldw	r2,-20(fp)
   80f34:	1886703a 	and	r3,r3,r2
   80f38:	e0bff917 	ldw	r2,-28(fp)
   80f3c:	1884d83a 	srl	r2,r3,r2
   80f40:	e0bffc15 	stw	r2,-16(fp)
   80f44:	e0bffc17 	ldw	r2,-16(fp)
   80f48:	108002a8 	cmpgeui	r2,r2,10
   80f4c:	1000041e 	bne	r2,zero,80f60 <alt_printf+0x160>
   80f50:	e0bffc17 	ldw	r2,-16(fp)
   80f54:	10800c04 	addi	r2,r2,48
   80f58:	e0bff805 	stb	r2,-32(fp)
   80f5c:	00000306 	br	80f6c <alt_printf+0x16c>
   80f60:	e0bffc17 	ldw	r2,-16(fp)
   80f64:	108015c4 	addi	r2,r2,87
   80f68:	e0bff805 	stb	r2,-32(fp)
   80f6c:	e0bff807 	ldb	r2,-32(fp)
   80f70:	1009883a 	mov	r4,r2
   80f74:	008102c0 	call	8102c <alt_putchar>
   80f78:	e0bff917 	ldw	r2,-28(fp)
   80f7c:	10bfff04 	addi	r2,r2,-4
   80f80:	e0bff915 	stw	r2,-28(fp)
   80f84:	e0bff917 	ldw	r2,-28(fp)
   80f88:	103fe50e 	bge	r2,zero,80f20 <__alt_mem_RAM_block+0xfff7f720>
   80f8c:	00001806 	br	80ff0 <alt_printf+0x1f0>
   80f90:	e0bff807 	ldb	r2,-32(fp)
   80f94:	10801cd8 	cmpnei	r2,r2,115
   80f98:	1000151e 	bne	r2,zero,80ff0 <alt_printf+0x1f0>
   80f9c:	e0bffe17 	ldw	r2,-8(fp)
   80fa0:	10c00104 	addi	r3,r2,4
   80fa4:	e0fffe15 	stw	r3,-8(fp)
   80fa8:	10800017 	ldw	r2,0(r2)
   80fac:	e0bffa15 	stw	r2,-24(fp)
   80fb0:	00000906 	br	80fd8 <alt_printf+0x1d8>
   80fb4:	e0bffa17 	ldw	r2,-24(fp)
   80fb8:	10c00044 	addi	r3,r2,1
   80fbc:	e0fffa15 	stw	r3,-24(fp)
   80fc0:	10800003 	ldbu	r2,0(r2)
   80fc4:	10803fcc 	andi	r2,r2,255
   80fc8:	1080201c 	xori	r2,r2,128
   80fcc:	10bfe004 	addi	r2,r2,-128
   80fd0:	1009883a 	mov	r4,r2
   80fd4:	008102c0 	call	8102c <alt_putchar>
   80fd8:	e0bffa17 	ldw	r2,-24(fp)
   80fdc:	10800003 	ldbu	r2,0(r2)
   80fe0:	10803fcc 	andi	r2,r2,255
   80fe4:	1080201c 	xori	r2,r2,128
   80fe8:	10bfe004 	addi	r2,r2,-128
   80fec:	103ff11e 	bne	r2,zero,80fb4 <__alt_mem_RAM_block+0xfff7f7b4>
   80ff0:	e0bff717 	ldw	r2,-36(fp)
   80ff4:	10c00044 	addi	r3,r2,1
   80ff8:	e0fff715 	stw	r3,-36(fp)
   80ffc:	10800003 	ldbu	r2,0(r2)
   81000:	e0bff805 	stb	r2,-32(fp)
   81004:	e0bff807 	ldb	r2,-32(fp)
   81008:	103f8a1e 	bne	r2,zero,80e34 <__alt_mem_RAM_block+0xfff7f634>
   8100c:	00000106 	br	81014 <alt_printf+0x214>
   81010:	0001883a 	nop
   81014:	0001883a 	nop
   81018:	e037883a 	mov	sp,fp
   8101c:	dfc00117 	ldw	ra,4(sp)
   81020:	df000017 	ldw	fp,0(sp)
   81024:	dec00504 	addi	sp,sp,20
   81028:	f800283a 	ret

0008102c <alt_putchar>:
   8102c:	defffd04 	addi	sp,sp,-12
   81030:	dfc00215 	stw	ra,8(sp)
   81034:	df000115 	stw	fp,4(sp)
   81038:	df000104 	addi	fp,sp,4
   8103c:	e13fff15 	stw	r4,-4(fp)
   81040:	d0a00e17 	ldw	r2,-32712(gp)
   81044:	10800217 	ldw	r2,8(r2)
   81048:	100b883a 	mov	r5,r2
   8104c:	e13fff17 	ldw	r4,-4(fp)
   81050:	0083a140 	call	83a14 <putc>
   81054:	e037883a 	mov	sp,fp
   81058:	dfc00117 	ldw	ra,4(sp)
   8105c:	df000017 	ldw	fp,0(sp)
   81060:	dec00204 	addi	sp,sp,8
   81064:	f800283a 	ret

00081068 <alt_dev_reg>:
   81068:	defffd04 	addi	sp,sp,-12
   8106c:	dfc00215 	stw	ra,8(sp)
   81070:	df000115 	stw	fp,4(sp)
   81074:	df000104 	addi	fp,sp,4
   81078:	e13fff15 	stw	r4,-4(fp)
   8107c:	d1600704 	addi	r5,gp,-32740
   81080:	e13fff17 	ldw	r4,-4(fp)
   81084:	0082ca40 	call	82ca4 <alt_dev_llist_insert>
   81088:	e037883a 	mov	sp,fp
   8108c:	dfc00117 	ldw	ra,4(sp)
   81090:	df000017 	ldw	fp,0(sp)
   81094:	dec00204 	addi	sp,sp,8
   81098:	f800283a 	ret

0008109c <alt_irq_init>:
   8109c:	defffd04 	addi	sp,sp,-12
   810a0:	dfc00215 	stw	ra,8(sp)
   810a4:	df000115 	stw	fp,4(sp)
   810a8:	df000104 	addi	fp,sp,4
   810ac:	e13fff15 	stw	r4,-4(fp)
   810b0:	00835040 	call	83504 <altera_nios2_gen2_irq_init>
   810b4:	00800044 	movi	r2,1
   810b8:	1001703a 	wrctl	status,r2
   810bc:	0001883a 	nop
   810c0:	e037883a 	mov	sp,fp
   810c4:	dfc00117 	ldw	ra,4(sp)
   810c8:	df000017 	ldw	fp,0(sp)
   810cc:	dec00204 	addi	sp,sp,8
   810d0:	f800283a 	ret

000810d4 <alt_sys_init>:
   810d4:	defffe04 	addi	sp,sp,-8
   810d8:	dfc00115 	stw	ra,4(sp)
   810dc:	df000015 	stw	fp,0(sp)
   810e0:	d839883a 	mov	fp,sp
   810e4:	018000c4 	movi	r6,3
   810e8:	000b883a 	mov	r5,zero
   810ec:	01000234 	movhi	r4,8
   810f0:	211aaf04 	addi	r4,r4,27324
   810f4:	00812ac0 	call	812ac <altera_avalon_jtag_uart_init>
   810f8:	01000234 	movhi	r4,8
   810fc:	211aa504 	addi	r4,r4,27284
   81100:	00810680 	call	81068 <alt_dev_reg>
   81104:	000d883a 	mov	r6,zero
   81108:	000b883a 	mov	r5,zero
   8110c:	01000234 	movhi	r4,8
   81110:	211ebd04 	addi	r4,r4,31476
   81114:	008289c0 	call	8289c <alt_avalon_sgdma_init>
   81118:	01800044 	movi	r6,1
   8111c:	000b883a 	mov	r5,zero
   81120:	01000234 	movhi	r4,8
   81124:	211ec904 	addi	r4,r4,31524
   81128:	008289c0 	call	8289c <alt_avalon_sgdma_init>
   8112c:	0001883a 	nop
   81130:	0001883a 	nop
   81134:	e037883a 	mov	sp,fp
   81138:	dfc00117 	ldw	ra,4(sp)
   8113c:	df000017 	ldw	fp,0(sp)
   81140:	dec00204 	addi	sp,sp,8
   81144:	f800283a 	ret

00081148 <altera_avalon_jtag_uart_read_fd>:
   81148:	defffa04 	addi	sp,sp,-24
   8114c:	dfc00515 	stw	ra,20(sp)
   81150:	df000415 	stw	fp,16(sp)
   81154:	df000404 	addi	fp,sp,16
   81158:	e13ffd15 	stw	r4,-12(fp)
   8115c:	e17ffe15 	stw	r5,-8(fp)
   81160:	e1bfff15 	stw	r6,-4(fp)
   81164:	e0bffd17 	ldw	r2,-12(fp)
   81168:	10800017 	ldw	r2,0(r2)
   8116c:	e0bffc15 	stw	r2,-16(fp)
   81170:	e0bffc17 	ldw	r2,-16(fp)
   81174:	10c00a04 	addi	r3,r2,40
   81178:	e0bffd17 	ldw	r2,-12(fp)
   8117c:	10800217 	ldw	r2,8(r2)
   81180:	100f883a 	mov	r7,r2
   81184:	e1bfff17 	ldw	r6,-4(fp)
   81188:	e17ffe17 	ldw	r5,-8(fp)
   8118c:	1809883a 	mov	r4,r3
   81190:	00817700 	call	81770 <altera_avalon_jtag_uart_read>
   81194:	e037883a 	mov	sp,fp
   81198:	dfc00117 	ldw	ra,4(sp)
   8119c:	df000017 	ldw	fp,0(sp)
   811a0:	dec00204 	addi	sp,sp,8
   811a4:	f800283a 	ret

000811a8 <altera_avalon_jtag_uart_write_fd>:
   811a8:	defffa04 	addi	sp,sp,-24
   811ac:	dfc00515 	stw	ra,20(sp)
   811b0:	df000415 	stw	fp,16(sp)
   811b4:	df000404 	addi	fp,sp,16
   811b8:	e13ffd15 	stw	r4,-12(fp)
   811bc:	e17ffe15 	stw	r5,-8(fp)
   811c0:	e1bfff15 	stw	r6,-4(fp)
   811c4:	e0bffd17 	ldw	r2,-12(fp)
   811c8:	10800017 	ldw	r2,0(r2)
   811cc:	e0bffc15 	stw	r2,-16(fp)
   811d0:	e0bffc17 	ldw	r2,-16(fp)
   811d4:	10c00a04 	addi	r3,r2,40
   811d8:	e0bffd17 	ldw	r2,-12(fp)
   811dc:	10800217 	ldw	r2,8(r2)
   811e0:	100f883a 	mov	r7,r2
   811e4:	e1bfff17 	ldw	r6,-4(fp)
   811e8:	e17ffe17 	ldw	r5,-8(fp)
   811ec:	1809883a 	mov	r4,r3
   811f0:	008198c0 	call	8198c <altera_avalon_jtag_uart_write>
   811f4:	e037883a 	mov	sp,fp
   811f8:	dfc00117 	ldw	ra,4(sp)
   811fc:	df000017 	ldw	fp,0(sp)
   81200:	dec00204 	addi	sp,sp,8
   81204:	f800283a 	ret

00081208 <altera_avalon_jtag_uart_close_fd>:
   81208:	defffc04 	addi	sp,sp,-16
   8120c:	dfc00315 	stw	ra,12(sp)
   81210:	df000215 	stw	fp,8(sp)
   81214:	df000204 	addi	fp,sp,8
   81218:	e13fff15 	stw	r4,-4(fp)
   8121c:	e0bfff17 	ldw	r2,-4(fp)
   81220:	10800017 	ldw	r2,0(r2)
   81224:	e0bffe15 	stw	r2,-8(fp)
   81228:	e0bffe17 	ldw	r2,-8(fp)
   8122c:	10c00a04 	addi	r3,r2,40
   81230:	e0bfff17 	ldw	r2,-4(fp)
   81234:	10800217 	ldw	r2,8(r2)
   81238:	100b883a 	mov	r5,r2
   8123c:	1809883a 	mov	r4,r3
   81240:	00816180 	call	81618 <altera_avalon_jtag_uart_close>
   81244:	e037883a 	mov	sp,fp
   81248:	dfc00117 	ldw	ra,4(sp)
   8124c:	df000017 	ldw	fp,0(sp)
   81250:	dec00204 	addi	sp,sp,8
   81254:	f800283a 	ret

00081258 <altera_avalon_jtag_uart_ioctl_fd>:
   81258:	defffa04 	addi	sp,sp,-24
   8125c:	dfc00515 	stw	ra,20(sp)
   81260:	df000415 	stw	fp,16(sp)
   81264:	df000404 	addi	fp,sp,16
   81268:	e13ffd15 	stw	r4,-12(fp)
   8126c:	e17ffe15 	stw	r5,-8(fp)
   81270:	e1bfff15 	stw	r6,-4(fp)
   81274:	e0bffd17 	ldw	r2,-12(fp)
   81278:	10800017 	ldw	r2,0(r2)
   8127c:	e0bffc15 	stw	r2,-16(fp)
   81280:	e0bffc17 	ldw	r2,-16(fp)
   81284:	10800a04 	addi	r2,r2,40
   81288:	e1bfff17 	ldw	r6,-4(fp)
   8128c:	e17ffe17 	ldw	r5,-8(fp)
   81290:	1009883a 	mov	r4,r2
   81294:	00816800 	call	81680 <altera_avalon_jtag_uart_ioctl>
   81298:	e037883a 	mov	sp,fp
   8129c:	dfc00117 	ldw	ra,4(sp)
   812a0:	df000017 	ldw	fp,0(sp)
   812a4:	dec00204 	addi	sp,sp,8
   812a8:	f800283a 	ret

000812ac <altera_avalon_jtag_uart_init>:
   812ac:	defffa04 	addi	sp,sp,-24
   812b0:	dfc00515 	stw	ra,20(sp)
   812b4:	df000415 	stw	fp,16(sp)
   812b8:	df000404 	addi	fp,sp,16
   812bc:	e13ffd15 	stw	r4,-12(fp)
   812c0:	e17ffe15 	stw	r5,-8(fp)
   812c4:	e1bfff15 	stw	r6,-4(fp)
   812c8:	e0bffd17 	ldw	r2,-12(fp)
   812cc:	00c00044 	movi	r3,1
   812d0:	10c00815 	stw	r3,32(r2)
   812d4:	e0bffd17 	ldw	r2,-12(fp)
   812d8:	10800017 	ldw	r2,0(r2)
   812dc:	10800104 	addi	r2,r2,4
   812e0:	1007883a 	mov	r3,r2
   812e4:	e0bffd17 	ldw	r2,-12(fp)
   812e8:	10800817 	ldw	r2,32(r2)
   812ec:	18800035 	stwio	r2,0(r3)
   812f0:	e0bffe17 	ldw	r2,-8(fp)
   812f4:	e0ffff17 	ldw	r3,-4(fp)
   812f8:	d8000015 	stw	zero,0(sp)
   812fc:	e1fffd17 	ldw	r7,-12(fp)
   81300:	01800234 	movhi	r6,8
   81304:	3184db04 	addi	r6,r6,4972
   81308:	180b883a 	mov	r5,r3
   8130c:	1009883a 	mov	r4,r2
   81310:	00809f80 	call	809f8 <alt_ic_isr_register>
   81314:	e0bffd17 	ldw	r2,-12(fp)
   81318:	10000915 	stw	zero,36(r2)
   8131c:	e0bffd17 	ldw	r2,-12(fp)
   81320:	10800204 	addi	r2,r2,8
   81324:	d0e84e17 	ldw	r3,-24264(gp)
   81328:	e1fffd17 	ldw	r7,-12(fp)
   8132c:	01800234 	movhi	r6,8
   81330:	31855e04 	addi	r6,r6,5496
   81334:	180b883a 	mov	r5,r3
   81338:	1009883a 	mov	r4,r2
   8133c:	00829440 	call	82944 <alt_alarm_start>
   81340:	1000040e 	bge	r2,zero,81354 <altera_avalon_jtag_uart_init+0xa8>
   81344:	e0fffd17 	ldw	r3,-12(fp)
   81348:	00a00034 	movhi	r2,32768
   8134c:	10bfffc4 	addi	r2,r2,-1
   81350:	18800115 	stw	r2,4(r3)
   81354:	0001883a 	nop
   81358:	e037883a 	mov	sp,fp
   8135c:	dfc00117 	ldw	ra,4(sp)
   81360:	df000017 	ldw	fp,0(sp)
   81364:	dec00204 	addi	sp,sp,8
   81368:	f800283a 	ret

0008136c <altera_avalon_jtag_uart_irq>:
   8136c:	defff804 	addi	sp,sp,-32
   81370:	df000715 	stw	fp,28(sp)
   81374:	df000704 	addi	fp,sp,28
   81378:	e13fff15 	stw	r4,-4(fp)
   8137c:	e0bfff17 	ldw	r2,-4(fp)
   81380:	e0bffb15 	stw	r2,-20(fp)
   81384:	e0bffb17 	ldw	r2,-20(fp)
   81388:	10800017 	ldw	r2,0(r2)
   8138c:	e0bffc15 	stw	r2,-16(fp)
   81390:	e0bffc17 	ldw	r2,-16(fp)
   81394:	10800104 	addi	r2,r2,4
   81398:	10800037 	ldwio	r2,0(r2)
   8139c:	e0bffd15 	stw	r2,-12(fp)
   813a0:	e0bffd17 	ldw	r2,-12(fp)
   813a4:	1080c00c 	andi	r2,r2,768
   813a8:	10006d26 	beq	r2,zero,81560 <altera_avalon_jtag_uart_irq+0x1f4>
   813ac:	e0bffd17 	ldw	r2,-12(fp)
   813b0:	1080400c 	andi	r2,r2,256
   813b4:	10003526 	beq	r2,zero,8148c <altera_avalon_jtag_uart_irq+0x120>
   813b8:	00800074 	movhi	r2,1
   813bc:	e0bff915 	stw	r2,-28(fp)
   813c0:	e0bffb17 	ldw	r2,-20(fp)
   813c4:	10800a17 	ldw	r2,40(r2)
   813c8:	10800044 	addi	r2,r2,1
   813cc:	1081ffcc 	andi	r2,r2,2047
   813d0:	e0bffe15 	stw	r2,-8(fp)
   813d4:	e0bffb17 	ldw	r2,-20(fp)
   813d8:	10c00b17 	ldw	r3,44(r2)
   813dc:	e0bffe17 	ldw	r2,-8(fp)
   813e0:	18801526 	beq	r3,r2,81438 <altera_avalon_jtag_uart_irq+0xcc>
   813e4:	e0bffc17 	ldw	r2,-16(fp)
   813e8:	10800037 	ldwio	r2,0(r2)
   813ec:	e0bff915 	stw	r2,-28(fp)
   813f0:	e0bff917 	ldw	r2,-28(fp)
   813f4:	10a0000c 	andi	r2,r2,32768
   813f8:	10001126 	beq	r2,zero,81440 <altera_avalon_jtag_uart_irq+0xd4>
   813fc:	e0bffb17 	ldw	r2,-20(fp)
   81400:	10800a17 	ldw	r2,40(r2)
   81404:	e0fff917 	ldw	r3,-28(fp)
   81408:	1809883a 	mov	r4,r3
   8140c:	e0fffb17 	ldw	r3,-20(fp)
   81410:	1885883a 	add	r2,r3,r2
   81414:	10800e04 	addi	r2,r2,56
   81418:	11000005 	stb	r4,0(r2)
   8141c:	e0bffb17 	ldw	r2,-20(fp)
   81420:	10800a17 	ldw	r2,40(r2)
   81424:	10800044 	addi	r2,r2,1
   81428:	10c1ffcc 	andi	r3,r2,2047
   8142c:	e0bffb17 	ldw	r2,-20(fp)
   81430:	10c00a15 	stw	r3,40(r2)
   81434:	003fe206 	br	813c0 <__alt_mem_RAM_block+0xfff7fbc0>
   81438:	0001883a 	nop
   8143c:	00000106 	br	81444 <altera_avalon_jtag_uart_irq+0xd8>
   81440:	0001883a 	nop
   81444:	e0bff917 	ldw	r2,-28(fp)
   81448:	10bfffec 	andhi	r2,r2,65535
   8144c:	10000f26 	beq	r2,zero,8148c <altera_avalon_jtag_uart_irq+0x120>
   81450:	e0bffb17 	ldw	r2,-20(fp)
   81454:	10c00817 	ldw	r3,32(r2)
   81458:	00bfff84 	movi	r2,-2
   8145c:	1886703a 	and	r3,r3,r2
   81460:	e0bffb17 	ldw	r2,-20(fp)
   81464:	10c00815 	stw	r3,32(r2)
   81468:	e0bffc17 	ldw	r2,-16(fp)
   8146c:	10800104 	addi	r2,r2,4
   81470:	1007883a 	mov	r3,r2
   81474:	e0bffb17 	ldw	r2,-20(fp)
   81478:	10800817 	ldw	r2,32(r2)
   8147c:	18800035 	stwio	r2,0(r3)
   81480:	e0bffc17 	ldw	r2,-16(fp)
   81484:	10800104 	addi	r2,r2,4
   81488:	10800037 	ldwio	r2,0(r2)
   8148c:	e0bffd17 	ldw	r2,-12(fp)
   81490:	1080800c 	andi	r2,r2,512
   81494:	103fbe26 	beq	r2,zero,81390 <__alt_mem_RAM_block+0xfff7fb90>
   81498:	e0bffd17 	ldw	r2,-12(fp)
   8149c:	1004d43a 	srli	r2,r2,16
   814a0:	e0bffa15 	stw	r2,-24(fp)
   814a4:	00001406 	br	814f8 <altera_avalon_jtag_uart_irq+0x18c>
   814a8:	e0bffc17 	ldw	r2,-16(fp)
   814ac:	e0fffb17 	ldw	r3,-20(fp)
   814b0:	18c00d17 	ldw	r3,52(r3)
   814b4:	e13ffb17 	ldw	r4,-20(fp)
   814b8:	20c7883a 	add	r3,r4,r3
   814bc:	18c20e04 	addi	r3,r3,2104
   814c0:	18c00003 	ldbu	r3,0(r3)
   814c4:	18c03fcc 	andi	r3,r3,255
   814c8:	18c0201c 	xori	r3,r3,128
   814cc:	18ffe004 	addi	r3,r3,-128
   814d0:	10c00035 	stwio	r3,0(r2)
   814d4:	e0bffb17 	ldw	r2,-20(fp)
   814d8:	10800d17 	ldw	r2,52(r2)
   814dc:	10800044 	addi	r2,r2,1
   814e0:	10c1ffcc 	andi	r3,r2,2047
   814e4:	e0bffb17 	ldw	r2,-20(fp)
   814e8:	10c00d15 	stw	r3,52(r2)
   814ec:	e0bffa17 	ldw	r2,-24(fp)
   814f0:	10bfffc4 	addi	r2,r2,-1
   814f4:	e0bffa15 	stw	r2,-24(fp)
   814f8:	e0bffa17 	ldw	r2,-24(fp)
   814fc:	10000526 	beq	r2,zero,81514 <altera_avalon_jtag_uart_irq+0x1a8>
   81500:	e0bffb17 	ldw	r2,-20(fp)
   81504:	10c00d17 	ldw	r3,52(r2)
   81508:	e0bffb17 	ldw	r2,-20(fp)
   8150c:	10800c17 	ldw	r2,48(r2)
   81510:	18bfe51e 	bne	r3,r2,814a8 <__alt_mem_RAM_block+0xfff7fca8>
   81514:	e0bffa17 	ldw	r2,-24(fp)
   81518:	103f9d26 	beq	r2,zero,81390 <__alt_mem_RAM_block+0xfff7fb90>
   8151c:	e0bffb17 	ldw	r2,-20(fp)
   81520:	10c00817 	ldw	r3,32(r2)
   81524:	00bfff44 	movi	r2,-3
   81528:	1886703a 	and	r3,r3,r2
   8152c:	e0bffb17 	ldw	r2,-20(fp)
   81530:	10c00815 	stw	r3,32(r2)
   81534:	e0bffb17 	ldw	r2,-20(fp)
   81538:	10800017 	ldw	r2,0(r2)
   8153c:	10800104 	addi	r2,r2,4
   81540:	1007883a 	mov	r3,r2
   81544:	e0bffb17 	ldw	r2,-20(fp)
   81548:	10800817 	ldw	r2,32(r2)
   8154c:	18800035 	stwio	r2,0(r3)
   81550:	e0bffc17 	ldw	r2,-16(fp)
   81554:	10800104 	addi	r2,r2,4
   81558:	10800037 	ldwio	r2,0(r2)
   8155c:	003f8c06 	br	81390 <__alt_mem_RAM_block+0xfff7fb90>
   81560:	0001883a 	nop
   81564:	0001883a 	nop
   81568:	e037883a 	mov	sp,fp
   8156c:	df000017 	ldw	fp,0(sp)
   81570:	dec00104 	addi	sp,sp,4
   81574:	f800283a 	ret

00081578 <altera_avalon_jtag_uart_timeout>:
   81578:	defff804 	addi	sp,sp,-32
   8157c:	df000715 	stw	fp,28(sp)
   81580:	df000704 	addi	fp,sp,28
   81584:	e13ffb15 	stw	r4,-20(fp)
   81588:	e0bffb17 	ldw	r2,-20(fp)
   8158c:	e0bff915 	stw	r2,-28(fp)
   81590:	e0bff917 	ldw	r2,-28(fp)
   81594:	10800017 	ldw	r2,0(r2)
   81598:	10800104 	addi	r2,r2,4
   8159c:	10800037 	ldwio	r2,0(r2)
   815a0:	e0bffa15 	stw	r2,-24(fp)
   815a4:	e0bffa17 	ldw	r2,-24(fp)
   815a8:	1081000c 	andi	r2,r2,1024
   815ac:	10000b26 	beq	r2,zero,815dc <altera_avalon_jtag_uart_timeout+0x64>
   815b0:	e0bff917 	ldw	r2,-28(fp)
   815b4:	10800017 	ldw	r2,0(r2)
   815b8:	10800104 	addi	r2,r2,4
   815bc:	1007883a 	mov	r3,r2
   815c0:	e0bff917 	ldw	r2,-28(fp)
   815c4:	10800817 	ldw	r2,32(r2)
   815c8:	10810014 	ori	r2,r2,1024
   815cc:	18800035 	stwio	r2,0(r3)
   815d0:	e0bff917 	ldw	r2,-28(fp)
   815d4:	10000915 	stw	zero,36(r2)
   815d8:	00000a06 	br	81604 <altera_avalon_jtag_uart_timeout+0x8c>
   815dc:	e0bff917 	ldw	r2,-28(fp)
   815e0:	10c00917 	ldw	r3,36(r2)
   815e4:	00a00034 	movhi	r2,32768
   815e8:	10bfff04 	addi	r2,r2,-4
   815ec:	10c00536 	bltu	r2,r3,81604 <altera_avalon_jtag_uart_timeout+0x8c>
   815f0:	e0bff917 	ldw	r2,-28(fp)
   815f4:	10800917 	ldw	r2,36(r2)
   815f8:	10c00044 	addi	r3,r2,1
   815fc:	e0bff917 	ldw	r2,-28(fp)
   81600:	10c00915 	stw	r3,36(r2)
   81604:	d0a84e17 	ldw	r2,-24264(gp)
   81608:	e037883a 	mov	sp,fp
   8160c:	df000017 	ldw	fp,0(sp)
   81610:	dec00104 	addi	sp,sp,4
   81614:	f800283a 	ret

00081618 <altera_avalon_jtag_uart_close>:
   81618:	defffd04 	addi	sp,sp,-12
   8161c:	df000215 	stw	fp,8(sp)
   81620:	df000204 	addi	fp,sp,8
   81624:	e13ffe15 	stw	r4,-8(fp)
   81628:	e17fff15 	stw	r5,-4(fp)
   8162c:	00000506 	br	81644 <altera_avalon_jtag_uart_close+0x2c>
   81630:	e0bfff17 	ldw	r2,-4(fp)
   81634:	1090000c 	andi	r2,r2,16384
   81638:	10000226 	beq	r2,zero,81644 <altera_avalon_jtag_uart_close+0x2c>
   8163c:	00bffd44 	movi	r2,-11
   81640:	00000b06 	br	81670 <altera_avalon_jtag_uart_close+0x58>
   81644:	e0bffe17 	ldw	r2,-8(fp)
   81648:	10c00d17 	ldw	r3,52(r2)
   8164c:	e0bffe17 	ldw	r2,-8(fp)
   81650:	10800c17 	ldw	r2,48(r2)
   81654:	18800526 	beq	r3,r2,8166c <altera_avalon_jtag_uart_close+0x54>
   81658:	e0bffe17 	ldw	r2,-8(fp)
   8165c:	10c00917 	ldw	r3,36(r2)
   81660:	e0bffe17 	ldw	r2,-8(fp)
   81664:	10800117 	ldw	r2,4(r2)
   81668:	18bff136 	bltu	r3,r2,81630 <__alt_mem_RAM_block+0xfff7fe30>
   8166c:	0005883a 	mov	r2,zero
   81670:	e037883a 	mov	sp,fp
   81674:	df000017 	ldw	fp,0(sp)
   81678:	dec00104 	addi	sp,sp,4
   8167c:	f800283a 	ret

00081680 <altera_avalon_jtag_uart_ioctl>:
   81680:	defffa04 	addi	sp,sp,-24
   81684:	df000515 	stw	fp,20(sp)
   81688:	df000504 	addi	fp,sp,20
   8168c:	e13ffd15 	stw	r4,-12(fp)
   81690:	e17ffe15 	stw	r5,-8(fp)
   81694:	e1bfff15 	stw	r6,-4(fp)
   81698:	00bff9c4 	movi	r2,-25
   8169c:	e0bffb15 	stw	r2,-20(fp)
   816a0:	e0bffe17 	ldw	r2,-8(fp)
   816a4:	10da8060 	cmpeqi	r3,r2,27137
   816a8:	1800031e 	bne	r3,zero,816b8 <altera_avalon_jtag_uart_ioctl+0x38>
   816ac:	109a80a0 	cmpeqi	r2,r2,27138
   816b0:	1000181e 	bne	r2,zero,81714 <altera_avalon_jtag_uart_ioctl+0x94>
   816b4:	00002906 	br	8175c <altera_avalon_jtag_uart_ioctl+0xdc>
   816b8:	e0bffd17 	ldw	r2,-12(fp)
   816bc:	10c00117 	ldw	r3,4(r2)
   816c0:	00a00034 	movhi	r2,32768
   816c4:	10bfffc4 	addi	r2,r2,-1
   816c8:	18802126 	beq	r3,r2,81750 <altera_avalon_jtag_uart_ioctl+0xd0>
   816cc:	e0bfff17 	ldw	r2,-4(fp)
   816d0:	10800017 	ldw	r2,0(r2)
   816d4:	e0bffc15 	stw	r2,-16(fp)
   816d8:	e0bffc17 	ldw	r2,-16(fp)
   816dc:	10800090 	cmplti	r2,r2,2
   816e0:	1000061e 	bne	r2,zero,816fc <altera_avalon_jtag_uart_ioctl+0x7c>
   816e4:	e0fffc17 	ldw	r3,-16(fp)
   816e8:	00a00034 	movhi	r2,32768
   816ec:	10bfffc4 	addi	r2,r2,-1
   816f0:	18800226 	beq	r3,r2,816fc <altera_avalon_jtag_uart_ioctl+0x7c>
   816f4:	e0bffc17 	ldw	r2,-16(fp)
   816f8:	00000206 	br	81704 <altera_avalon_jtag_uart_ioctl+0x84>
   816fc:	00a00034 	movhi	r2,32768
   81700:	10bfff84 	addi	r2,r2,-2
   81704:	e0fffd17 	ldw	r3,-12(fp)
   81708:	18800115 	stw	r2,4(r3)
   8170c:	e03ffb15 	stw	zero,-20(fp)
   81710:	00000f06 	br	81750 <altera_avalon_jtag_uart_ioctl+0xd0>
   81714:	e0bffd17 	ldw	r2,-12(fp)
   81718:	10c00117 	ldw	r3,4(r2)
   8171c:	00a00034 	movhi	r2,32768
   81720:	10bfffc4 	addi	r2,r2,-1
   81724:	18800c26 	beq	r3,r2,81758 <altera_avalon_jtag_uart_ioctl+0xd8>
   81728:	e0bffd17 	ldw	r2,-12(fp)
   8172c:	10c00917 	ldw	r3,36(r2)
   81730:	e0bffd17 	ldw	r2,-12(fp)
   81734:	10800117 	ldw	r2,4(r2)
   81738:	1885803a 	cmpltu	r2,r3,r2
   8173c:	10c03fcc 	andi	r3,r2,255
   81740:	e0bfff17 	ldw	r2,-4(fp)
   81744:	10c00015 	stw	r3,0(r2)
   81748:	e03ffb15 	stw	zero,-20(fp)
   8174c:	00000206 	br	81758 <altera_avalon_jtag_uart_ioctl+0xd8>
   81750:	0001883a 	nop
   81754:	00000106 	br	8175c <altera_avalon_jtag_uart_ioctl+0xdc>
   81758:	0001883a 	nop
   8175c:	e0bffb17 	ldw	r2,-20(fp)
   81760:	e037883a 	mov	sp,fp
   81764:	df000017 	ldw	fp,0(sp)
   81768:	dec00104 	addi	sp,sp,4
   8176c:	f800283a 	ret

00081770 <altera_avalon_jtag_uart_read>:
   81770:	defff304 	addi	sp,sp,-52
   81774:	dfc00c15 	stw	ra,48(sp)
   81778:	df000b15 	stw	fp,44(sp)
   8177c:	df000b04 	addi	fp,sp,44
   81780:	e13ffc15 	stw	r4,-16(fp)
   81784:	e17ffd15 	stw	r5,-12(fp)
   81788:	e1bffe15 	stw	r6,-8(fp)
   8178c:	e1ffff15 	stw	r7,-4(fp)
   81790:	e0bffd17 	ldw	r2,-12(fp)
   81794:	e0bff515 	stw	r2,-44(fp)
   81798:	00004706 	br	818b8 <altera_avalon_jtag_uart_read+0x148>
   8179c:	e0bffc17 	ldw	r2,-16(fp)
   817a0:	10800a17 	ldw	r2,40(r2)
   817a4:	e0bff715 	stw	r2,-36(fp)
   817a8:	e0bffc17 	ldw	r2,-16(fp)
   817ac:	10800b17 	ldw	r2,44(r2)
   817b0:	e0bff815 	stw	r2,-32(fp)
   817b4:	e0fff717 	ldw	r3,-36(fp)
   817b8:	e0bff817 	ldw	r2,-32(fp)
   817bc:	18800536 	bltu	r3,r2,817d4 <altera_avalon_jtag_uart_read+0x64>
   817c0:	e0fff717 	ldw	r3,-36(fp)
   817c4:	e0bff817 	ldw	r2,-32(fp)
   817c8:	1885c83a 	sub	r2,r3,r2
   817cc:	e0bff615 	stw	r2,-40(fp)
   817d0:	00000406 	br	817e4 <altera_avalon_jtag_uart_read+0x74>
   817d4:	00c20004 	movi	r3,2048
   817d8:	e0bff817 	ldw	r2,-32(fp)
   817dc:	1885c83a 	sub	r2,r3,r2
   817e0:	e0bff615 	stw	r2,-40(fp)
   817e4:	e0bff617 	ldw	r2,-40(fp)
   817e8:	10001e26 	beq	r2,zero,81864 <altera_avalon_jtag_uart_read+0xf4>
   817ec:	e0fffe17 	ldw	r3,-8(fp)
   817f0:	e0bff617 	ldw	r2,-40(fp)
   817f4:	1880022e 	bgeu	r3,r2,81800 <altera_avalon_jtag_uart_read+0x90>
   817f8:	e0bffe17 	ldw	r2,-8(fp)
   817fc:	e0bff615 	stw	r2,-40(fp)
   81800:	e0bffc17 	ldw	r2,-16(fp)
   81804:	10c00e04 	addi	r3,r2,56
   81808:	e0bff817 	ldw	r2,-32(fp)
   8180c:	1885883a 	add	r2,r3,r2
   81810:	e1bff617 	ldw	r6,-40(fp)
   81814:	100b883a 	mov	r5,r2
   81818:	e13ff517 	ldw	r4,-44(fp)
   8181c:	008382c0 	call	8382c <memcpy>
   81820:	e0fff517 	ldw	r3,-44(fp)
   81824:	e0bff617 	ldw	r2,-40(fp)
   81828:	1885883a 	add	r2,r3,r2
   8182c:	e0bff515 	stw	r2,-44(fp)
   81830:	e0fffe17 	ldw	r3,-8(fp)
   81834:	e0bff617 	ldw	r2,-40(fp)
   81838:	1885c83a 	sub	r2,r3,r2
   8183c:	e0bffe15 	stw	r2,-8(fp)
   81840:	e0fff817 	ldw	r3,-32(fp)
   81844:	e0bff617 	ldw	r2,-40(fp)
   81848:	1885883a 	add	r2,r3,r2
   8184c:	10c1ffcc 	andi	r3,r2,2047
   81850:	e0bffc17 	ldw	r2,-16(fp)
   81854:	10c00b15 	stw	r3,44(r2)
   81858:	e0bffe17 	ldw	r2,-8(fp)
   8185c:	00bfcf16 	blt	zero,r2,8179c <__alt_mem_RAM_block+0xfff7ff9c>
   81860:	00000106 	br	81868 <altera_avalon_jtag_uart_read+0xf8>
   81864:	0001883a 	nop
   81868:	e0fff517 	ldw	r3,-44(fp)
   8186c:	e0bffd17 	ldw	r2,-12(fp)
   81870:	1880141e 	bne	r3,r2,818c4 <altera_avalon_jtag_uart_read+0x154>
   81874:	e0bfff17 	ldw	r2,-4(fp)
   81878:	1090000c 	andi	r2,r2,16384
   8187c:	1000131e 	bne	r2,zero,818cc <altera_avalon_jtag_uart_read+0x15c>
   81880:	0001883a 	nop
   81884:	e0bffc17 	ldw	r2,-16(fp)
   81888:	10c00a17 	ldw	r3,40(r2)
   8188c:	e0bff717 	ldw	r2,-36(fp)
   81890:	1880051e 	bne	r3,r2,818a8 <altera_avalon_jtag_uart_read+0x138>
   81894:	e0bffc17 	ldw	r2,-16(fp)
   81898:	10c00917 	ldw	r3,36(r2)
   8189c:	e0bffc17 	ldw	r2,-16(fp)
   818a0:	10800117 	ldw	r2,4(r2)
   818a4:	18bff736 	bltu	r3,r2,81884 <__alt_mem_RAM_block+0xfff80084>
   818a8:	e0bffc17 	ldw	r2,-16(fp)
   818ac:	10c00a17 	ldw	r3,40(r2)
   818b0:	e0bff717 	ldw	r2,-36(fp)
   818b4:	18800726 	beq	r3,r2,818d4 <altera_avalon_jtag_uart_read+0x164>
   818b8:	e0bffe17 	ldw	r2,-8(fp)
   818bc:	00bfb716 	blt	zero,r2,8179c <__alt_mem_RAM_block+0xfff7ff9c>
   818c0:	00000506 	br	818d8 <altera_avalon_jtag_uart_read+0x168>
   818c4:	0001883a 	nop
   818c8:	00000306 	br	818d8 <altera_avalon_jtag_uart_read+0x168>
   818cc:	0001883a 	nop
   818d0:	00000106 	br	818d8 <altera_avalon_jtag_uart_read+0x168>
   818d4:	0001883a 	nop
   818d8:	e0fff517 	ldw	r3,-44(fp)
   818dc:	e0bffd17 	ldw	r2,-12(fp)
   818e0:	18801826 	beq	r3,r2,81944 <altera_avalon_jtag_uart_read+0x1d4>
   818e4:	0005303a 	rdctl	r2,status
   818e8:	e0bffb15 	stw	r2,-20(fp)
   818ec:	e0fffb17 	ldw	r3,-20(fp)
   818f0:	00bfff84 	movi	r2,-2
   818f4:	1884703a 	and	r2,r3,r2
   818f8:	1001703a 	wrctl	status,r2
   818fc:	e0bffb17 	ldw	r2,-20(fp)
   81900:	e0bffa15 	stw	r2,-24(fp)
   81904:	e0bffc17 	ldw	r2,-16(fp)
   81908:	10800817 	ldw	r2,32(r2)
   8190c:	10c00054 	ori	r3,r2,1
   81910:	e0bffc17 	ldw	r2,-16(fp)
   81914:	10c00815 	stw	r3,32(r2)
   81918:	e0bffc17 	ldw	r2,-16(fp)
   8191c:	10800017 	ldw	r2,0(r2)
   81920:	10800104 	addi	r2,r2,4
   81924:	1007883a 	mov	r3,r2
   81928:	e0bffc17 	ldw	r2,-16(fp)
   8192c:	10800817 	ldw	r2,32(r2)
   81930:	18800035 	stwio	r2,0(r3)
   81934:	e0bffa17 	ldw	r2,-24(fp)
   81938:	e0bff915 	stw	r2,-28(fp)
   8193c:	e0bff917 	ldw	r2,-28(fp)
   81940:	1001703a 	wrctl	status,r2
   81944:	e0fff517 	ldw	r3,-44(fp)
   81948:	e0bffd17 	ldw	r2,-12(fp)
   8194c:	18800426 	beq	r3,r2,81960 <altera_avalon_jtag_uart_read+0x1f0>
   81950:	e0fff517 	ldw	r3,-44(fp)
   81954:	e0bffd17 	ldw	r2,-12(fp)
   81958:	1885c83a 	sub	r2,r3,r2
   8195c:	00000606 	br	81978 <altera_avalon_jtag_uart_read+0x208>
   81960:	e0bfff17 	ldw	r2,-4(fp)
   81964:	1090000c 	andi	r2,r2,16384
   81968:	10000226 	beq	r2,zero,81974 <altera_avalon_jtag_uart_read+0x204>
   8196c:	00bffd44 	movi	r2,-11
   81970:	00000106 	br	81978 <altera_avalon_jtag_uart_read+0x208>
   81974:	00bffec4 	movi	r2,-5
   81978:	e037883a 	mov	sp,fp
   8197c:	dfc00117 	ldw	ra,4(sp)
   81980:	df000017 	ldw	fp,0(sp)
   81984:	dec00204 	addi	sp,sp,8
   81988:	f800283a 	ret

0008198c <altera_avalon_jtag_uart_write>:
   8198c:	defff304 	addi	sp,sp,-52
   81990:	dfc00c15 	stw	ra,48(sp)
   81994:	df000b15 	stw	fp,44(sp)
   81998:	df000b04 	addi	fp,sp,44
   8199c:	e13ffc15 	stw	r4,-16(fp)
   819a0:	e17ffd15 	stw	r5,-12(fp)
   819a4:	e1bffe15 	stw	r6,-8(fp)
   819a8:	e1ffff15 	stw	r7,-4(fp)
   819ac:	e03ff515 	stw	zero,-44(fp)
   819b0:	e0bffd17 	ldw	r2,-12(fp)
   819b4:	e0bff715 	stw	r2,-36(fp)
   819b8:	00003706 	br	81a98 <altera_avalon_jtag_uart_write+0x10c>
   819bc:	e0bffc17 	ldw	r2,-16(fp)
   819c0:	10800c17 	ldw	r2,48(r2)
   819c4:	e0bff915 	stw	r2,-28(fp)
   819c8:	e0bffc17 	ldw	r2,-16(fp)
   819cc:	10800d17 	ldw	r2,52(r2)
   819d0:	e0bff515 	stw	r2,-44(fp)
   819d4:	e0fff917 	ldw	r3,-28(fp)
   819d8:	e0bff517 	ldw	r2,-44(fp)
   819dc:	1880062e 	bgeu	r3,r2,819f8 <altera_avalon_jtag_uart_write+0x6c>
   819e0:	e0fff517 	ldw	r3,-44(fp)
   819e4:	e0bff917 	ldw	r2,-28(fp)
   819e8:	1885c83a 	sub	r2,r3,r2
   819ec:	10bfffc4 	addi	r2,r2,-1
   819f0:	e0bff615 	stw	r2,-40(fp)
   819f4:	00000b06 	br	81a24 <altera_avalon_jtag_uart_write+0x98>
   819f8:	e0bff517 	ldw	r2,-44(fp)
   819fc:	10000526 	beq	r2,zero,81a14 <altera_avalon_jtag_uart_write+0x88>
   81a00:	00c20004 	movi	r3,2048
   81a04:	e0bff917 	ldw	r2,-28(fp)
   81a08:	1885c83a 	sub	r2,r3,r2
   81a0c:	e0bff615 	stw	r2,-40(fp)
   81a10:	00000406 	br	81a24 <altera_avalon_jtag_uart_write+0x98>
   81a14:	00c1ffc4 	movi	r3,2047
   81a18:	e0bff917 	ldw	r2,-28(fp)
   81a1c:	1885c83a 	sub	r2,r3,r2
   81a20:	e0bff615 	stw	r2,-40(fp)
   81a24:	e0bff617 	ldw	r2,-40(fp)
   81a28:	10001e26 	beq	r2,zero,81aa4 <altera_avalon_jtag_uart_write+0x118>
   81a2c:	e0fffe17 	ldw	r3,-8(fp)
   81a30:	e0bff617 	ldw	r2,-40(fp)
   81a34:	1880022e 	bgeu	r3,r2,81a40 <altera_avalon_jtag_uart_write+0xb4>
   81a38:	e0bffe17 	ldw	r2,-8(fp)
   81a3c:	e0bff615 	stw	r2,-40(fp)
   81a40:	e0bffc17 	ldw	r2,-16(fp)
   81a44:	10c20e04 	addi	r3,r2,2104
   81a48:	e0bff917 	ldw	r2,-28(fp)
   81a4c:	1885883a 	add	r2,r3,r2
   81a50:	e1bff617 	ldw	r6,-40(fp)
   81a54:	e17ffd17 	ldw	r5,-12(fp)
   81a58:	1009883a 	mov	r4,r2
   81a5c:	008382c0 	call	8382c <memcpy>
   81a60:	e0fffd17 	ldw	r3,-12(fp)
   81a64:	e0bff617 	ldw	r2,-40(fp)
   81a68:	1885883a 	add	r2,r3,r2
   81a6c:	e0bffd15 	stw	r2,-12(fp)
   81a70:	e0fffe17 	ldw	r3,-8(fp)
   81a74:	e0bff617 	ldw	r2,-40(fp)
   81a78:	1885c83a 	sub	r2,r3,r2
   81a7c:	e0bffe15 	stw	r2,-8(fp)
   81a80:	e0fff917 	ldw	r3,-28(fp)
   81a84:	e0bff617 	ldw	r2,-40(fp)
   81a88:	1885883a 	add	r2,r3,r2
   81a8c:	10c1ffcc 	andi	r3,r2,2047
   81a90:	e0bffc17 	ldw	r2,-16(fp)
   81a94:	10c00c15 	stw	r3,48(r2)
   81a98:	e0bffe17 	ldw	r2,-8(fp)
   81a9c:	00bfc716 	blt	zero,r2,819bc <__alt_mem_RAM_block+0xfff801bc>
   81aa0:	00000106 	br	81aa8 <altera_avalon_jtag_uart_write+0x11c>
   81aa4:	0001883a 	nop
   81aa8:	0005303a 	rdctl	r2,status
   81aac:	e0bffb15 	stw	r2,-20(fp)
   81ab0:	e0fffb17 	ldw	r3,-20(fp)
   81ab4:	00bfff84 	movi	r2,-2
   81ab8:	1884703a 	and	r2,r3,r2
   81abc:	1001703a 	wrctl	status,r2
   81ac0:	e0bffb17 	ldw	r2,-20(fp)
   81ac4:	e0bffa15 	stw	r2,-24(fp)
   81ac8:	e0bffc17 	ldw	r2,-16(fp)
   81acc:	10800817 	ldw	r2,32(r2)
   81ad0:	10c00094 	ori	r3,r2,2
   81ad4:	e0bffc17 	ldw	r2,-16(fp)
   81ad8:	10c00815 	stw	r3,32(r2)
   81adc:	e0bffc17 	ldw	r2,-16(fp)
   81ae0:	10800017 	ldw	r2,0(r2)
   81ae4:	10800104 	addi	r2,r2,4
   81ae8:	1007883a 	mov	r3,r2
   81aec:	e0bffc17 	ldw	r2,-16(fp)
   81af0:	10800817 	ldw	r2,32(r2)
   81af4:	18800035 	stwio	r2,0(r3)
   81af8:	e0bffa17 	ldw	r2,-24(fp)
   81afc:	e0bff815 	stw	r2,-32(fp)
   81b00:	e0bff817 	ldw	r2,-32(fp)
   81b04:	1001703a 	wrctl	status,r2
   81b08:	e0bffe17 	ldw	r2,-8(fp)
   81b0c:	0080100e 	bge	zero,r2,81b50 <altera_avalon_jtag_uart_write+0x1c4>
   81b10:	e0bfff17 	ldw	r2,-4(fp)
   81b14:	1090000c 	andi	r2,r2,16384
   81b18:	1000101e 	bne	r2,zero,81b5c <altera_avalon_jtag_uart_write+0x1d0>
   81b1c:	0001883a 	nop
   81b20:	e0bffc17 	ldw	r2,-16(fp)
   81b24:	10c00d17 	ldw	r3,52(r2)
   81b28:	e0bff517 	ldw	r2,-44(fp)
   81b2c:	1880051e 	bne	r3,r2,81b44 <altera_avalon_jtag_uart_write+0x1b8>
   81b30:	e0bffc17 	ldw	r2,-16(fp)
   81b34:	10c00917 	ldw	r3,36(r2)
   81b38:	e0bffc17 	ldw	r2,-16(fp)
   81b3c:	10800117 	ldw	r2,4(r2)
   81b40:	18bff736 	bltu	r3,r2,81b20 <__alt_mem_RAM_block+0xfff80320>
   81b44:	e0bffc17 	ldw	r2,-16(fp)
   81b48:	10800917 	ldw	r2,36(r2)
   81b4c:	1000051e 	bne	r2,zero,81b64 <altera_avalon_jtag_uart_write+0x1d8>
   81b50:	e0bffe17 	ldw	r2,-8(fp)
   81b54:	00bfd016 	blt	zero,r2,81a98 <__alt_mem_RAM_block+0xfff80298>
   81b58:	00000306 	br	81b68 <altera_avalon_jtag_uart_write+0x1dc>
   81b5c:	0001883a 	nop
   81b60:	00000106 	br	81b68 <altera_avalon_jtag_uart_write+0x1dc>
   81b64:	0001883a 	nop
   81b68:	e0fffd17 	ldw	r3,-12(fp)
   81b6c:	e0bff717 	ldw	r2,-36(fp)
   81b70:	18800426 	beq	r3,r2,81b84 <altera_avalon_jtag_uart_write+0x1f8>
   81b74:	e0fffd17 	ldw	r3,-12(fp)
   81b78:	e0bff717 	ldw	r2,-36(fp)
   81b7c:	1885c83a 	sub	r2,r3,r2
   81b80:	00000606 	br	81b9c <altera_avalon_jtag_uart_write+0x210>
   81b84:	e0bfff17 	ldw	r2,-4(fp)
   81b88:	1090000c 	andi	r2,r2,16384
   81b8c:	10000226 	beq	r2,zero,81b98 <altera_avalon_jtag_uart_write+0x20c>
   81b90:	00bffd44 	movi	r2,-11
   81b94:	00000106 	br	81b9c <altera_avalon_jtag_uart_write+0x210>
   81b98:	00bffec4 	movi	r2,-5
   81b9c:	e037883a 	mov	sp,fp
   81ba0:	dfc00117 	ldw	ra,4(sp)
   81ba4:	df000017 	ldw	fp,0(sp)
   81ba8:	dec00204 	addi	sp,sp,8
   81bac:	f800283a 	ret

00081bb0 <alt_get_errno>:
   81bb0:	defffe04 	addi	sp,sp,-8
   81bb4:	dfc00115 	stw	ra,4(sp)
   81bb8:	df000015 	stw	fp,0(sp)
   81bbc:	d839883a 	mov	fp,sp
   81bc0:	d0a00a17 	ldw	r2,-32728(gp)
   81bc4:	10000326 	beq	r2,zero,81bd4 <alt_get_errno+0x24>
   81bc8:	d0a00a17 	ldw	r2,-32728(gp)
   81bcc:	103ee83a 	callr	r2
   81bd0:	00000106 	br	81bd8 <alt_get_errno+0x28>
   81bd4:	d0a85004 	addi	r2,gp,-24256
   81bd8:	e037883a 	mov	sp,fp
   81bdc:	dfc00117 	ldw	ra,4(sp)
   81be0:	df000017 	ldw	fp,0(sp)
   81be4:	dec00204 	addi	sp,sp,8
   81be8:	f800283a 	ret

00081bec <alt_avalon_sgdma_do_async_transfer>:
   81bec:	defffc04 	addi	sp,sp,-16
   81bf0:	df000315 	stw	fp,12(sp)
   81bf4:	df000304 	addi	fp,sp,12
   81bf8:	e13ffe15 	stw	r4,-8(fp)
   81bfc:	e17fff15 	stw	r5,-4(fp)
   81c00:	e0bffe17 	ldw	r2,-8(fp)
   81c04:	10800317 	ldw	r2,12(r2)
   81c08:	10800037 	ldwio	r2,0(r2)
   81c0c:	1080040c 	andi	r2,r2,16
   81c10:	10000226 	beq	r2,zero,81c1c <alt_avalon_sgdma_do_async_transfer+0x30>
   81c14:	00bffc04 	movi	r2,-16
   81c18:	00003906 	br	81d00 <alt_avalon_sgdma_do_async_transfer+0x114>
   81c1c:	e0bffe17 	ldw	r2,-8(fp)
   81c20:	10800317 	ldw	r2,12(r2)
   81c24:	10800404 	addi	r2,r2,16
   81c28:	e0fffe17 	ldw	r3,-8(fp)
   81c2c:	18c00317 	ldw	r3,12(r3)
   81c30:	18c00404 	addi	r3,r3,16
   81c34:	19000037 	ldwio	r4,0(r3)
   81c38:	00fff7c4 	movi	r3,-33
   81c3c:	20c6703a 	and	r3,r4,r3
   81c40:	10c00035 	stwio	r3,0(r2)
   81c44:	e0bffe17 	ldw	r2,-8(fp)
   81c48:	10800317 	ldw	r2,12(r2)
   81c4c:	00c03fc4 	movi	r3,255
   81c50:	10c00035 	stwio	r3,0(r2)
   81c54:	e0bffe17 	ldw	r2,-8(fp)
   81c58:	10800317 	ldw	r2,12(r2)
   81c5c:	10800804 	addi	r2,r2,32
   81c60:	e0ffff17 	ldw	r3,-4(fp)
   81c64:	10c00035 	stwio	r3,0(r2)
   81c68:	e0bffe17 	ldw	r2,-8(fp)
   81c6c:	10800917 	ldw	r2,36(r2)
   81c70:	10001126 	beq	r2,zero,81cb8 <alt_avalon_sgdma_do_async_transfer+0xcc>
   81c74:	e0bffe17 	ldw	r2,-8(fp)
   81c78:	10800317 	ldw	r2,12(r2)
   81c7c:	10800404 	addi	r2,r2,16
   81c80:	10800037 	ldwio	r2,0(r2)
   81c84:	e0bffd15 	stw	r2,-12(fp)
   81c88:	e0bffe17 	ldw	r2,-8(fp)
   81c8c:	10c00b17 	ldw	r3,44(r2)
   81c90:	e0bffd17 	ldw	r2,-12(fp)
   81c94:	1884b03a 	or	r2,r3,r2
   81c98:	10801814 	ori	r2,r2,96
   81c9c:	e0bffd15 	stw	r2,-12(fp)
   81ca0:	e0bffe17 	ldw	r2,-8(fp)
   81ca4:	10800317 	ldw	r2,12(r2)
   81ca8:	10800404 	addi	r2,r2,16
   81cac:	e0fffd17 	ldw	r3,-12(fp)
   81cb0:	10c00035 	stwio	r3,0(r2)
   81cb4:	00001106 	br	81cfc <alt_avalon_sgdma_do_async_transfer+0x110>
   81cb8:	e0bffe17 	ldw	r2,-8(fp)
   81cbc:	10800317 	ldw	r2,12(r2)
   81cc0:	10800404 	addi	r2,r2,16
   81cc4:	10800037 	ldwio	r2,0(r2)
   81cc8:	e0bffd15 	stw	r2,-12(fp)
   81ccc:	e0bffd17 	ldw	r2,-12(fp)
   81cd0:	10801814 	ori	r2,r2,96
   81cd4:	e0bffd15 	stw	r2,-12(fp)
   81cd8:	e0fffd17 	ldw	r3,-12(fp)
   81cdc:	00bffbc4 	movi	r2,-17
   81ce0:	1884703a 	and	r2,r3,r2
   81ce4:	e0bffd15 	stw	r2,-12(fp)
   81ce8:	e0bffe17 	ldw	r2,-8(fp)
   81cec:	10800317 	ldw	r2,12(r2)
   81cf0:	10800404 	addi	r2,r2,16
   81cf4:	e0fffd17 	ldw	r3,-12(fp)
   81cf8:	10c00035 	stwio	r3,0(r2)
   81cfc:	0005883a 	mov	r2,zero
   81d00:	e037883a 	mov	sp,fp
   81d04:	df000017 	ldw	fp,0(sp)
   81d08:	dec00104 	addi	sp,sp,4
   81d0c:	f800283a 	ret

00081d10 <alt_avalon_sgdma_do_sync_transfer>:
   81d10:	defffc04 	addi	sp,sp,-16
   81d14:	df000315 	stw	fp,12(sp)
   81d18:	df000304 	addi	fp,sp,12
   81d1c:	e13ffe15 	stw	r4,-8(fp)
   81d20:	e17fff15 	stw	r5,-4(fp)
   81d24:	0001883a 	nop
   81d28:	e0bffe17 	ldw	r2,-8(fp)
   81d2c:	10800317 	ldw	r2,12(r2)
   81d30:	10800037 	ldwio	r2,0(r2)
   81d34:	1080040c 	andi	r2,r2,16
   81d38:	103ffb1e 	bne	r2,zero,81d28 <__alt_mem_RAM_block+0xfff80528>
   81d3c:	e0bffe17 	ldw	r2,-8(fp)
   81d40:	10800317 	ldw	r2,12(r2)
   81d44:	10800404 	addi	r2,r2,16
   81d48:	e0fffe17 	ldw	r3,-8(fp)
   81d4c:	18c00317 	ldw	r3,12(r3)
   81d50:	18c00404 	addi	r3,r3,16
   81d54:	19000037 	ldwio	r4,0(r3)
   81d58:	00fff7c4 	movi	r3,-33
   81d5c:	20c6703a 	and	r3,r4,r3
   81d60:	10c00035 	stwio	r3,0(r2)
   81d64:	e0bffe17 	ldw	r2,-8(fp)
   81d68:	10800317 	ldw	r2,12(r2)
   81d6c:	00c03fc4 	movi	r3,255
   81d70:	10c00035 	stwio	r3,0(r2)
   81d74:	e0bffe17 	ldw	r2,-8(fp)
   81d78:	10800317 	ldw	r2,12(r2)
   81d7c:	10800804 	addi	r2,r2,32
   81d80:	e0ffff17 	ldw	r3,-4(fp)
   81d84:	10c00035 	stwio	r3,0(r2)
   81d88:	e0bffe17 	ldw	r2,-8(fp)
   81d8c:	10800317 	ldw	r2,12(r2)
   81d90:	10800404 	addi	r2,r2,16
   81d94:	e0fffe17 	ldw	r3,-8(fp)
   81d98:	18c00317 	ldw	r3,12(r3)
   81d9c:	18c00404 	addi	r3,r3,16
   81da0:	18c00037 	ldwio	r3,0(r3)
   81da4:	18c01814 	ori	r3,r3,96
   81da8:	10c00035 	stwio	r3,0(r2)
   81dac:	0001883a 	nop
   81db0:	e0bffe17 	ldw	r2,-8(fp)
   81db4:	10800317 	ldw	r2,12(r2)
   81db8:	10800037 	ldwio	r2,0(r2)
   81dbc:	1080040c 	andi	r2,r2,16
   81dc0:	103ffb1e 	bne	r2,zero,81db0 <__alt_mem_RAM_block+0xfff805b0>
   81dc4:	e0bffe17 	ldw	r2,-8(fp)
   81dc8:	10800317 	ldw	r2,12(r2)
   81dcc:	10800404 	addi	r2,r2,16
   81dd0:	e0fffe17 	ldw	r3,-8(fp)
   81dd4:	18c00317 	ldw	r3,12(r3)
   81dd8:	18c00404 	addi	r3,r3,16
   81ddc:	19000037 	ldwio	r4,0(r3)
   81de0:	00fff7c4 	movi	r3,-33
   81de4:	20c6703a 	and	r3,r4,r3
   81de8:	10c00035 	stwio	r3,0(r2)
   81dec:	e0bffe17 	ldw	r2,-8(fp)
   81df0:	10800317 	ldw	r2,12(r2)
   81df4:	10800037 	ldwio	r2,0(r2)
   81df8:	e0bffd05 	stb	r2,-12(fp)
   81dfc:	e0bffe17 	ldw	r2,-8(fp)
   81e00:	10800317 	ldw	r2,12(r2)
   81e04:	00c03fc4 	movi	r3,255
   81e08:	10c00035 	stwio	r3,0(r2)
   81e0c:	e0bffd03 	ldbu	r2,-12(fp)
   81e10:	e037883a 	mov	sp,fp
   81e14:	df000017 	ldw	fp,0(sp)
   81e18:	dec00104 	addi	sp,sp,4
   81e1c:	f800283a 	ret

00081e20 <alt_avalon_sgdma_construct_mem_to_mem_desc>:
   81e20:	defff404 	addi	sp,sp,-48
   81e24:	dfc00b15 	stw	ra,44(sp)
   81e28:	df000a15 	stw	fp,40(sp)
   81e2c:	df000a04 	addi	fp,sp,40
   81e30:	e13ffb15 	stw	r4,-20(fp)
   81e34:	e17ffc15 	stw	r5,-16(fp)
   81e38:	e1bffd15 	stw	r6,-12(fp)
   81e3c:	e1fffe15 	stw	r7,-8(fp)
   81e40:	e0800217 	ldw	r2,8(fp)
   81e44:	e0bfff0d 	sth	r2,-4(fp)
   81e48:	e0bfff0b 	ldhu	r2,-4(fp)
   81e4c:	d8000415 	stw	zero,16(sp)
   81e50:	d8000315 	stw	zero,12(sp)
   81e54:	e0c00417 	ldw	r3,16(fp)
   81e58:	d8c00215 	stw	r3,8(sp)
   81e5c:	e0c00317 	ldw	r3,12(fp)
   81e60:	d8c00115 	stw	r3,4(sp)
   81e64:	d8800015 	stw	r2,0(sp)
   81e68:	e1fffe17 	ldw	r7,-8(fp)
   81e6c:	e1bffd17 	ldw	r6,-12(fp)
   81e70:	e17ffc17 	ldw	r5,-16(fp)
   81e74:	e13ffb17 	ldw	r4,-20(fp)
   81e78:	0081e940 	call	81e94 <alt_avalon_sgdma_construct_mem_to_mem_desc_burst>
   81e7c:	0001883a 	nop
   81e80:	e037883a 	mov	sp,fp
   81e84:	dfc00117 	ldw	ra,4(sp)
   81e88:	df000017 	ldw	fp,0(sp)
   81e8c:	dec00204 	addi	sp,sp,8
   81e90:	f800283a 	ret

00081e94 <alt_avalon_sgdma_construct_mem_to_mem_desc_burst>:
   81e94:	defff204 	addi	sp,sp,-56
   81e98:	dfc00d15 	stw	ra,52(sp)
   81e9c:	df000c15 	stw	fp,48(sp)
   81ea0:	df000c04 	addi	fp,sp,48
   81ea4:	e13ffb15 	stw	r4,-20(fp)
   81ea8:	e17ffc15 	stw	r5,-16(fp)
   81eac:	e1bffd15 	stw	r6,-12(fp)
   81eb0:	e1fffe15 	stw	r7,-8(fp)
   81eb4:	e0800217 	ldw	r2,8(fp)
   81eb8:	e0bfff0d 	sth	r2,-4(fp)
   81ebc:	e0bfff0b 	ldhu	r2,-4(fp)
   81ec0:	d8000615 	stw	zero,24(sp)
   81ec4:	e0c00617 	ldw	r3,24(fp)
   81ec8:	d8c00515 	stw	r3,20(sp)
   81ecc:	e0c00517 	ldw	r3,20(fp)
   81ed0:	d8c00415 	stw	r3,16(sp)
   81ed4:	e0c00417 	ldw	r3,16(fp)
   81ed8:	d8c00315 	stw	r3,12(sp)
   81edc:	e0c00317 	ldw	r3,12(fp)
   81ee0:	d8c00215 	stw	r3,8(sp)
   81ee4:	d8000115 	stw	zero,4(sp)
   81ee8:	d8800015 	stw	r2,0(sp)
   81eec:	e1fffe17 	ldw	r7,-8(fp)
   81ef0:	e1bffd17 	ldw	r6,-12(fp)
   81ef4:	e17ffc17 	ldw	r5,-16(fp)
   81ef8:	e13ffb17 	ldw	r4,-20(fp)
   81efc:	00824280 	call	82428 <alt_avalon_sgdma_construct_descriptor_burst>
   81f00:	0001883a 	nop
   81f04:	e037883a 	mov	sp,fp
   81f08:	dfc00117 	ldw	ra,4(sp)
   81f0c:	df000017 	ldw	fp,0(sp)
   81f10:	dec00204 	addi	sp,sp,8
   81f14:	f800283a 	ret

00081f18 <alt_avalon_sgdma_construct_stream_to_mem_desc>:
   81f18:	defff804 	addi	sp,sp,-32
   81f1c:	dfc00715 	stw	ra,28(sp)
   81f20:	df000615 	stw	fp,24(sp)
   81f24:	df000604 	addi	fp,sp,24
   81f28:	e13ffc15 	stw	r4,-16(fp)
   81f2c:	e17ffd15 	stw	r5,-12(fp)
   81f30:	e1bffe15 	stw	r6,-8(fp)
   81f34:	3805883a 	mov	r2,r7
   81f38:	e0bfff0d 	sth	r2,-4(fp)
   81f3c:	e0ffff0b 	ldhu	r3,-4(fp)
   81f40:	d8000115 	stw	zero,4(sp)
   81f44:	e0800217 	ldw	r2,8(fp)
   81f48:	d8800015 	stw	r2,0(sp)
   81f4c:	180f883a 	mov	r7,r3
   81f50:	e1bffe17 	ldw	r6,-8(fp)
   81f54:	e17ffd17 	ldw	r5,-12(fp)
   81f58:	e13ffc17 	ldw	r4,-16(fp)
   81f5c:	0081f780 	call	81f78 <alt_avalon_sgdma_construct_stream_to_mem_desc_burst>
   81f60:	0001883a 	nop
   81f64:	e037883a 	mov	sp,fp
   81f68:	dfc00117 	ldw	ra,4(sp)
   81f6c:	df000017 	ldw	fp,0(sp)
   81f70:	dec00204 	addi	sp,sp,8
   81f74:	f800283a 	ret

00081f78 <alt_avalon_sgdma_construct_stream_to_mem_desc_burst>:
   81f78:	defff304 	addi	sp,sp,-52
   81f7c:	dfc00c15 	stw	ra,48(sp)
   81f80:	df000b15 	stw	fp,44(sp)
   81f84:	df000b04 	addi	fp,sp,44
   81f88:	e13ffc15 	stw	r4,-16(fp)
   81f8c:	e17ffd15 	stw	r5,-12(fp)
   81f90:	e1bffe15 	stw	r6,-8(fp)
   81f94:	3805883a 	mov	r2,r7
   81f98:	e0bfff0d 	sth	r2,-4(fp)
   81f9c:	e0bfff0b 	ldhu	r2,-4(fp)
   81fa0:	d8000615 	stw	zero,24(sp)
   81fa4:	e0c00317 	ldw	r3,12(fp)
   81fa8:	d8c00515 	stw	r3,20(sp)
   81fac:	d8000415 	stw	zero,16(sp)
   81fb0:	e0c00217 	ldw	r3,8(fp)
   81fb4:	d8c00315 	stw	r3,12(sp)
   81fb8:	d8000215 	stw	zero,8(sp)
   81fbc:	d8000115 	stw	zero,4(sp)
   81fc0:	d8800015 	stw	r2,0(sp)
   81fc4:	e1fffe17 	ldw	r7,-8(fp)
   81fc8:	000d883a 	mov	r6,zero
   81fcc:	e17ffd17 	ldw	r5,-12(fp)
   81fd0:	e13ffc17 	ldw	r4,-16(fp)
   81fd4:	00824280 	call	82428 <alt_avalon_sgdma_construct_descriptor_burst>
   81fd8:	0001883a 	nop
   81fdc:	e037883a 	mov	sp,fp
   81fe0:	dfc00117 	ldw	ra,4(sp)
   81fe4:	df000017 	ldw	fp,0(sp)
   81fe8:	dec00204 	addi	sp,sp,8
   81fec:	f800283a 	ret

00081ff0 <alt_avalon_sgdma_construct_mem_to_stream_desc>:
   81ff0:	defff404 	addi	sp,sp,-48
   81ff4:	dfc00b15 	stw	ra,44(sp)
   81ff8:	df000a15 	stw	fp,40(sp)
   81ffc:	df000a04 	addi	fp,sp,40
   82000:	e13ffb15 	stw	r4,-20(fp)
   82004:	e17ffc15 	stw	r5,-16(fp)
   82008:	e1bffd15 	stw	r6,-12(fp)
   8200c:	3807883a 	mov	r3,r7
   82010:	e0800517 	ldw	r2,20(fp)
   82014:	e0fffe0d 	sth	r3,-8(fp)
   82018:	e0bfff05 	stb	r2,-4(fp)
   8201c:	e0fffe0b 	ldhu	r3,-8(fp)
   82020:	e0bfff03 	ldbu	r2,-4(fp)
   82024:	d8800415 	stw	r2,16(sp)
   82028:	d8000315 	stw	zero,12(sp)
   8202c:	e0800417 	ldw	r2,16(fp)
   82030:	d8800215 	stw	r2,8(sp)
   82034:	e0800317 	ldw	r2,12(fp)
   82038:	d8800115 	stw	r2,4(sp)
   8203c:	e0800217 	ldw	r2,8(fp)
   82040:	d8800015 	stw	r2,0(sp)
   82044:	180f883a 	mov	r7,r3
   82048:	e1bffd17 	ldw	r6,-12(fp)
   8204c:	e17ffc17 	ldw	r5,-16(fp)
   82050:	e13ffb17 	ldw	r4,-20(fp)
   82054:	00820700 	call	82070 <alt_avalon_sgdma_construct_mem_to_stream_desc_burst>
   82058:	0001883a 	nop
   8205c:	e037883a 	mov	sp,fp
   82060:	dfc00117 	ldw	ra,4(sp)
   82064:	df000017 	ldw	fp,0(sp)
   82068:	dec00204 	addi	sp,sp,8
   8206c:	f800283a 	ret

00082070 <alt_avalon_sgdma_construct_mem_to_stream_desc_burst>:
   82070:	defff204 	addi	sp,sp,-56
   82074:	dfc00d15 	stw	ra,52(sp)
   82078:	df000c15 	stw	fp,48(sp)
   8207c:	df000c04 	addi	fp,sp,48
   82080:	e13ffb15 	stw	r4,-20(fp)
   82084:	e17ffc15 	stw	r5,-16(fp)
   82088:	e1bffd15 	stw	r6,-12(fp)
   8208c:	3807883a 	mov	r3,r7
   82090:	e0800617 	ldw	r2,24(fp)
   82094:	e0fffe0d 	sth	r3,-8(fp)
   82098:	e0bfff05 	stb	r2,-4(fp)
   8209c:	e0bffe0b 	ldhu	r2,-8(fp)
   820a0:	e0ffff03 	ldbu	r3,-4(fp)
   820a4:	d8c00615 	stw	r3,24(sp)
   820a8:	d8000515 	stw	zero,20(sp)
   820ac:	e0c00517 	ldw	r3,20(fp)
   820b0:	d8c00415 	stw	r3,16(sp)
   820b4:	e0c00317 	ldw	r3,12(fp)
   820b8:	d8c00315 	stw	r3,12(sp)
   820bc:	e0c00217 	ldw	r3,8(fp)
   820c0:	d8c00215 	stw	r3,8(sp)
   820c4:	e0c00417 	ldw	r3,16(fp)
   820c8:	d8c00115 	stw	r3,4(sp)
   820cc:	d8800015 	stw	r2,0(sp)
   820d0:	000f883a 	mov	r7,zero
   820d4:	e1bffd17 	ldw	r6,-12(fp)
   820d8:	e17ffc17 	ldw	r5,-16(fp)
   820dc:	e13ffb17 	ldw	r4,-20(fp)
   820e0:	00824280 	call	82428 <alt_avalon_sgdma_construct_descriptor_burst>
   820e4:	0001883a 	nop
   820e8:	e037883a 	mov	sp,fp
   820ec:	dfc00117 	ldw	ra,4(sp)
   820f0:	df000017 	ldw	fp,0(sp)
   820f4:	dec00204 	addi	sp,sp,8
   820f8:	f800283a 	ret

000820fc <alt_avalon_sgdma_register_callback>:
   820fc:	defffb04 	addi	sp,sp,-20
   82100:	df000415 	stw	fp,16(sp)
   82104:	df000404 	addi	fp,sp,16
   82108:	e13ffc15 	stw	r4,-16(fp)
   8210c:	e17ffd15 	stw	r5,-12(fp)
   82110:	e1bffe15 	stw	r6,-8(fp)
   82114:	e1ffff15 	stw	r7,-4(fp)
   82118:	e0bffc17 	ldw	r2,-16(fp)
   8211c:	e0fffd17 	ldw	r3,-12(fp)
   82120:	10c00915 	stw	r3,36(r2)
   82124:	e0bffc17 	ldw	r2,-16(fp)
   82128:	e0ffff17 	ldw	r3,-4(fp)
   8212c:	10c00a15 	stw	r3,40(r2)
   82130:	e0bffc17 	ldw	r2,-16(fp)
   82134:	e0fffe17 	ldw	r3,-8(fp)
   82138:	10c00b15 	stw	r3,44(r2)
   8213c:	0001883a 	nop
   82140:	e037883a 	mov	sp,fp
   82144:	df000017 	ldw	fp,0(sp)
   82148:	dec00104 	addi	sp,sp,4
   8214c:	f800283a 	ret

00082150 <alt_avalon_sgdma_start>:
   82150:	defffd04 	addi	sp,sp,-12
   82154:	df000215 	stw	fp,8(sp)
   82158:	df000204 	addi	fp,sp,8
   8215c:	e13fff15 	stw	r4,-4(fp)
   82160:	e0bfff17 	ldw	r2,-4(fp)
   82164:	10800317 	ldw	r2,12(r2)
   82168:	10800404 	addi	r2,r2,16
   8216c:	10800037 	ldwio	r2,0(r2)
   82170:	e0bffe15 	stw	r2,-8(fp)
   82174:	e0bffe17 	ldw	r2,-8(fp)
   82178:	10800814 	ori	r2,r2,32
   8217c:	e0bffe15 	stw	r2,-8(fp)
   82180:	e0bfff17 	ldw	r2,-4(fp)
   82184:	10800317 	ldw	r2,12(r2)
   82188:	10800404 	addi	r2,r2,16
   8218c:	e0fffe17 	ldw	r3,-8(fp)
   82190:	10c00035 	stwio	r3,0(r2)
   82194:	0001883a 	nop
   82198:	e037883a 	mov	sp,fp
   8219c:	df000017 	ldw	fp,0(sp)
   821a0:	dec00104 	addi	sp,sp,4
   821a4:	f800283a 	ret

000821a8 <alt_avalon_sgdma_stop>:
   821a8:	defffd04 	addi	sp,sp,-12
   821ac:	df000215 	stw	fp,8(sp)
   821b0:	df000204 	addi	fp,sp,8
   821b4:	e13fff15 	stw	r4,-4(fp)
   821b8:	e0bfff17 	ldw	r2,-4(fp)
   821bc:	10800317 	ldw	r2,12(r2)
   821c0:	10800404 	addi	r2,r2,16
   821c4:	10800037 	ldwio	r2,0(r2)
   821c8:	e0bffe15 	stw	r2,-8(fp)
   821cc:	e0fffe17 	ldw	r3,-8(fp)
   821d0:	00bff7c4 	movi	r2,-33
   821d4:	1884703a 	and	r2,r3,r2
   821d8:	e0bffe15 	stw	r2,-8(fp)
   821dc:	e0bfff17 	ldw	r2,-4(fp)
   821e0:	10800317 	ldw	r2,12(r2)
   821e4:	10800404 	addi	r2,r2,16
   821e8:	e0fffe17 	ldw	r3,-8(fp)
   821ec:	10c00035 	stwio	r3,0(r2)
   821f0:	0001883a 	nop
   821f4:	e037883a 	mov	sp,fp
   821f8:	df000017 	ldw	fp,0(sp)
   821fc:	dec00104 	addi	sp,sp,4
   82200:	f800283a 	ret

00082204 <alt_avalon_sgdma_check_descriptor_status>:
   82204:	defffe04 	addi	sp,sp,-8
   82208:	df000115 	stw	fp,4(sp)
   8220c:	df000104 	addi	fp,sp,4
   82210:	e13fff15 	stw	r4,-4(fp)
   82214:	e0bfff17 	ldw	r2,-4(fp)
   82218:	10800784 	addi	r2,r2,30
   8221c:	10800023 	ldbuio	r2,0(r2)
   82220:	10803fcc 	andi	r2,r2,255
   82224:	10801fcc 	andi	r2,r2,127
   82228:	10000226 	beq	r2,zero,82234 <alt_avalon_sgdma_check_descriptor_status+0x30>
   8222c:	00bffec4 	movi	r2,-5
   82230:	00000906 	br	82258 <alt_avalon_sgdma_check_descriptor_status+0x54>
   82234:	e0bfff17 	ldw	r2,-4(fp)
   82238:	108007c4 	addi	r2,r2,31
   8223c:	10800023 	ldbuio	r2,0(r2)
   82240:	10803fcc 	andi	r2,r2,255
   82244:	1080200c 	andi	r2,r2,128
   82248:	10000226 	beq	r2,zero,82254 <alt_avalon_sgdma_check_descriptor_status+0x50>
   8224c:	00bfe244 	movi	r2,-119
   82250:	00000106 	br	82258 <alt_avalon_sgdma_check_descriptor_status+0x54>
   82254:	0005883a 	mov	r2,zero
   82258:	e037883a 	mov	sp,fp
   8225c:	df000017 	ldw	fp,0(sp)
   82260:	dec00104 	addi	sp,sp,4
   82264:	f800283a 	ret

00082268 <alt_avalon_sgdma_open>:
   82268:	defffc04 	addi	sp,sp,-16
   8226c:	dfc00315 	stw	ra,12(sp)
   82270:	df000215 	stw	fp,8(sp)
   82274:	df000204 	addi	fp,sp,8
   82278:	e13fff15 	stw	r4,-4(fp)
   8227c:	d1600304 	addi	r5,gp,-32756
   82280:	e13fff17 	ldw	r4,-4(fp)
   82284:	0082e080 	call	82e08 <alt_find_dev>
   82288:	e0bffe15 	stw	r2,-8(fp)
   8228c:	e0bffe17 	ldw	r2,-8(fp)
   82290:	1000041e 	bne	r2,zero,822a4 <alt_avalon_sgdma_open+0x3c>
   82294:	0081bb00 	call	81bb0 <alt_get_errno>
   82298:	1007883a 	mov	r3,r2
   8229c:	008004c4 	movi	r2,19
   822a0:	18800015 	stw	r2,0(r3)
   822a4:	e0bffe17 	ldw	r2,-8(fp)
   822a8:	e037883a 	mov	sp,fp
   822ac:	dfc00117 	ldw	ra,4(sp)
   822b0:	df000017 	ldw	fp,0(sp)
   822b4:	dec00204 	addi	sp,sp,8
   822b8:	f800283a 	ret

000822bc <alt_avalon_sgdma_construct_descriptor>:
   822bc:	defff104 	addi	sp,sp,-60
   822c0:	dfc00e15 	stw	ra,56(sp)
   822c4:	df000d15 	stw	fp,52(sp)
   822c8:	df000d04 	addi	fp,sp,52
   822cc:	e13ffa15 	stw	r4,-24(fp)
   822d0:	e17ffb15 	stw	r5,-20(fp)
   822d4:	e1bffc15 	stw	r6,-16(fp)
   822d8:	e1fffd15 	stw	r7,-12(fp)
   822dc:	e0c00217 	ldw	r3,8(fp)
   822e0:	e0800617 	ldw	r2,24(fp)
   822e4:	e0fffe0d 	sth	r3,-8(fp)
   822e8:	e0bfff05 	stb	r2,-4(fp)
   822ec:	e0bffe0b 	ldhu	r2,-8(fp)
   822f0:	e0ffff03 	ldbu	r3,-4(fp)
   822f4:	d8c00615 	stw	r3,24(sp)
   822f8:	d8000515 	stw	zero,20(sp)
   822fc:	d8000415 	stw	zero,16(sp)
   82300:	e0c00517 	ldw	r3,20(fp)
   82304:	d8c00315 	stw	r3,12(sp)
   82308:	e0c00417 	ldw	r3,16(fp)
   8230c:	d8c00215 	stw	r3,8(sp)
   82310:	e0c00317 	ldw	r3,12(fp)
   82314:	d8c00115 	stw	r3,4(sp)
   82318:	d8800015 	stw	r2,0(sp)
   8231c:	e1fffd17 	ldw	r7,-12(fp)
   82320:	e1bffc17 	ldw	r6,-16(fp)
   82324:	e17ffb17 	ldw	r5,-20(fp)
   82328:	e13ffa17 	ldw	r4,-24(fp)
   8232c:	00824280 	call	82428 <alt_avalon_sgdma_construct_descriptor_burst>
   82330:	0001883a 	nop
   82334:	e037883a 	mov	sp,fp
   82338:	dfc00117 	ldw	ra,4(sp)
   8233c:	df000017 	ldw	fp,0(sp)
   82340:	dec00204 	addi	sp,sp,8
   82344:	f800283a 	ret

00082348 <alt_avalon_sgdma_enable_desc_poll>:
   82348:	defffc04 	addi	sp,sp,-16
   8234c:	df000315 	stw	fp,12(sp)
   82350:	df000304 	addi	fp,sp,12
   82354:	e13ffe15 	stw	r4,-8(fp)
   82358:	e17fff15 	stw	r5,-4(fp)
   8235c:	e0bffe17 	ldw	r2,-8(fp)
   82360:	10800317 	ldw	r2,12(r2)
   82364:	10800404 	addi	r2,r2,16
   82368:	10800037 	ldwio	r2,0(r2)
   8236c:	e0bffd15 	stw	r2,-12(fp)
   82370:	e0fffd17 	ldw	r3,-12(fp)
   82374:	00a00434 	movhi	r2,32784
   82378:	10bfffc4 	addi	r2,r2,-1
   8237c:	1884703a 	and	r2,r3,r2
   82380:	e0bffd15 	stw	r2,-12(fp)
   82384:	e0bfff17 	ldw	r2,-4(fp)
   82388:	1004953a 	slli	r2,r2,20
   8238c:	10dffc2c 	andhi	r3,r2,32752
   82390:	e0bffd17 	ldw	r2,-12(fp)
   82394:	1884b03a 	or	r2,r3,r2
   82398:	10800134 	orhi	r2,r2,4
   8239c:	e0bffd15 	stw	r2,-12(fp)
   823a0:	e0bffe17 	ldw	r2,-8(fp)
   823a4:	10800317 	ldw	r2,12(r2)
   823a8:	10800404 	addi	r2,r2,16
   823ac:	e0fffd17 	ldw	r3,-12(fp)
   823b0:	10c00035 	stwio	r3,0(r2)
   823b4:	0001883a 	nop
   823b8:	e037883a 	mov	sp,fp
   823bc:	df000017 	ldw	fp,0(sp)
   823c0:	dec00104 	addi	sp,sp,4
   823c4:	f800283a 	ret

000823c8 <alt_avalon_sgdma_disable_desc_poll>:
   823c8:	defffd04 	addi	sp,sp,-12
   823cc:	df000215 	stw	fp,8(sp)
   823d0:	df000204 	addi	fp,sp,8
   823d4:	e13fff15 	stw	r4,-4(fp)
   823d8:	e0bfff17 	ldw	r2,-4(fp)
   823dc:	10800317 	ldw	r2,12(r2)
   823e0:	10800404 	addi	r2,r2,16
   823e4:	10800037 	ldwio	r2,0(r2)
   823e8:	e0bffe15 	stw	r2,-8(fp)
   823ec:	e0fffe17 	ldw	r3,-8(fp)
   823f0:	00bfff34 	movhi	r2,65532
   823f4:	10bfffc4 	addi	r2,r2,-1
   823f8:	1884703a 	and	r2,r3,r2
   823fc:	e0bffe15 	stw	r2,-8(fp)
   82400:	e0bfff17 	ldw	r2,-4(fp)
   82404:	10800317 	ldw	r2,12(r2)
   82408:	10800404 	addi	r2,r2,16
   8240c:	e0fffe17 	ldw	r3,-8(fp)
   82410:	10c00035 	stwio	r3,0(r2)
   82414:	0001883a 	nop
   82418:	e037883a 	mov	sp,fp
   8241c:	df000017 	ldw	fp,0(sp)
   82420:	dec00104 	addi	sp,sp,4
   82424:	f800283a 	ret

00082428 <alt_avalon_sgdma_construct_descriptor_burst>:
   82428:	defff804 	addi	sp,sp,-32
   8242c:	dfc00715 	stw	ra,28(sp)
   82430:	df000615 	stw	fp,24(sp)
   82434:	df000604 	addi	fp,sp,24
   82438:	e13ffa15 	stw	r4,-24(fp)
   8243c:	e17ffb15 	stw	r5,-20(fp)
   82440:	e1bffc15 	stw	r6,-16(fp)
   82444:	e1fffd15 	stw	r7,-12(fp)
   82448:	e0c00217 	ldw	r3,8(fp)
   8244c:	e0800817 	ldw	r2,32(fp)
   82450:	e0fffe0d 	sth	r3,-8(fp)
   82454:	e0bfff05 	stb	r2,-4(fp)
   82458:	e0bffb17 	ldw	r2,-20(fp)
   8245c:	108007c4 	addi	r2,r2,31
   82460:	e0fffb17 	ldw	r3,-20(fp)
   82464:	18c007c3 	ldbu	r3,31(r3)
   82468:	19003fcc 	andi	r4,r3,255
   8246c:	00ffdfc4 	movi	r3,-129
   82470:	20c6703a 	and	r3,r4,r3
   82474:	10c00025 	stbio	r3,0(r2)
   82478:	e0bffa17 	ldw	r2,-24(fp)
   8247c:	e0fffc17 	ldw	r3,-16(fp)
   82480:	19403fcc 	andi	r5,r3,255
   82484:	10c00003 	ldbu	r3,0(r2)
   82488:	1806703a 	and	r3,r3,zero
   8248c:	1809883a 	mov	r4,r3
   82490:	2807883a 	mov	r3,r5
   82494:	20c6b03a 	or	r3,r4,r3
   82498:	10c00005 	stb	r3,0(r2)
   8249c:	e0fffc17 	ldw	r3,-16(fp)
   824a0:	1806d23a 	srli	r3,r3,8
   824a4:	19403fcc 	andi	r5,r3,255
   824a8:	10c00043 	ldbu	r3,1(r2)
   824ac:	1806703a 	and	r3,r3,zero
   824b0:	1809883a 	mov	r4,r3
   824b4:	2807883a 	mov	r3,r5
   824b8:	20c6b03a 	or	r3,r4,r3
   824bc:	10c00045 	stb	r3,1(r2)
   824c0:	e0fffc17 	ldw	r3,-16(fp)
   824c4:	1806d43a 	srli	r3,r3,16
   824c8:	19403fcc 	andi	r5,r3,255
   824cc:	10c00083 	ldbu	r3,2(r2)
   824d0:	1806703a 	and	r3,r3,zero
   824d4:	1809883a 	mov	r4,r3
   824d8:	2807883a 	mov	r3,r5
   824dc:	20c6b03a 	or	r3,r4,r3
   824e0:	10c00085 	stb	r3,2(r2)
   824e4:	e0fffc17 	ldw	r3,-16(fp)
   824e8:	180ad63a 	srli	r5,r3,24
   824ec:	10c000c3 	ldbu	r3,3(r2)
   824f0:	1806703a 	and	r3,r3,zero
   824f4:	1809883a 	mov	r4,r3
   824f8:	2807883a 	mov	r3,r5
   824fc:	20c6b03a 	or	r3,r4,r3
   82500:	10c000c5 	stb	r3,3(r2)
   82504:	e0bffa17 	ldw	r2,-24(fp)
   82508:	e0fffd17 	ldw	r3,-12(fp)
   8250c:	19403fcc 	andi	r5,r3,255
   82510:	10c00203 	ldbu	r3,8(r2)
   82514:	1806703a 	and	r3,r3,zero
   82518:	1809883a 	mov	r4,r3
   8251c:	2807883a 	mov	r3,r5
   82520:	20c6b03a 	or	r3,r4,r3
   82524:	10c00205 	stb	r3,8(r2)
   82528:	e0fffd17 	ldw	r3,-12(fp)
   8252c:	1806d23a 	srli	r3,r3,8
   82530:	19403fcc 	andi	r5,r3,255
   82534:	10c00243 	ldbu	r3,9(r2)
   82538:	1806703a 	and	r3,r3,zero
   8253c:	1809883a 	mov	r4,r3
   82540:	2807883a 	mov	r3,r5
   82544:	20c6b03a 	or	r3,r4,r3
   82548:	10c00245 	stb	r3,9(r2)
   8254c:	e0fffd17 	ldw	r3,-12(fp)
   82550:	1806d43a 	srli	r3,r3,16
   82554:	19403fcc 	andi	r5,r3,255
   82558:	10c00283 	ldbu	r3,10(r2)
   8255c:	1806703a 	and	r3,r3,zero
   82560:	1809883a 	mov	r4,r3
   82564:	2807883a 	mov	r3,r5
   82568:	20c6b03a 	or	r3,r4,r3
   8256c:	10c00285 	stb	r3,10(r2)
   82570:	e0fffd17 	ldw	r3,-12(fp)
   82574:	180ad63a 	srli	r5,r3,24
   82578:	10c002c3 	ldbu	r3,11(r2)
   8257c:	1806703a 	and	r3,r3,zero
   82580:	1809883a 	mov	r4,r3
   82584:	2807883a 	mov	r3,r5
   82588:	20c6b03a 	or	r3,r4,r3
   8258c:	10c002c5 	stb	r3,11(r2)
   82590:	e0bffa17 	ldw	r2,-24(fp)
   82594:	e0fffb17 	ldw	r3,-20(fp)
   82598:	19403fcc 	andi	r5,r3,255
   8259c:	10c00403 	ldbu	r3,16(r2)
   825a0:	1806703a 	and	r3,r3,zero
   825a4:	1809883a 	mov	r4,r3
   825a8:	2807883a 	mov	r3,r5
   825ac:	20c6b03a 	or	r3,r4,r3
   825b0:	10c00405 	stb	r3,16(r2)
   825b4:	e0fffb17 	ldw	r3,-20(fp)
   825b8:	1806d23a 	srli	r3,r3,8
   825bc:	19403fcc 	andi	r5,r3,255
   825c0:	10c00443 	ldbu	r3,17(r2)
   825c4:	1806703a 	and	r3,r3,zero
   825c8:	1809883a 	mov	r4,r3
   825cc:	2807883a 	mov	r3,r5
   825d0:	20c6b03a 	or	r3,r4,r3
   825d4:	10c00445 	stb	r3,17(r2)
   825d8:	e0fffb17 	ldw	r3,-20(fp)
   825dc:	1806d43a 	srli	r3,r3,16
   825e0:	19403fcc 	andi	r5,r3,255
   825e4:	10c00483 	ldbu	r3,18(r2)
   825e8:	1806703a 	and	r3,r3,zero
   825ec:	1809883a 	mov	r4,r3
   825f0:	2807883a 	mov	r3,r5
   825f4:	20c6b03a 	or	r3,r4,r3
   825f8:	10c00485 	stb	r3,18(r2)
   825fc:	e0fffb17 	ldw	r3,-20(fp)
   82600:	180ad63a 	srli	r5,r3,24
   82604:	10c004c3 	ldbu	r3,19(r2)
   82608:	1806703a 	and	r3,r3,zero
   8260c:	1809883a 	mov	r4,r3
   82610:	2807883a 	mov	r3,r5
   82614:	20c6b03a 	or	r3,r4,r3
   82618:	10c004c5 	stb	r3,19(r2)
   8261c:	e0bffa17 	ldw	r2,-24(fp)
   82620:	10c00103 	ldbu	r3,4(r2)
   82624:	1806703a 	and	r3,r3,zero
   82628:	10c00105 	stb	r3,4(r2)
   8262c:	10c00143 	ldbu	r3,5(r2)
   82630:	1806703a 	and	r3,r3,zero
   82634:	10c00145 	stb	r3,5(r2)
   82638:	10c00183 	ldbu	r3,6(r2)
   8263c:	1806703a 	and	r3,r3,zero
   82640:	10c00185 	stb	r3,6(r2)
   82644:	10c001c3 	ldbu	r3,7(r2)
   82648:	1806703a 	and	r3,r3,zero
   8264c:	10c001c5 	stb	r3,7(r2)
   82650:	e0bffa17 	ldw	r2,-24(fp)
   82654:	10c00303 	ldbu	r3,12(r2)
   82658:	1806703a 	and	r3,r3,zero
   8265c:	10c00305 	stb	r3,12(r2)
   82660:	10c00343 	ldbu	r3,13(r2)
   82664:	1806703a 	and	r3,r3,zero
   82668:	10c00345 	stb	r3,13(r2)
   8266c:	10c00383 	ldbu	r3,14(r2)
   82670:	1806703a 	and	r3,r3,zero
   82674:	10c00385 	stb	r3,14(r2)
   82678:	10c003c3 	ldbu	r3,15(r2)
   8267c:	1806703a 	and	r3,r3,zero
   82680:	10c003c5 	stb	r3,15(r2)
   82684:	e0bffa17 	ldw	r2,-24(fp)
   82688:	10c00503 	ldbu	r3,20(r2)
   8268c:	1806703a 	and	r3,r3,zero
   82690:	10c00505 	stb	r3,20(r2)
   82694:	10c00543 	ldbu	r3,21(r2)
   82698:	1806703a 	and	r3,r3,zero
   8269c:	10c00545 	stb	r3,21(r2)
   826a0:	10c00583 	ldbu	r3,22(r2)
   826a4:	1806703a 	and	r3,r3,zero
   826a8:	10c00585 	stb	r3,22(r2)
   826ac:	10c005c3 	ldbu	r3,23(r2)
   826b0:	1806703a 	and	r3,r3,zero
   826b4:	10c005c5 	stb	r3,23(r2)
   826b8:	e0bffa17 	ldw	r2,-24(fp)
   826bc:	e0fffe17 	ldw	r3,-8(fp)
   826c0:	19403fcc 	andi	r5,r3,255
   826c4:	10c00603 	ldbu	r3,24(r2)
   826c8:	1806703a 	and	r3,r3,zero
   826cc:	1809883a 	mov	r4,r3
   826d0:	2807883a 	mov	r3,r5
   826d4:	20c6b03a 	or	r3,r4,r3
   826d8:	10c00605 	stb	r3,24(r2)
   826dc:	e0fffe17 	ldw	r3,-8(fp)
   826e0:	1806d23a 	srli	r3,r3,8
   826e4:	19403fcc 	andi	r5,r3,255
   826e8:	10c00643 	ldbu	r3,25(r2)
   826ec:	1806703a 	and	r3,r3,zero
   826f0:	1809883a 	mov	r4,r3
   826f4:	2807883a 	mov	r3,r5
   826f8:	20c6b03a 	or	r3,r4,r3
   826fc:	10c00645 	stb	r3,25(r2)
   82700:	e0bffa17 	ldw	r2,-24(fp)
   82704:	10c00703 	ldbu	r3,28(r2)
   82708:	1806703a 	and	r3,r3,zero
   8270c:	10c00705 	stb	r3,28(r2)
   82710:	10c00743 	ldbu	r3,29(r2)
   82714:	1806703a 	and	r3,r3,zero
   82718:	10c00745 	stb	r3,29(r2)
   8271c:	e0bffa17 	ldw	r2,-24(fp)
   82720:	10000785 	stb	zero,30(r2)
   82724:	e0800617 	ldw	r2,24(fp)
   82728:	1007883a 	mov	r3,r2
   8272c:	e0bffa17 	ldw	r2,-24(fp)
   82730:	10c00685 	stb	r3,26(r2)
   82734:	e0800717 	ldw	r2,28(fp)
   82738:	1007883a 	mov	r3,r2
   8273c:	e0bffa17 	ldw	r2,-24(fp)
   82740:	10c006c5 	stb	r3,27(r2)
   82744:	e0800317 	ldw	r2,12(fp)
   82748:	10000226 	beq	r2,zero,82754 <alt_avalon_sgdma_construct_descriptor_burst+0x32c>
   8274c:	00bfe044 	movi	r2,-127
   82750:	00000106 	br	82758 <alt_avalon_sgdma_construct_descriptor_burst+0x330>
   82754:	00bfe004 	movi	r2,-128
   82758:	e0c00417 	ldw	r3,16(fp)
   8275c:	18000226 	beq	r3,zero,82768 <alt_avalon_sgdma_construct_descriptor_burst+0x340>
   82760:	00c00084 	movi	r3,2
   82764:	00000106 	br	8276c <alt_avalon_sgdma_construct_descriptor_burst+0x344>
   82768:	0007883a 	mov	r3,zero
   8276c:	10c4b03a 	or	r2,r2,r3
   82770:	1007883a 	mov	r3,r2
   82774:	e0800517 	ldw	r2,20(fp)
   82778:	10000226 	beq	r2,zero,82784 <alt_avalon_sgdma_construct_descriptor_burst+0x35c>
   8277c:	00800104 	movi	r2,4
   82780:	00000106 	br	82788 <alt_avalon_sgdma_construct_descriptor_burst+0x360>
   82784:	0005883a 	mov	r2,zero
   82788:	1884b03a 	or	r2,r3,r2
   8278c:	1007883a 	mov	r3,r2
   82790:	e0bfff03 	ldbu	r2,-4(fp)
   82794:	10000426 	beq	r2,zero,827a8 <alt_avalon_sgdma_construct_descriptor_burst+0x380>
   82798:	e0bfff03 	ldbu	r2,-4(fp)
   8279c:	108003cc 	andi	r2,r2,15
   827a0:	100490fa 	slli	r2,r2,3
   827a4:	00000106 	br	827ac <alt_avalon_sgdma_construct_descriptor_burst+0x384>
   827a8:	0005883a 	mov	r2,zero
   827ac:	1884b03a 	or	r2,r3,r2
   827b0:	1007883a 	mov	r3,r2
   827b4:	e0bffa17 	ldw	r2,-24(fp)
   827b8:	10c007c5 	stb	r3,31(r2)
   827bc:	01400804 	movi	r5,32
   827c0:	e13ffa17 	ldw	r4,-24(fp)
   827c4:	0082b7c0 	call	82b7c <alt_dcache_flush>
   827c8:	0001883a 	nop
   827cc:	e037883a 	mov	sp,fp
   827d0:	dfc00117 	ldw	ra,4(sp)
   827d4:	df000017 	ldw	fp,0(sp)
   827d8:	dec00204 	addi	sp,sp,8
   827dc:	f800283a 	ret

000827e0 <alt_avalon_sgdma_irq>:
   827e0:	defff904 	addi	sp,sp,-28
   827e4:	dfc00615 	stw	ra,24(sp)
   827e8:	df000515 	stw	fp,20(sp)
   827ec:	df000504 	addi	fp,sp,20
   827f0:	e13fff15 	stw	r4,-4(fp)
   827f4:	e0bfff17 	ldw	r2,-4(fp)
   827f8:	e0bffb15 	stw	r2,-20(fp)
   827fc:	e0bffb17 	ldw	r2,-20(fp)
   82800:	10800317 	ldw	r2,12(r2)
   82804:	10800404 	addi	r2,r2,16
   82808:	e0fffb17 	ldw	r3,-20(fp)
   8280c:	18c00317 	ldw	r3,12(r3)
   82810:	18c00404 	addi	r3,r3,16
   82814:	18c00037 	ldwio	r3,0(r3)
   82818:	18e00034 	orhi	r3,r3,32768
   8281c:	10c00035 	stwio	r3,0(r2)
   82820:	e0bffb17 	ldw	r2,-20(fp)
   82824:	10800317 	ldw	r2,12(r2)
   82828:	10800404 	addi	r2,r2,16
   8282c:	10800037 	ldwio	r2,0(r2)
   82830:	e0bffb17 	ldw	r2,-20(fp)
   82834:	10800917 	ldw	r2,36(r2)
   82838:	10001226 	beq	r2,zero,82884 <alt_avalon_sgdma_irq+0xa4>
   8283c:	0005303a 	rdctl	r2,status
   82840:	e0bffd15 	stw	r2,-12(fp)
   82844:	e0fffd17 	ldw	r3,-12(fp)
   82848:	00bfff84 	movi	r2,-2
   8284c:	1884703a 	and	r2,r3,r2
   82850:	1001703a 	wrctl	status,r2
   82854:	e0bffd17 	ldw	r2,-12(fp)
   82858:	e0bffc15 	stw	r2,-16(fp)
   8285c:	e0bffb17 	ldw	r2,-20(fp)
   82860:	10800917 	ldw	r2,36(r2)
   82864:	e0fffb17 	ldw	r3,-20(fp)
   82868:	18c00a17 	ldw	r3,40(r3)
   8286c:	1809883a 	mov	r4,r3
   82870:	103ee83a 	callr	r2
   82874:	e0bffc17 	ldw	r2,-16(fp)
   82878:	e0bffe15 	stw	r2,-8(fp)
   8287c:	e0bffe17 	ldw	r2,-8(fp)
   82880:	1001703a 	wrctl	status,r2
   82884:	0001883a 	nop
   82888:	e037883a 	mov	sp,fp
   8288c:	dfc00117 	ldw	ra,4(sp)
   82890:	df000017 	ldw	fp,0(sp)
   82894:	dec00204 	addi	sp,sp,8
   82898:	f800283a 	ret

0008289c <alt_avalon_sgdma_init>:
   8289c:	defffa04 	addi	sp,sp,-24
   828a0:	dfc00515 	stw	ra,20(sp)
   828a4:	df000415 	stw	fp,16(sp)
   828a8:	df000404 	addi	fp,sp,16
   828ac:	e13ffd15 	stw	r4,-12(fp)
   828b0:	e17ffe15 	stw	r5,-8(fp)
   828b4:	e1bfff15 	stw	r6,-4(fp)
   828b8:	e0bffd17 	ldw	r2,-12(fp)
   828bc:	10800317 	ldw	r2,12(r2)
   828c0:	10800404 	addi	r2,r2,16
   828c4:	00c00074 	movhi	r3,1
   828c8:	10c00035 	stwio	r3,0(r2)
   828cc:	e0bffd17 	ldw	r2,-12(fp)
   828d0:	10800317 	ldw	r2,12(r2)
   828d4:	10800404 	addi	r2,r2,16
   828d8:	00c00074 	movhi	r3,1
   828dc:	10c00035 	stwio	r3,0(r2)
   828e0:	e0bffd17 	ldw	r2,-12(fp)
   828e4:	10800317 	ldw	r2,12(r2)
   828e8:	10800404 	addi	r2,r2,16
   828ec:	0007883a 	mov	r3,zero
   828f0:	10c00035 	stwio	r3,0(r2)
   828f4:	e0bffd17 	ldw	r2,-12(fp)
   828f8:	10800317 	ldw	r2,12(r2)
   828fc:	00c03fc4 	movi	r3,255
   82900:	10c00035 	stwio	r3,0(r2)
   82904:	d1600304 	addi	r5,gp,-32756
   82908:	e13ffd17 	ldw	r4,-12(fp)
   8290c:	0082ca40 	call	82ca4 <alt_dev_llist_insert>
   82910:	d8000015 	stw	zero,0(sp)
   82914:	e1fffd17 	ldw	r7,-12(fp)
   82918:	01800234 	movhi	r6,8
   8291c:	3189f804 	addi	r6,r6,10208
   82920:	e17fff17 	ldw	r5,-4(fp)
   82924:	e13ffe17 	ldw	r4,-8(fp)
   82928:	00809f80 	call	809f8 <alt_ic_isr_register>
   8292c:	0001883a 	nop
   82930:	e037883a 	mov	sp,fp
   82934:	dfc00117 	ldw	ra,4(sp)
   82938:	df000017 	ldw	fp,0(sp)
   8293c:	dec00204 	addi	sp,sp,8
   82940:	f800283a 	ret

00082944 <alt_alarm_start>:
   82944:	defff504 	addi	sp,sp,-44
   82948:	df000a15 	stw	fp,40(sp)
   8294c:	df000a04 	addi	fp,sp,40
   82950:	e13ffc15 	stw	r4,-16(fp)
   82954:	e17ffd15 	stw	r5,-12(fp)
   82958:	e1bffe15 	stw	r6,-8(fp)
   8295c:	e1ffff15 	stw	r7,-4(fp)
   82960:	e03ff615 	stw	zero,-40(fp)
   82964:	d0a84e17 	ldw	r2,-24264(gp)
   82968:	10003c26 	beq	r2,zero,82a5c <alt_alarm_start+0x118>
   8296c:	e0bffc17 	ldw	r2,-16(fp)
   82970:	10003826 	beq	r2,zero,82a54 <alt_alarm_start+0x110>
   82974:	e0bffc17 	ldw	r2,-16(fp)
   82978:	e0fffe17 	ldw	r3,-8(fp)
   8297c:	10c00315 	stw	r3,12(r2)
   82980:	e0bffc17 	ldw	r2,-16(fp)
   82984:	e0ffff17 	ldw	r3,-4(fp)
   82988:	10c00515 	stw	r3,20(r2)
   8298c:	0005303a 	rdctl	r2,status
   82990:	e0bff915 	stw	r2,-28(fp)
   82994:	e0fff917 	ldw	r3,-28(fp)
   82998:	00bfff84 	movi	r2,-2
   8299c:	1884703a 	and	r2,r3,r2
   829a0:	1001703a 	wrctl	status,r2
   829a4:	e0bff917 	ldw	r2,-28(fp)
   829a8:	e0bff815 	stw	r2,-32(fp)
   829ac:	d0a84f17 	ldw	r2,-24260(gp)
   829b0:	e0bff615 	stw	r2,-40(fp)
   829b4:	e0fffd17 	ldw	r3,-12(fp)
   829b8:	e0bff617 	ldw	r2,-40(fp)
   829bc:	1885883a 	add	r2,r3,r2
   829c0:	10c00044 	addi	r3,r2,1
   829c4:	e0bffc17 	ldw	r2,-16(fp)
   829c8:	10c00215 	stw	r3,8(r2)
   829cc:	e0bffc17 	ldw	r2,-16(fp)
   829d0:	10c00217 	ldw	r3,8(r2)
   829d4:	e0bff617 	ldw	r2,-40(fp)
   829d8:	1880042e 	bgeu	r3,r2,829ec <alt_alarm_start+0xa8>
   829dc:	e0bffc17 	ldw	r2,-16(fp)
   829e0:	00c00044 	movi	r3,1
   829e4:	10c00405 	stb	r3,16(r2)
   829e8:	00000206 	br	829f4 <alt_alarm_start+0xb0>
   829ec:	e0bffc17 	ldw	r2,-16(fp)
   829f0:	10000405 	stb	zero,16(r2)
   829f4:	e0bffc17 	ldw	r2,-16(fp)
   829f8:	d0e00b04 	addi	r3,gp,-32724
   829fc:	e0fffa15 	stw	r3,-24(fp)
   82a00:	e0bffb15 	stw	r2,-20(fp)
   82a04:	e0bffb17 	ldw	r2,-20(fp)
   82a08:	e0fffa17 	ldw	r3,-24(fp)
   82a0c:	10c00115 	stw	r3,4(r2)
   82a10:	e0bffa17 	ldw	r2,-24(fp)
   82a14:	10c00017 	ldw	r3,0(r2)
   82a18:	e0bffb17 	ldw	r2,-20(fp)
   82a1c:	10c00015 	stw	r3,0(r2)
   82a20:	e0bffa17 	ldw	r2,-24(fp)
   82a24:	10800017 	ldw	r2,0(r2)
   82a28:	e0fffb17 	ldw	r3,-20(fp)
   82a2c:	10c00115 	stw	r3,4(r2)
   82a30:	e0bffa17 	ldw	r2,-24(fp)
   82a34:	e0fffb17 	ldw	r3,-20(fp)
   82a38:	10c00015 	stw	r3,0(r2)
   82a3c:	e0bff817 	ldw	r2,-32(fp)
   82a40:	e0bff715 	stw	r2,-36(fp)
   82a44:	e0bff717 	ldw	r2,-36(fp)
   82a48:	1001703a 	wrctl	status,r2
   82a4c:	0005883a 	mov	r2,zero
   82a50:	00000306 	br	82a60 <alt_alarm_start+0x11c>
   82a54:	00bffa84 	movi	r2,-22
   82a58:	00000106 	br	82a60 <alt_alarm_start+0x11c>
   82a5c:	00bfde84 	movi	r2,-134
   82a60:	e037883a 	mov	sp,fp
   82a64:	df000017 	ldw	fp,0(sp)
   82a68:	dec00104 	addi	sp,sp,4
   82a6c:	f800283a 	ret

00082a70 <alt_get_errno>:
   82a70:	defffe04 	addi	sp,sp,-8
   82a74:	dfc00115 	stw	ra,4(sp)
   82a78:	df000015 	stw	fp,0(sp)
   82a7c:	d839883a 	mov	fp,sp
   82a80:	d0a00a17 	ldw	r2,-32728(gp)
   82a84:	10000326 	beq	r2,zero,82a94 <alt_get_errno+0x24>
   82a88:	d0a00a17 	ldw	r2,-32728(gp)
   82a8c:	103ee83a 	callr	r2
   82a90:	00000106 	br	82a98 <alt_get_errno+0x28>
   82a94:	d0a85004 	addi	r2,gp,-24256
   82a98:	e037883a 	mov	sp,fp
   82a9c:	dfc00117 	ldw	ra,4(sp)
   82aa0:	df000017 	ldw	fp,0(sp)
   82aa4:	dec00204 	addi	sp,sp,8
   82aa8:	f800283a 	ret

00082aac <close>:
   82aac:	defffb04 	addi	sp,sp,-20
   82ab0:	dfc00415 	stw	ra,16(sp)
   82ab4:	df000315 	stw	fp,12(sp)
   82ab8:	df000304 	addi	fp,sp,12
   82abc:	e13fff15 	stw	r4,-4(fp)
   82ac0:	e0bfff17 	ldw	r2,-4(fp)
   82ac4:	10000616 	blt	r2,zero,82ae0 <close+0x34>
   82ac8:	e0bfff17 	ldw	r2,-4(fp)
   82acc:	10c00324 	muli	r3,r2,12
   82ad0:	00800234 	movhi	r2,8
   82ad4:	109edf04 	addi	r2,r2,31612
   82ad8:	1885883a 	add	r2,r3,r2
   82adc:	00000106 	br	82ae4 <close+0x38>
   82ae0:	0005883a 	mov	r2,zero
   82ae4:	e0bffd15 	stw	r2,-12(fp)
   82ae8:	e0bffd17 	ldw	r2,-12(fp)
   82aec:	10001926 	beq	r2,zero,82b54 <close+0xa8>
   82af0:	e0bffd17 	ldw	r2,-12(fp)
   82af4:	10800017 	ldw	r2,0(r2)
   82af8:	10800417 	ldw	r2,16(r2)
   82afc:	10000626 	beq	r2,zero,82b18 <close+0x6c>
   82b00:	e0bffd17 	ldw	r2,-12(fp)
   82b04:	10800017 	ldw	r2,0(r2)
   82b08:	10800417 	ldw	r2,16(r2)
   82b0c:	e13ffd17 	ldw	r4,-12(fp)
   82b10:	103ee83a 	callr	r2
   82b14:	00000106 	br	82b1c <close+0x70>
   82b18:	0005883a 	mov	r2,zero
   82b1c:	e0bffe15 	stw	r2,-8(fp)
   82b20:	e13fff17 	ldw	r4,-4(fp)
   82b24:	00832fc0 	call	832fc <alt_release_fd>
   82b28:	e0bffe17 	ldw	r2,-8(fp)
   82b2c:	1000070e 	bge	r2,zero,82b4c <close+0xa0>
   82b30:	0082a700 	call	82a70 <alt_get_errno>
   82b34:	1007883a 	mov	r3,r2
   82b38:	e0bffe17 	ldw	r2,-8(fp)
   82b3c:	0085c83a 	sub	r2,zero,r2
   82b40:	18800015 	stw	r2,0(r3)
   82b44:	00bfffc4 	movi	r2,-1
   82b48:	00000706 	br	82b68 <close+0xbc>
   82b4c:	0005883a 	mov	r2,zero
   82b50:	00000506 	br	82b68 <close+0xbc>
   82b54:	0082a700 	call	82a70 <alt_get_errno>
   82b58:	1007883a 	mov	r3,r2
   82b5c:	00801444 	movi	r2,81
   82b60:	18800015 	stw	r2,0(r3)
   82b64:	00bfffc4 	movi	r2,-1
   82b68:	e037883a 	mov	sp,fp
   82b6c:	dfc00117 	ldw	ra,4(sp)
   82b70:	df000017 	ldw	fp,0(sp)
   82b74:	dec00204 	addi	sp,sp,8
   82b78:	f800283a 	ret

00082b7c <alt_dcache_flush>:
   82b7c:	defffb04 	addi	sp,sp,-20
   82b80:	df000415 	stw	fp,16(sp)
   82b84:	df000404 	addi	fp,sp,16
   82b88:	e13ffe15 	stw	r4,-8(fp)
   82b8c:	e17fff15 	stw	r5,-4(fp)
   82b90:	e0fffe17 	ldw	r3,-8(fp)
   82b94:	e0bfff17 	ldw	r2,-4(fp)
   82b98:	1885883a 	add	r2,r3,r2
   82b9c:	e0bffd15 	stw	r2,-12(fp)
   82ba0:	e0bffe17 	ldw	r2,-8(fp)
   82ba4:	e0bffc15 	stw	r2,-16(fp)
   82ba8:	00000506 	br	82bc0 <alt_dcache_flush+0x44>
   82bac:	e0bffc17 	ldw	r2,-16(fp)
   82bb0:	1000001b 	flushda	0(r2)
   82bb4:	e0bffc17 	ldw	r2,-16(fp)
   82bb8:	10800804 	addi	r2,r2,32
   82bbc:	e0bffc15 	stw	r2,-16(fp)
   82bc0:	e0fffc17 	ldw	r3,-16(fp)
   82bc4:	e0bffd17 	ldw	r2,-12(fp)
   82bc8:	18bff836 	bltu	r3,r2,82bac <__alt_mem_RAM_block+0xfff813ac>
   82bcc:	e0bffe17 	ldw	r2,-8(fp)
   82bd0:	108007cc 	andi	r2,r2,31
   82bd4:	10000226 	beq	r2,zero,82be0 <alt_dcache_flush+0x64>
   82bd8:	e0bffc17 	ldw	r2,-16(fp)
   82bdc:	1000001b 	flushda	0(r2)
   82be0:	0001883a 	nop
   82be4:	e037883a 	mov	sp,fp
   82be8:	df000017 	ldw	fp,0(sp)
   82bec:	dec00104 	addi	sp,sp,4
   82bf0:	f800283a 	ret

00082bf4 <alt_dcache_flush_all>:
   82bf4:	defffe04 	addi	sp,sp,-8
   82bf8:	df000115 	stw	fp,4(sp)
   82bfc:	df000104 	addi	fp,sp,4
   82c00:	e03fff15 	stw	zero,-4(fp)
   82c04:	00000506 	br	82c1c <alt_dcache_flush_all+0x28>
   82c08:	e0bfff17 	ldw	r2,-4(fp)
   82c0c:	1000003b 	flushd	0(r2)
   82c10:	e0bfff17 	ldw	r2,-4(fp)
   82c14:	10800804 	addi	r2,r2,32
   82c18:	e0bfff15 	stw	r2,-4(fp)
   82c1c:	e0bfff17 	ldw	r2,-4(fp)
   82c20:	10840030 	cmpltui	r2,r2,4096
   82c24:	103ff81e 	bne	r2,zero,82c08 <__alt_mem_RAM_block+0xfff81408>
   82c28:	0001883a 	nop
   82c2c:	e037883a 	mov	sp,fp
   82c30:	df000017 	ldw	fp,0(sp)
   82c34:	dec00104 	addi	sp,sp,4
   82c38:	f800283a 	ret

00082c3c <alt_dev_null_write>:
   82c3c:	defffc04 	addi	sp,sp,-16
   82c40:	df000315 	stw	fp,12(sp)
   82c44:	df000304 	addi	fp,sp,12
   82c48:	e13ffd15 	stw	r4,-12(fp)
   82c4c:	e17ffe15 	stw	r5,-8(fp)
   82c50:	e1bfff15 	stw	r6,-4(fp)
   82c54:	e0bfff17 	ldw	r2,-4(fp)
   82c58:	e037883a 	mov	sp,fp
   82c5c:	df000017 	ldw	fp,0(sp)
   82c60:	dec00104 	addi	sp,sp,4
   82c64:	f800283a 	ret

00082c68 <alt_get_errno>:
   82c68:	defffe04 	addi	sp,sp,-8
   82c6c:	dfc00115 	stw	ra,4(sp)
   82c70:	df000015 	stw	fp,0(sp)
   82c74:	d839883a 	mov	fp,sp
   82c78:	d0a00a17 	ldw	r2,-32728(gp)
   82c7c:	10000326 	beq	r2,zero,82c8c <alt_get_errno+0x24>
   82c80:	d0a00a17 	ldw	r2,-32728(gp)
   82c84:	103ee83a 	callr	r2
   82c88:	00000106 	br	82c90 <alt_get_errno+0x28>
   82c8c:	d0a85004 	addi	r2,gp,-24256
   82c90:	e037883a 	mov	sp,fp
   82c94:	dfc00117 	ldw	ra,4(sp)
   82c98:	df000017 	ldw	fp,0(sp)
   82c9c:	dec00204 	addi	sp,sp,8
   82ca0:	f800283a 	ret

00082ca4 <alt_dev_llist_insert>:
   82ca4:	defffa04 	addi	sp,sp,-24
   82ca8:	dfc00515 	stw	ra,20(sp)
   82cac:	df000415 	stw	fp,16(sp)
   82cb0:	df000404 	addi	fp,sp,16
   82cb4:	e13ffe15 	stw	r4,-8(fp)
   82cb8:	e17fff15 	stw	r5,-4(fp)
   82cbc:	e0bffe17 	ldw	r2,-8(fp)
   82cc0:	10000326 	beq	r2,zero,82cd0 <alt_dev_llist_insert+0x2c>
   82cc4:	e0bffe17 	ldw	r2,-8(fp)
   82cc8:	10800217 	ldw	r2,8(r2)
   82ccc:	1000061e 	bne	r2,zero,82ce8 <alt_dev_llist_insert+0x44>
   82cd0:	0082c680 	call	82c68 <alt_get_errno>
   82cd4:	1007883a 	mov	r3,r2
   82cd8:	00800584 	movi	r2,22
   82cdc:	18800015 	stw	r2,0(r3)
   82ce0:	00bffa84 	movi	r2,-22
   82ce4:	00001306 	br	82d34 <alt_dev_llist_insert+0x90>
   82ce8:	e0bffe17 	ldw	r2,-8(fp)
   82cec:	e0ffff17 	ldw	r3,-4(fp)
   82cf0:	e0fffc15 	stw	r3,-16(fp)
   82cf4:	e0bffd15 	stw	r2,-12(fp)
   82cf8:	e0bffd17 	ldw	r2,-12(fp)
   82cfc:	e0fffc17 	ldw	r3,-16(fp)
   82d00:	10c00115 	stw	r3,4(r2)
   82d04:	e0bffc17 	ldw	r2,-16(fp)
   82d08:	10c00017 	ldw	r3,0(r2)
   82d0c:	e0bffd17 	ldw	r2,-12(fp)
   82d10:	10c00015 	stw	r3,0(r2)
   82d14:	e0bffc17 	ldw	r2,-16(fp)
   82d18:	10800017 	ldw	r2,0(r2)
   82d1c:	e0fffd17 	ldw	r3,-12(fp)
   82d20:	10c00115 	stw	r3,4(r2)
   82d24:	e0bffc17 	ldw	r2,-16(fp)
   82d28:	e0fffd17 	ldw	r3,-12(fp)
   82d2c:	10c00015 	stw	r3,0(r2)
   82d30:	0005883a 	mov	r2,zero
   82d34:	e037883a 	mov	sp,fp
   82d38:	dfc00117 	ldw	ra,4(sp)
   82d3c:	df000017 	ldw	fp,0(sp)
   82d40:	dec00204 	addi	sp,sp,8
   82d44:	f800283a 	ret

00082d48 <_do_ctors>:
   82d48:	defffd04 	addi	sp,sp,-12
   82d4c:	dfc00215 	stw	ra,8(sp)
   82d50:	df000115 	stw	fp,4(sp)
   82d54:	df000104 	addi	fp,sp,4
   82d58:	00800234 	movhi	r2,8
   82d5c:	1098b504 	addi	r2,r2,25300
   82d60:	e0bfff15 	stw	r2,-4(fp)
   82d64:	00000606 	br	82d80 <_do_ctors+0x38>
   82d68:	e0bfff17 	ldw	r2,-4(fp)
   82d6c:	10800017 	ldw	r2,0(r2)
   82d70:	103ee83a 	callr	r2
   82d74:	e0bfff17 	ldw	r2,-4(fp)
   82d78:	10bfff04 	addi	r2,r2,-4
   82d7c:	e0bfff15 	stw	r2,-4(fp)
   82d80:	e0ffff17 	ldw	r3,-4(fp)
   82d84:	00800234 	movhi	r2,8
   82d88:	1098b604 	addi	r2,r2,25304
   82d8c:	18bff62e 	bgeu	r3,r2,82d68 <__alt_mem_RAM_block+0xfff81568>
   82d90:	0001883a 	nop
   82d94:	e037883a 	mov	sp,fp
   82d98:	dfc00117 	ldw	ra,4(sp)
   82d9c:	df000017 	ldw	fp,0(sp)
   82da0:	dec00204 	addi	sp,sp,8
   82da4:	f800283a 	ret

00082da8 <_do_dtors>:
   82da8:	defffd04 	addi	sp,sp,-12
   82dac:	dfc00215 	stw	ra,8(sp)
   82db0:	df000115 	stw	fp,4(sp)
   82db4:	df000104 	addi	fp,sp,4
   82db8:	00800234 	movhi	r2,8
   82dbc:	1098b504 	addi	r2,r2,25300
   82dc0:	e0bfff15 	stw	r2,-4(fp)
   82dc4:	00000606 	br	82de0 <_do_dtors+0x38>
   82dc8:	e0bfff17 	ldw	r2,-4(fp)
   82dcc:	10800017 	ldw	r2,0(r2)
   82dd0:	103ee83a 	callr	r2
   82dd4:	e0bfff17 	ldw	r2,-4(fp)
   82dd8:	10bfff04 	addi	r2,r2,-4
   82ddc:	e0bfff15 	stw	r2,-4(fp)
   82de0:	e0ffff17 	ldw	r3,-4(fp)
   82de4:	00800234 	movhi	r2,8
   82de8:	1098b604 	addi	r2,r2,25304
   82dec:	18bff62e 	bgeu	r3,r2,82dc8 <__alt_mem_RAM_block+0xfff815c8>
   82df0:	0001883a 	nop
   82df4:	e037883a 	mov	sp,fp
   82df8:	dfc00117 	ldw	ra,4(sp)
   82dfc:	df000017 	ldw	fp,0(sp)
   82e00:	dec00204 	addi	sp,sp,8
   82e04:	f800283a 	ret

00082e08 <alt_find_dev>:
   82e08:	defffa04 	addi	sp,sp,-24
   82e0c:	dfc00515 	stw	ra,20(sp)
   82e10:	df000415 	stw	fp,16(sp)
   82e14:	df000404 	addi	fp,sp,16
   82e18:	e13ffe15 	stw	r4,-8(fp)
   82e1c:	e17fff15 	stw	r5,-4(fp)
   82e20:	e0bfff17 	ldw	r2,-4(fp)
   82e24:	10800017 	ldw	r2,0(r2)
   82e28:	e0bffc15 	stw	r2,-16(fp)
   82e2c:	e13ffe17 	ldw	r4,-8(fp)
   82e30:	0083adc0 	call	83adc <strlen>
   82e34:	10800044 	addi	r2,r2,1
   82e38:	e0bffd15 	stw	r2,-12(fp)
   82e3c:	00000d06 	br	82e74 <alt_find_dev+0x6c>
   82e40:	e0bffc17 	ldw	r2,-16(fp)
   82e44:	10800217 	ldw	r2,8(r2)
   82e48:	e0fffd17 	ldw	r3,-12(fp)
   82e4c:	180d883a 	mov	r6,r3
   82e50:	e17ffe17 	ldw	r5,-8(fp)
   82e54:	1009883a 	mov	r4,r2
   82e58:	00837b00 	call	837b0 <memcmp>
   82e5c:	1000021e 	bne	r2,zero,82e68 <alt_find_dev+0x60>
   82e60:	e0bffc17 	ldw	r2,-16(fp)
   82e64:	00000706 	br	82e84 <alt_find_dev+0x7c>
   82e68:	e0bffc17 	ldw	r2,-16(fp)
   82e6c:	10800017 	ldw	r2,0(r2)
   82e70:	e0bffc15 	stw	r2,-16(fp)
   82e74:	e0fffc17 	ldw	r3,-16(fp)
   82e78:	e0bfff17 	ldw	r2,-4(fp)
   82e7c:	18bff01e 	bne	r3,r2,82e40 <__alt_mem_RAM_block+0xfff81640>
   82e80:	0005883a 	mov	r2,zero
   82e84:	e037883a 	mov	sp,fp
   82e88:	dfc00117 	ldw	ra,4(sp)
   82e8c:	df000017 	ldw	fp,0(sp)
   82e90:	dec00204 	addi	sp,sp,8
   82e94:	f800283a 	ret

00082e98 <alt_icache_flush_all>:
   82e98:	defffe04 	addi	sp,sp,-8
   82e9c:	dfc00115 	stw	ra,4(sp)
   82ea0:	df000015 	stw	fp,0(sp)
   82ea4:	d839883a 	mov	fp,sp
   82ea8:	01440004 	movi	r5,4096
   82eac:	0009883a 	mov	r4,zero
   82eb0:	00836d40 	call	836d4 <alt_icache_flush>
   82eb4:	0001883a 	nop
   82eb8:	e037883a 	mov	sp,fp
   82ebc:	dfc00117 	ldw	ra,4(sp)
   82ec0:	df000017 	ldw	fp,0(sp)
   82ec4:	dec00204 	addi	sp,sp,8
   82ec8:	f800283a 	ret

00082ecc <alt_exception_cause_generated_bad_addr>:
   82ecc:	defffe04 	addi	sp,sp,-8
   82ed0:	df000115 	stw	fp,4(sp)
   82ed4:	df000104 	addi	fp,sp,4
   82ed8:	e13fff15 	stw	r4,-4(fp)
   82edc:	e0bfff17 	ldw	r2,-4(fp)
   82ee0:	10bffe84 	addi	r2,r2,-6
   82ee4:	10c00428 	cmpgeui	r3,r2,16
   82ee8:	18001a1e 	bne	r3,zero,82f54 <alt_exception_cause_generated_bad_addr+0x88>
   82eec:	100690ba 	slli	r3,r2,2
   82ef0:	00800234 	movhi	r2,8
   82ef4:	108bc104 	addi	r2,r2,12036
   82ef8:	1885883a 	add	r2,r3,r2
   82efc:	10800017 	ldw	r2,0(r2)
   82f00:	1000683a 	jmp	r2
   82f04:	00082f44 	movi	zero,8381
   82f08:	00082f44 	movi	zero,8381
   82f0c:	00082f54 	movui	zero,8381
   82f10:	00082f54 	movui	zero,8381
   82f14:	00082f54 	movui	zero,8381
   82f18:	00082f44 	movi	zero,8381
   82f1c:	00082f4c 	andi	zero,zero,8381
   82f20:	00082f54 	movui	zero,8381
   82f24:	00082f44 	movi	zero,8381
   82f28:	00082f44 	movi	zero,8381
   82f2c:	00082f54 	movui	zero,8381
   82f30:	00082f44 	movi	zero,8381
   82f34:	00082f4c 	andi	zero,zero,8381
   82f38:	00082f54 	movui	zero,8381
   82f3c:	00082f54 	movui	zero,8381
   82f40:	00082f44 	movi	zero,8381
   82f44:	00800044 	movi	r2,1
   82f48:	00000306 	br	82f58 <alt_exception_cause_generated_bad_addr+0x8c>
   82f4c:	0005883a 	mov	r2,zero
   82f50:	00000106 	br	82f58 <alt_exception_cause_generated_bad_addr+0x8c>
   82f54:	0005883a 	mov	r2,zero
   82f58:	e037883a 	mov	sp,fp
   82f5c:	df000017 	ldw	fp,0(sp)
   82f60:	dec00104 	addi	sp,sp,4
   82f64:	f800283a 	ret

00082f68 <alt_open_fd>:
   82f68:	defff904 	addi	sp,sp,-28
   82f6c:	dfc00615 	stw	ra,24(sp)
   82f70:	df000515 	stw	fp,20(sp)
   82f74:	df000504 	addi	fp,sp,20
   82f78:	e13ffc15 	stw	r4,-16(fp)
   82f7c:	e17ffd15 	stw	r5,-12(fp)
   82f80:	e1bffe15 	stw	r6,-8(fp)
   82f84:	e1ffff15 	stw	r7,-4(fp)
   82f88:	e1bfff17 	ldw	r6,-4(fp)
   82f8c:	e17ffe17 	ldw	r5,-8(fp)
   82f90:	e13ffd17 	ldw	r4,-12(fp)
   82f94:	00831a80 	call	831a8 <open>
   82f98:	e0bffb15 	stw	r2,-20(fp)
   82f9c:	e0bffb17 	ldw	r2,-20(fp)
   82fa0:	10001c16 	blt	r2,zero,83014 <alt_open_fd+0xac>
   82fa4:	00800234 	movhi	r2,8
   82fa8:	109edf04 	addi	r2,r2,31612
   82fac:	e0fffb17 	ldw	r3,-20(fp)
   82fb0:	18c00324 	muli	r3,r3,12
   82fb4:	10c5883a 	add	r2,r2,r3
   82fb8:	10c00017 	ldw	r3,0(r2)
   82fbc:	e0bffc17 	ldw	r2,-16(fp)
   82fc0:	10c00015 	stw	r3,0(r2)
   82fc4:	00800234 	movhi	r2,8
   82fc8:	109edf04 	addi	r2,r2,31612
   82fcc:	e0fffb17 	ldw	r3,-20(fp)
   82fd0:	18c00324 	muli	r3,r3,12
   82fd4:	10c5883a 	add	r2,r2,r3
   82fd8:	10800104 	addi	r2,r2,4
   82fdc:	10c00017 	ldw	r3,0(r2)
   82fe0:	e0bffc17 	ldw	r2,-16(fp)
   82fe4:	10c00115 	stw	r3,4(r2)
   82fe8:	00800234 	movhi	r2,8
   82fec:	109edf04 	addi	r2,r2,31612
   82ff0:	e0fffb17 	ldw	r3,-20(fp)
   82ff4:	18c00324 	muli	r3,r3,12
   82ff8:	10c5883a 	add	r2,r2,r3
   82ffc:	10800204 	addi	r2,r2,8
   83000:	10c00017 	ldw	r3,0(r2)
   83004:	e0bffc17 	ldw	r2,-16(fp)
   83008:	10c00215 	stw	r3,8(r2)
   8300c:	e13ffb17 	ldw	r4,-20(fp)
   83010:	00832fc0 	call	832fc <alt_release_fd>
   83014:	0001883a 	nop
   83018:	e037883a 	mov	sp,fp
   8301c:	dfc00117 	ldw	ra,4(sp)
   83020:	df000017 	ldw	fp,0(sp)
   83024:	dec00204 	addi	sp,sp,8
   83028:	f800283a 	ret

0008302c <alt_io_redirect>:
   8302c:	defffb04 	addi	sp,sp,-20
   83030:	dfc00415 	stw	ra,16(sp)
   83034:	df000315 	stw	fp,12(sp)
   83038:	df000304 	addi	fp,sp,12
   8303c:	e13ffd15 	stw	r4,-12(fp)
   83040:	e17ffe15 	stw	r5,-8(fp)
   83044:	e1bfff15 	stw	r6,-4(fp)
   83048:	01c07fc4 	movi	r7,511
   8304c:	01800044 	movi	r6,1
   83050:	e17ffd17 	ldw	r5,-12(fp)
   83054:	01000234 	movhi	r4,8
   83058:	211ee204 	addi	r4,r4,31624
   8305c:	0082f680 	call	82f68 <alt_open_fd>
   83060:	01c07fc4 	movi	r7,511
   83064:	000d883a 	mov	r6,zero
   83068:	e17ffe17 	ldw	r5,-8(fp)
   8306c:	01000234 	movhi	r4,8
   83070:	211edf04 	addi	r4,r4,31612
   83074:	0082f680 	call	82f68 <alt_open_fd>
   83078:	01c07fc4 	movi	r7,511
   8307c:	01800044 	movi	r6,1
   83080:	e17fff17 	ldw	r5,-4(fp)
   83084:	01000234 	movhi	r4,8
   83088:	211ee504 	addi	r4,r4,31636
   8308c:	0082f680 	call	82f68 <alt_open_fd>
   83090:	0001883a 	nop
   83094:	e037883a 	mov	sp,fp
   83098:	dfc00117 	ldw	ra,4(sp)
   8309c:	df000017 	ldw	fp,0(sp)
   830a0:	dec00204 	addi	sp,sp,8
   830a4:	f800283a 	ret

000830a8 <alt_get_errno>:
   830a8:	defffe04 	addi	sp,sp,-8
   830ac:	dfc00115 	stw	ra,4(sp)
   830b0:	df000015 	stw	fp,0(sp)
   830b4:	d839883a 	mov	fp,sp
   830b8:	d0a00a17 	ldw	r2,-32728(gp)
   830bc:	10000326 	beq	r2,zero,830cc <alt_get_errno+0x24>
   830c0:	d0a00a17 	ldw	r2,-32728(gp)
   830c4:	103ee83a 	callr	r2
   830c8:	00000106 	br	830d0 <alt_get_errno+0x28>
   830cc:	d0a85004 	addi	r2,gp,-24256
   830d0:	e037883a 	mov	sp,fp
   830d4:	dfc00117 	ldw	ra,4(sp)
   830d8:	df000017 	ldw	fp,0(sp)
   830dc:	dec00204 	addi	sp,sp,8
   830e0:	f800283a 	ret

000830e4 <alt_file_locked>:
   830e4:	defffd04 	addi	sp,sp,-12
   830e8:	df000215 	stw	fp,8(sp)
   830ec:	df000204 	addi	fp,sp,8
   830f0:	e13fff15 	stw	r4,-4(fp)
   830f4:	e0bfff17 	ldw	r2,-4(fp)
   830f8:	10800217 	ldw	r2,8(r2)
   830fc:	10d00034 	orhi	r3,r2,16384
   83100:	e0bfff17 	ldw	r2,-4(fp)
   83104:	10c00215 	stw	r3,8(r2)
   83108:	e03ffe15 	stw	zero,-8(fp)
   8310c:	00001d06 	br	83184 <alt_file_locked+0xa0>
   83110:	00800234 	movhi	r2,8
   83114:	109edf04 	addi	r2,r2,31612
   83118:	e0fffe17 	ldw	r3,-8(fp)
   8311c:	18c00324 	muli	r3,r3,12
   83120:	10c5883a 	add	r2,r2,r3
   83124:	10c00017 	ldw	r3,0(r2)
   83128:	e0bfff17 	ldw	r2,-4(fp)
   8312c:	10800017 	ldw	r2,0(r2)
   83130:	1880111e 	bne	r3,r2,83178 <alt_file_locked+0x94>
   83134:	00800234 	movhi	r2,8
   83138:	109edf04 	addi	r2,r2,31612
   8313c:	e0fffe17 	ldw	r3,-8(fp)
   83140:	18c00324 	muli	r3,r3,12
   83144:	10c5883a 	add	r2,r2,r3
   83148:	10800204 	addi	r2,r2,8
   8314c:	10800017 	ldw	r2,0(r2)
   83150:	1000090e 	bge	r2,zero,83178 <alt_file_locked+0x94>
   83154:	e0bffe17 	ldw	r2,-8(fp)
   83158:	10c00324 	muli	r3,r2,12
   8315c:	00800234 	movhi	r2,8
   83160:	109edf04 	addi	r2,r2,31612
   83164:	1887883a 	add	r3,r3,r2
   83168:	e0bfff17 	ldw	r2,-4(fp)
   8316c:	18800226 	beq	r3,r2,83178 <alt_file_locked+0x94>
   83170:	00bffcc4 	movi	r2,-13
   83174:	00000806 	br	83198 <alt_file_locked+0xb4>
   83178:	e0bffe17 	ldw	r2,-8(fp)
   8317c:	10800044 	addi	r2,r2,1
   83180:	e0bffe15 	stw	r2,-8(fp)
   83184:	d0a00917 	ldw	r2,-32732(gp)
   83188:	1007883a 	mov	r3,r2
   8318c:	e0bffe17 	ldw	r2,-8(fp)
   83190:	18bfdf2e 	bgeu	r3,r2,83110 <__alt_mem_RAM_block+0xfff81910>
   83194:	0005883a 	mov	r2,zero
   83198:	e037883a 	mov	sp,fp
   8319c:	df000017 	ldw	fp,0(sp)
   831a0:	dec00104 	addi	sp,sp,4
   831a4:	f800283a 	ret

000831a8 <open>:
   831a8:	defff604 	addi	sp,sp,-40
   831ac:	dfc00915 	stw	ra,36(sp)
   831b0:	df000815 	stw	fp,32(sp)
   831b4:	df000804 	addi	fp,sp,32
   831b8:	e13ffd15 	stw	r4,-12(fp)
   831bc:	e17ffe15 	stw	r5,-8(fp)
   831c0:	e1bfff15 	stw	r6,-4(fp)
   831c4:	00bfffc4 	movi	r2,-1
   831c8:	e0bff915 	stw	r2,-28(fp)
   831cc:	00bffb44 	movi	r2,-19
   831d0:	e0bffa15 	stw	r2,-24(fp)
   831d4:	e03ffb15 	stw	zero,-20(fp)
   831d8:	d1600704 	addi	r5,gp,-32740
   831dc:	e13ffd17 	ldw	r4,-12(fp)
   831e0:	0082e080 	call	82e08 <alt_find_dev>
   831e4:	e0bff815 	stw	r2,-32(fp)
   831e8:	e0bff817 	ldw	r2,-32(fp)
   831ec:	1000051e 	bne	r2,zero,83204 <open+0x5c>
   831f0:	e13ffd17 	ldw	r4,-12(fp)
   831f4:	00835280 	call	83528 <alt_find_file>
   831f8:	e0bff815 	stw	r2,-32(fp)
   831fc:	00800044 	movi	r2,1
   83200:	e0bffb15 	stw	r2,-20(fp)
   83204:	e0bff817 	ldw	r2,-32(fp)
   83208:	10002926 	beq	r2,zero,832b0 <open+0x108>
   8320c:	e13ff817 	ldw	r4,-32(fp)
   83210:	00836300 	call	83630 <alt_get_fd>
   83214:	e0bff915 	stw	r2,-28(fp)
   83218:	e0bff917 	ldw	r2,-28(fp)
   8321c:	1000030e 	bge	r2,zero,8322c <open+0x84>
   83220:	e0bff917 	ldw	r2,-28(fp)
   83224:	e0bffa15 	stw	r2,-24(fp)
   83228:	00002306 	br	832b8 <open+0x110>
   8322c:	e0bff917 	ldw	r2,-28(fp)
   83230:	10c00324 	muli	r3,r2,12
   83234:	00800234 	movhi	r2,8
   83238:	109edf04 	addi	r2,r2,31612
   8323c:	1885883a 	add	r2,r3,r2
   83240:	e0bffc15 	stw	r2,-16(fp)
   83244:	e0fffe17 	ldw	r3,-8(fp)
   83248:	00900034 	movhi	r2,16384
   8324c:	10bfffc4 	addi	r2,r2,-1
   83250:	1886703a 	and	r3,r3,r2
   83254:	e0bffc17 	ldw	r2,-16(fp)
   83258:	10c00215 	stw	r3,8(r2)
   8325c:	e0bffb17 	ldw	r2,-20(fp)
   83260:	1000051e 	bne	r2,zero,83278 <open+0xd0>
   83264:	e13ffc17 	ldw	r4,-16(fp)
   83268:	00830e40 	call	830e4 <alt_file_locked>
   8326c:	e0bffa15 	stw	r2,-24(fp)
   83270:	e0bffa17 	ldw	r2,-24(fp)
   83274:	10001016 	blt	r2,zero,832b8 <open+0x110>
   83278:	e0bff817 	ldw	r2,-32(fp)
   8327c:	10800317 	ldw	r2,12(r2)
   83280:	10000826 	beq	r2,zero,832a4 <open+0xfc>
   83284:	e0bff817 	ldw	r2,-32(fp)
   83288:	10800317 	ldw	r2,12(r2)
   8328c:	e1ffff17 	ldw	r7,-4(fp)
   83290:	e1bffe17 	ldw	r6,-8(fp)
   83294:	e17ffd17 	ldw	r5,-12(fp)
   83298:	e13ffc17 	ldw	r4,-16(fp)
   8329c:	103ee83a 	callr	r2
   832a0:	00000106 	br	832a8 <open+0x100>
   832a4:	0005883a 	mov	r2,zero
   832a8:	e0bffa15 	stw	r2,-24(fp)
   832ac:	00000206 	br	832b8 <open+0x110>
   832b0:	00bffb44 	movi	r2,-19
   832b4:	e0bffa15 	stw	r2,-24(fp)
   832b8:	e0bffa17 	ldw	r2,-24(fp)
   832bc:	1000090e 	bge	r2,zero,832e4 <open+0x13c>
   832c0:	e13ff917 	ldw	r4,-28(fp)
   832c4:	00832fc0 	call	832fc <alt_release_fd>
   832c8:	00830a80 	call	830a8 <alt_get_errno>
   832cc:	1007883a 	mov	r3,r2
   832d0:	e0bffa17 	ldw	r2,-24(fp)
   832d4:	0085c83a 	sub	r2,zero,r2
   832d8:	18800015 	stw	r2,0(r3)
   832dc:	00bfffc4 	movi	r2,-1
   832e0:	00000106 	br	832e8 <open+0x140>
   832e4:	e0bff917 	ldw	r2,-28(fp)
   832e8:	e037883a 	mov	sp,fp
   832ec:	dfc00117 	ldw	ra,4(sp)
   832f0:	df000017 	ldw	fp,0(sp)
   832f4:	dec00204 	addi	sp,sp,8
   832f8:	f800283a 	ret

000832fc <alt_release_fd>:
   832fc:	defffe04 	addi	sp,sp,-8
   83300:	df000115 	stw	fp,4(sp)
   83304:	df000104 	addi	fp,sp,4
   83308:	e13fff15 	stw	r4,-4(fp)
   8330c:	e0bfff17 	ldw	r2,-4(fp)
   83310:	108000d0 	cmplti	r2,r2,3
   83314:	10000d1e 	bne	r2,zero,8334c <alt_release_fd+0x50>
   83318:	00800234 	movhi	r2,8
   8331c:	109edf04 	addi	r2,r2,31612
   83320:	e0ffff17 	ldw	r3,-4(fp)
   83324:	18c00324 	muli	r3,r3,12
   83328:	10c5883a 	add	r2,r2,r3
   8332c:	10800204 	addi	r2,r2,8
   83330:	10000015 	stw	zero,0(r2)
   83334:	00800234 	movhi	r2,8
   83338:	109edf04 	addi	r2,r2,31612
   8333c:	e0ffff17 	ldw	r3,-4(fp)
   83340:	18c00324 	muli	r3,r3,12
   83344:	10c5883a 	add	r2,r2,r3
   83348:	10000015 	stw	zero,0(r2)
   8334c:	0001883a 	nop
   83350:	e037883a 	mov	sp,fp
   83354:	df000017 	ldw	fp,0(sp)
   83358:	dec00104 	addi	sp,sp,4
   8335c:	f800283a 	ret

00083360 <alt_alarm_stop>:
   83360:	defffa04 	addi	sp,sp,-24
   83364:	df000515 	stw	fp,20(sp)
   83368:	df000504 	addi	fp,sp,20
   8336c:	e13fff15 	stw	r4,-4(fp)
   83370:	0005303a 	rdctl	r2,status
   83374:	e0bffc15 	stw	r2,-16(fp)
   83378:	e0fffc17 	ldw	r3,-16(fp)
   8337c:	00bfff84 	movi	r2,-2
   83380:	1884703a 	and	r2,r3,r2
   83384:	1001703a 	wrctl	status,r2
   83388:	e0bffc17 	ldw	r2,-16(fp)
   8338c:	e0bffb15 	stw	r2,-20(fp)
   83390:	e0bfff17 	ldw	r2,-4(fp)
   83394:	e0bffd15 	stw	r2,-12(fp)
   83398:	e0bffd17 	ldw	r2,-12(fp)
   8339c:	10800017 	ldw	r2,0(r2)
   833a0:	e0fffd17 	ldw	r3,-12(fp)
   833a4:	18c00117 	ldw	r3,4(r3)
   833a8:	10c00115 	stw	r3,4(r2)
   833ac:	e0bffd17 	ldw	r2,-12(fp)
   833b0:	10800117 	ldw	r2,4(r2)
   833b4:	e0fffd17 	ldw	r3,-12(fp)
   833b8:	18c00017 	ldw	r3,0(r3)
   833bc:	10c00015 	stw	r3,0(r2)
   833c0:	e0bffd17 	ldw	r2,-12(fp)
   833c4:	e0fffd17 	ldw	r3,-12(fp)
   833c8:	10c00115 	stw	r3,4(r2)
   833cc:	e0bffd17 	ldw	r2,-12(fp)
   833d0:	e0fffd17 	ldw	r3,-12(fp)
   833d4:	10c00015 	stw	r3,0(r2)
   833d8:	e0bffb17 	ldw	r2,-20(fp)
   833dc:	e0bffe15 	stw	r2,-8(fp)
   833e0:	e0bffe17 	ldw	r2,-8(fp)
   833e4:	1001703a 	wrctl	status,r2
   833e8:	0001883a 	nop
   833ec:	e037883a 	mov	sp,fp
   833f0:	df000017 	ldw	fp,0(sp)
   833f4:	dec00104 	addi	sp,sp,4
   833f8:	f800283a 	ret

000833fc <alt_tick>:
   833fc:	defffb04 	addi	sp,sp,-20
   83400:	dfc00415 	stw	ra,16(sp)
   83404:	df000315 	stw	fp,12(sp)
   83408:	df000304 	addi	fp,sp,12
   8340c:	d0a00b17 	ldw	r2,-32724(gp)
   83410:	e0bffd15 	stw	r2,-12(fp)
   83414:	d0a84f17 	ldw	r2,-24260(gp)
   83418:	10800044 	addi	r2,r2,1
   8341c:	d0a84f15 	stw	r2,-24260(gp)
   83420:	00002e06 	br	834dc <alt_tick+0xe0>
   83424:	e0bffd17 	ldw	r2,-12(fp)
   83428:	10800017 	ldw	r2,0(r2)
   8342c:	e0bffe15 	stw	r2,-8(fp)
   83430:	e0bffd17 	ldw	r2,-12(fp)
   83434:	10800403 	ldbu	r2,16(r2)
   83438:	10803fcc 	andi	r2,r2,255
   8343c:	10000426 	beq	r2,zero,83450 <alt_tick+0x54>
   83440:	d0a84f17 	ldw	r2,-24260(gp)
   83444:	1000021e 	bne	r2,zero,83450 <alt_tick+0x54>
   83448:	e0bffd17 	ldw	r2,-12(fp)
   8344c:	10000405 	stb	zero,16(r2)
   83450:	e0bffd17 	ldw	r2,-12(fp)
   83454:	10800217 	ldw	r2,8(r2)
   83458:	d0e84f17 	ldw	r3,-24260(gp)
   8345c:	18801d36 	bltu	r3,r2,834d4 <alt_tick+0xd8>
   83460:	e0bffd17 	ldw	r2,-12(fp)
   83464:	10800403 	ldbu	r2,16(r2)
   83468:	10803fcc 	andi	r2,r2,255
   8346c:	1000191e 	bne	r2,zero,834d4 <alt_tick+0xd8>
   83470:	e0bffd17 	ldw	r2,-12(fp)
   83474:	10800317 	ldw	r2,12(r2)
   83478:	e0fffd17 	ldw	r3,-12(fp)
   8347c:	18c00517 	ldw	r3,20(r3)
   83480:	1809883a 	mov	r4,r3
   83484:	103ee83a 	callr	r2
   83488:	e0bfff15 	stw	r2,-4(fp)
   8348c:	e0bfff17 	ldw	r2,-4(fp)
   83490:	1000031e 	bne	r2,zero,834a0 <alt_tick+0xa4>
   83494:	e13ffd17 	ldw	r4,-12(fp)
   83498:	00833600 	call	83360 <alt_alarm_stop>
   8349c:	00000d06 	br	834d4 <alt_tick+0xd8>
   834a0:	e0bffd17 	ldw	r2,-12(fp)
   834a4:	10c00217 	ldw	r3,8(r2)
   834a8:	e0bfff17 	ldw	r2,-4(fp)
   834ac:	1887883a 	add	r3,r3,r2
   834b0:	e0bffd17 	ldw	r2,-12(fp)
   834b4:	10c00215 	stw	r3,8(r2)
   834b8:	e0bffd17 	ldw	r2,-12(fp)
   834bc:	10c00217 	ldw	r3,8(r2)
   834c0:	d0a84f17 	ldw	r2,-24260(gp)
   834c4:	1880032e 	bgeu	r3,r2,834d4 <alt_tick+0xd8>
   834c8:	e0bffd17 	ldw	r2,-12(fp)
   834cc:	00c00044 	movi	r3,1
   834d0:	10c00405 	stb	r3,16(r2)
   834d4:	e0bffe17 	ldw	r2,-8(fp)
   834d8:	e0bffd15 	stw	r2,-12(fp)
   834dc:	e0fffd17 	ldw	r3,-12(fp)
   834e0:	d0a00b04 	addi	r2,gp,-32724
   834e4:	18bfcf1e 	bne	r3,r2,83424 <__alt_mem_RAM_block+0xfff81c24>
   834e8:	0001883a 	nop
   834ec:	0001883a 	nop
   834f0:	e037883a 	mov	sp,fp
   834f4:	dfc00117 	ldw	ra,4(sp)
   834f8:	df000017 	ldw	fp,0(sp)
   834fc:	dec00204 	addi	sp,sp,8
   83500:	f800283a 	ret

00083504 <altera_nios2_gen2_irq_init>:
   83504:	deffff04 	addi	sp,sp,-4
   83508:	df000015 	stw	fp,0(sp)
   8350c:	d839883a 	mov	fp,sp
   83510:	000170fa 	wrctl	ienable,zero
   83514:	0001883a 	nop
   83518:	e037883a 	mov	sp,fp
   8351c:	df000017 	ldw	fp,0(sp)
   83520:	dec00104 	addi	sp,sp,4
   83524:	f800283a 	ret

00083528 <alt_find_file>:
   83528:	defffb04 	addi	sp,sp,-20
   8352c:	dfc00415 	stw	ra,16(sp)
   83530:	df000315 	stw	fp,12(sp)
   83534:	df000304 	addi	fp,sp,12
   83538:	e13fff15 	stw	r4,-4(fp)
   8353c:	d0a00517 	ldw	r2,-32748(gp)
   83540:	e0bffd15 	stw	r2,-12(fp)
   83544:	00003106 	br	8360c <alt_find_file+0xe4>
   83548:	e0bffd17 	ldw	r2,-12(fp)
   8354c:	10800217 	ldw	r2,8(r2)
   83550:	1009883a 	mov	r4,r2
   83554:	0083adc0 	call	83adc <strlen>
   83558:	e0bffe15 	stw	r2,-8(fp)
   8355c:	e0bffd17 	ldw	r2,-12(fp)
   83560:	10c00217 	ldw	r3,8(r2)
   83564:	e0bffe17 	ldw	r2,-8(fp)
   83568:	10bfffc4 	addi	r2,r2,-1
   8356c:	1885883a 	add	r2,r3,r2
   83570:	10800003 	ldbu	r2,0(r2)
   83574:	10803fcc 	andi	r2,r2,255
   83578:	1080201c 	xori	r2,r2,128
   8357c:	10bfe004 	addi	r2,r2,-128
   83580:	10800bd8 	cmpnei	r2,r2,47
   83584:	1000031e 	bne	r2,zero,83594 <alt_find_file+0x6c>
   83588:	e0bffe17 	ldw	r2,-8(fp)
   8358c:	10bfffc4 	addi	r2,r2,-1
   83590:	e0bffe15 	stw	r2,-8(fp)
   83594:	e0bffe17 	ldw	r2,-8(fp)
   83598:	e0ffff17 	ldw	r3,-4(fp)
   8359c:	1885883a 	add	r2,r3,r2
   835a0:	10800003 	ldbu	r2,0(r2)
   835a4:	10803fcc 	andi	r2,r2,255
   835a8:	1080201c 	xori	r2,r2,128
   835ac:	10bfe004 	addi	r2,r2,-128
   835b0:	10800be0 	cmpeqi	r2,r2,47
   835b4:	1000081e 	bne	r2,zero,835d8 <alt_find_file+0xb0>
   835b8:	e0bffe17 	ldw	r2,-8(fp)
   835bc:	e0ffff17 	ldw	r3,-4(fp)
   835c0:	1885883a 	add	r2,r3,r2
   835c4:	10800003 	ldbu	r2,0(r2)
   835c8:	10803fcc 	andi	r2,r2,255
   835cc:	1080201c 	xori	r2,r2,128
   835d0:	10bfe004 	addi	r2,r2,-128
   835d4:	10000a1e 	bne	r2,zero,83600 <alt_find_file+0xd8>
   835d8:	e0bffd17 	ldw	r2,-12(fp)
   835dc:	10800217 	ldw	r2,8(r2)
   835e0:	e0fffe17 	ldw	r3,-8(fp)
   835e4:	180d883a 	mov	r6,r3
   835e8:	e17fff17 	ldw	r5,-4(fp)
   835ec:	1009883a 	mov	r4,r2
   835f0:	00837b00 	call	837b0 <memcmp>
   835f4:	1000021e 	bne	r2,zero,83600 <alt_find_file+0xd8>
   835f8:	e0bffd17 	ldw	r2,-12(fp)
   835fc:	00000706 	br	8361c <alt_find_file+0xf4>
   83600:	e0bffd17 	ldw	r2,-12(fp)
   83604:	10800017 	ldw	r2,0(r2)
   83608:	e0bffd15 	stw	r2,-12(fp)
   8360c:	e0fffd17 	ldw	r3,-12(fp)
   83610:	d0a00504 	addi	r2,gp,-32748
   83614:	18bfcc1e 	bne	r3,r2,83548 <__alt_mem_RAM_block+0xfff81d48>
   83618:	0005883a 	mov	r2,zero
   8361c:	e037883a 	mov	sp,fp
   83620:	dfc00117 	ldw	ra,4(sp)
   83624:	df000017 	ldw	fp,0(sp)
   83628:	dec00204 	addi	sp,sp,8
   8362c:	f800283a 	ret

00083630 <alt_get_fd>:
   83630:	defffc04 	addi	sp,sp,-16
   83634:	df000315 	stw	fp,12(sp)
   83638:	df000304 	addi	fp,sp,12
   8363c:	e13fff15 	stw	r4,-4(fp)
   83640:	00bffa04 	movi	r2,-24
   83644:	e0bffe15 	stw	r2,-8(fp)
   83648:	e03ffd15 	stw	zero,-12(fp)
   8364c:	00001906 	br	836b4 <alt_get_fd+0x84>
   83650:	00800234 	movhi	r2,8
   83654:	109edf04 	addi	r2,r2,31612
   83658:	e0fffd17 	ldw	r3,-12(fp)
   8365c:	18c00324 	muli	r3,r3,12
   83660:	10c5883a 	add	r2,r2,r3
   83664:	10800017 	ldw	r2,0(r2)
   83668:	10000f1e 	bne	r2,zero,836a8 <alt_get_fd+0x78>
   8366c:	00800234 	movhi	r2,8
   83670:	109edf04 	addi	r2,r2,31612
   83674:	e0fffd17 	ldw	r3,-12(fp)
   83678:	18c00324 	muli	r3,r3,12
   8367c:	10c5883a 	add	r2,r2,r3
   83680:	e0ffff17 	ldw	r3,-4(fp)
   83684:	10c00015 	stw	r3,0(r2)
   83688:	d0e00917 	ldw	r3,-32732(gp)
   8368c:	e0bffd17 	ldw	r2,-12(fp)
   83690:	1880020e 	bge	r3,r2,8369c <alt_get_fd+0x6c>
   83694:	e0bffd17 	ldw	r2,-12(fp)
   83698:	d0a00915 	stw	r2,-32732(gp)
   8369c:	e0bffd17 	ldw	r2,-12(fp)
   836a0:	e0bffe15 	stw	r2,-8(fp)
   836a4:	00000606 	br	836c0 <alt_get_fd+0x90>
   836a8:	e0bffd17 	ldw	r2,-12(fp)
   836ac:	10800044 	addi	r2,r2,1
   836b0:	e0bffd15 	stw	r2,-12(fp)
   836b4:	e0bffd17 	ldw	r2,-12(fp)
   836b8:	10800810 	cmplti	r2,r2,32
   836bc:	103fe41e 	bne	r2,zero,83650 <__alt_mem_RAM_block+0xfff81e50>
   836c0:	e0bffe17 	ldw	r2,-8(fp)
   836c4:	e037883a 	mov	sp,fp
   836c8:	df000017 	ldw	fp,0(sp)
   836cc:	dec00104 	addi	sp,sp,4
   836d0:	f800283a 	ret

000836d4 <alt_icache_flush>:
   836d4:	defffb04 	addi	sp,sp,-20
   836d8:	df000415 	stw	fp,16(sp)
   836dc:	df000404 	addi	fp,sp,16
   836e0:	e13ffe15 	stw	r4,-8(fp)
   836e4:	e17fff15 	stw	r5,-4(fp)
   836e8:	e0bfff17 	ldw	r2,-4(fp)
   836ec:	10840070 	cmpltui	r2,r2,4097
   836f0:	1000021e 	bne	r2,zero,836fc <alt_icache_flush+0x28>
   836f4:	00840004 	movi	r2,4096
   836f8:	e0bfff15 	stw	r2,-4(fp)
   836fc:	e0fffe17 	ldw	r3,-8(fp)
   83700:	e0bfff17 	ldw	r2,-4(fp)
   83704:	1885883a 	add	r2,r3,r2
   83708:	e0bffd15 	stw	r2,-12(fp)
   8370c:	e0bffe17 	ldw	r2,-8(fp)
   83710:	e0bffc15 	stw	r2,-16(fp)
   83714:	00000506 	br	8372c <alt_icache_flush+0x58>
   83718:	e0bffc17 	ldw	r2,-16(fp)
   8371c:	1000603a 	flushi	r2
   83720:	e0bffc17 	ldw	r2,-16(fp)
   83724:	10800804 	addi	r2,r2,32
   83728:	e0bffc15 	stw	r2,-16(fp)
   8372c:	e0fffc17 	ldw	r3,-16(fp)
   83730:	e0bffd17 	ldw	r2,-12(fp)
   83734:	18bff836 	bltu	r3,r2,83718 <__alt_mem_RAM_block+0xfff81f18>
   83738:	e0bffe17 	ldw	r2,-8(fp)
   8373c:	108007cc 	andi	r2,r2,31
   83740:	10000226 	beq	r2,zero,8374c <alt_icache_flush+0x78>
   83744:	e0bffc17 	ldw	r2,-16(fp)
   83748:	1000603a 	flushi	r2
   8374c:	0000203a 	flushp
   83750:	0001883a 	nop
   83754:	e037883a 	mov	sp,fp
   83758:	df000017 	ldw	fp,0(sp)
   8375c:	dec00104 	addi	sp,sp,4
   83760:	f800283a 	ret

00083764 <atexit>:
   83764:	200b883a 	mov	r5,r4
   83768:	000f883a 	mov	r7,zero
   8376c:	000d883a 	mov	r6,zero
   83770:	0009883a 	mov	r4,zero
   83774:	0083e201 	jmpi	83e20 <__register_exitproc>

00083778 <exit>:
   83778:	defffe04 	addi	sp,sp,-8
   8377c:	000b883a 	mov	r5,zero
   83780:	dc000015 	stw	r16,0(sp)
   83784:	dfc00115 	stw	ra,4(sp)
   83788:	2021883a 	mov	r16,r4
   8378c:	0083f380 	call	83f38 <__call_exitprocs>
   83790:	00800274 	movhi	r2,9
   83794:	10a15704 	addi	r2,r2,-31396
   83798:	11000017 	ldw	r4,0(r2)
   8379c:	20800f17 	ldw	r2,60(r4)
   837a0:	10000126 	beq	r2,zero,837a8 <exit+0x30>
   837a4:	103ee83a 	callr	r2
   837a8:	8009883a 	mov	r4,r16
   837ac:	0085c640 	call	85c64 <_exit>

000837b0 <memcmp>:
   837b0:	01c000c4 	movi	r7,3
   837b4:	3980192e 	bgeu	r7,r6,8381c <memcmp+0x6c>
   837b8:	2144b03a 	or	r2,r4,r5
   837bc:	11c4703a 	and	r2,r2,r7
   837c0:	10000f26 	beq	r2,zero,83800 <memcmp+0x50>
   837c4:	20800003 	ldbu	r2,0(r4)
   837c8:	28c00003 	ldbu	r3,0(r5)
   837cc:	10c0151e 	bne	r2,r3,83824 <memcmp+0x74>
   837d0:	31bfff84 	addi	r6,r6,-2
   837d4:	01ffffc4 	movi	r7,-1
   837d8:	00000406 	br	837ec <memcmp+0x3c>
   837dc:	20800003 	ldbu	r2,0(r4)
   837e0:	28c00003 	ldbu	r3,0(r5)
   837e4:	31bfffc4 	addi	r6,r6,-1
   837e8:	10c00e1e 	bne	r2,r3,83824 <memcmp+0x74>
   837ec:	21000044 	addi	r4,r4,1
   837f0:	29400044 	addi	r5,r5,1
   837f4:	31fff91e 	bne	r6,r7,837dc <__alt_mem_RAM_block+0xfff81fdc>
   837f8:	0005883a 	mov	r2,zero
   837fc:	f800283a 	ret
   83800:	20c00017 	ldw	r3,0(r4)
   83804:	28800017 	ldw	r2,0(r5)
   83808:	18bfee1e 	bne	r3,r2,837c4 <__alt_mem_RAM_block+0xfff81fc4>
   8380c:	31bfff04 	addi	r6,r6,-4
   83810:	21000104 	addi	r4,r4,4
   83814:	29400104 	addi	r5,r5,4
   83818:	39bff936 	bltu	r7,r6,83800 <__alt_mem_RAM_block+0xfff82000>
   8381c:	303fe91e 	bne	r6,zero,837c4 <__alt_mem_RAM_block+0xfff81fc4>
   83820:	003ff506 	br	837f8 <__alt_mem_RAM_block+0xfff81ff8>
   83824:	10c5c83a 	sub	r2,r2,r3
   83828:	f800283a 	ret

0008382c <memcpy>:
   8382c:	defffd04 	addi	sp,sp,-12
   83830:	dfc00215 	stw	ra,8(sp)
   83834:	dc400115 	stw	r17,4(sp)
   83838:	dc000015 	stw	r16,0(sp)
   8383c:	00c003c4 	movi	r3,15
   83840:	2005883a 	mov	r2,r4
   83844:	1980452e 	bgeu	r3,r6,8395c <memcpy+0x130>
   83848:	2906b03a 	or	r3,r5,r4
   8384c:	18c000cc 	andi	r3,r3,3
   83850:	1800441e 	bne	r3,zero,83964 <memcpy+0x138>
   83854:	347ffc04 	addi	r17,r6,-16
   83858:	8822d13a 	srli	r17,r17,4
   8385c:	28c00104 	addi	r3,r5,4
   83860:	23400104 	addi	r13,r4,4
   83864:	8820913a 	slli	r16,r17,4
   83868:	2b000204 	addi	r12,r5,8
   8386c:	22c00204 	addi	r11,r4,8
   83870:	84000504 	addi	r16,r16,20
   83874:	2a800304 	addi	r10,r5,12
   83878:	22400304 	addi	r9,r4,12
   8387c:	2c21883a 	add	r16,r5,r16
   83880:	2811883a 	mov	r8,r5
   83884:	200f883a 	mov	r7,r4
   83888:	41000017 	ldw	r4,0(r8)
   8388c:	1fc00017 	ldw	ra,0(r3)
   83890:	63c00017 	ldw	r15,0(r12)
   83894:	39000015 	stw	r4,0(r7)
   83898:	53800017 	ldw	r14,0(r10)
   8389c:	6fc00015 	stw	ra,0(r13)
   838a0:	5bc00015 	stw	r15,0(r11)
   838a4:	4b800015 	stw	r14,0(r9)
   838a8:	18c00404 	addi	r3,r3,16
   838ac:	39c00404 	addi	r7,r7,16
   838b0:	42000404 	addi	r8,r8,16
   838b4:	6b400404 	addi	r13,r13,16
   838b8:	63000404 	addi	r12,r12,16
   838bc:	5ac00404 	addi	r11,r11,16
   838c0:	52800404 	addi	r10,r10,16
   838c4:	4a400404 	addi	r9,r9,16
   838c8:	1c3fef1e 	bne	r3,r16,83888 <__alt_mem_RAM_block+0xfff82088>
   838cc:	89c00044 	addi	r7,r17,1
   838d0:	380e913a 	slli	r7,r7,4
   838d4:	310003cc 	andi	r4,r6,15
   838d8:	02c000c4 	movi	r11,3
   838dc:	11c7883a 	add	r3,r2,r7
   838e0:	29cb883a 	add	r5,r5,r7
   838e4:	5900212e 	bgeu	r11,r4,8396c <memcpy+0x140>
   838e8:	1813883a 	mov	r9,r3
   838ec:	2811883a 	mov	r8,r5
   838f0:	200f883a 	mov	r7,r4
   838f4:	42800017 	ldw	r10,0(r8)
   838f8:	4a400104 	addi	r9,r9,4
   838fc:	39ffff04 	addi	r7,r7,-4
   83900:	4abfff15 	stw	r10,-4(r9)
   83904:	42000104 	addi	r8,r8,4
   83908:	59fffa36 	bltu	r11,r7,838f4 <__alt_mem_RAM_block+0xfff820f4>
   8390c:	213fff04 	addi	r4,r4,-4
   83910:	2008d0ba 	srli	r4,r4,2
   83914:	318000cc 	andi	r6,r6,3
   83918:	21000044 	addi	r4,r4,1
   8391c:	2109883a 	add	r4,r4,r4
   83920:	2109883a 	add	r4,r4,r4
   83924:	1907883a 	add	r3,r3,r4
   83928:	290b883a 	add	r5,r5,r4
   8392c:	30000626 	beq	r6,zero,83948 <memcpy+0x11c>
   83930:	198d883a 	add	r6,r3,r6
   83934:	29c00003 	ldbu	r7,0(r5)
   83938:	18c00044 	addi	r3,r3,1
   8393c:	29400044 	addi	r5,r5,1
   83940:	19ffffc5 	stb	r7,-1(r3)
   83944:	19bffb1e 	bne	r3,r6,83934 <__alt_mem_RAM_block+0xfff82134>
   83948:	dfc00217 	ldw	ra,8(sp)
   8394c:	dc400117 	ldw	r17,4(sp)
   83950:	dc000017 	ldw	r16,0(sp)
   83954:	dec00304 	addi	sp,sp,12
   83958:	f800283a 	ret
   8395c:	2007883a 	mov	r3,r4
   83960:	003ff206 	br	8392c <__alt_mem_RAM_block+0xfff8212c>
   83964:	2007883a 	mov	r3,r4
   83968:	003ff106 	br	83930 <__alt_mem_RAM_block+0xfff82130>
   8396c:	200d883a 	mov	r6,r4
   83970:	003fee06 	br	8392c <__alt_mem_RAM_block+0xfff8212c>

00083974 <_putc_r>:
   83974:	defffc04 	addi	sp,sp,-16
   83978:	dc000215 	stw	r16,8(sp)
   8397c:	dfc00315 	stw	ra,12(sp)
   83980:	2021883a 	mov	r16,r4
   83984:	20000226 	beq	r4,zero,83990 <_putc_r+0x1c>
   83988:	20800e17 	ldw	r2,56(r4)
   8398c:	10001b26 	beq	r2,zero,839fc <_putc_r+0x88>
   83990:	30800217 	ldw	r2,8(r6)
   83994:	10bfffc4 	addi	r2,r2,-1
   83998:	30800215 	stw	r2,8(r6)
   8399c:	10000a16 	blt	r2,zero,839c8 <_putc_r+0x54>
   839a0:	30800017 	ldw	r2,0(r6)
   839a4:	11400005 	stb	r5,0(r2)
   839a8:	30800017 	ldw	r2,0(r6)
   839ac:	10c00044 	addi	r3,r2,1
   839b0:	30c00015 	stw	r3,0(r6)
   839b4:	10800003 	ldbu	r2,0(r2)
   839b8:	dfc00317 	ldw	ra,12(sp)
   839bc:	dc000217 	ldw	r16,8(sp)
   839c0:	dec00404 	addi	sp,sp,16
   839c4:	f800283a 	ret
   839c8:	30c00617 	ldw	r3,24(r6)
   839cc:	10c00616 	blt	r2,r3,839e8 <_putc_r+0x74>
   839d0:	30800017 	ldw	r2,0(r6)
   839d4:	00c00284 	movi	r3,10
   839d8:	11400005 	stb	r5,0(r2)
   839dc:	30800017 	ldw	r2,0(r6)
   839e0:	11400003 	ldbu	r5,0(r2)
   839e4:	28fff11e 	bne	r5,r3,839ac <__alt_mem_RAM_block+0xfff821ac>
   839e8:	8009883a 	mov	r4,r16
   839ec:	dfc00317 	ldw	ra,12(sp)
   839f0:	dc000217 	ldw	r16,8(sp)
   839f4:	dec00404 	addi	sp,sp,16
   839f8:	0083b741 	jmpi	83b74 <__swbuf_r>
   839fc:	d9400015 	stw	r5,0(sp)
   83a00:	d9800115 	stw	r6,4(sp)
   83a04:	00846b00 	call	846b0 <__sinit>
   83a08:	d9800117 	ldw	r6,4(sp)
   83a0c:	d9400017 	ldw	r5,0(sp)
   83a10:	003fdf06 	br	83990 <__alt_mem_RAM_block+0xfff82190>

00083a14 <putc>:
   83a14:	00800274 	movhi	r2,9
   83a18:	defffc04 	addi	sp,sp,-16
   83a1c:	10a15804 	addi	r2,r2,-31392
   83a20:	dc000115 	stw	r16,4(sp)
   83a24:	14000017 	ldw	r16,0(r2)
   83a28:	dc400215 	stw	r17,8(sp)
   83a2c:	dfc00315 	stw	ra,12(sp)
   83a30:	2023883a 	mov	r17,r4
   83a34:	80000226 	beq	r16,zero,83a40 <putc+0x2c>
   83a38:	80800e17 	ldw	r2,56(r16)
   83a3c:	10001a26 	beq	r2,zero,83aa8 <putc+0x94>
   83a40:	28800217 	ldw	r2,8(r5)
   83a44:	10bfffc4 	addi	r2,r2,-1
   83a48:	28800215 	stw	r2,8(r5)
   83a4c:	10000b16 	blt	r2,zero,83a7c <putc+0x68>
   83a50:	28800017 	ldw	r2,0(r5)
   83a54:	14400005 	stb	r17,0(r2)
   83a58:	28800017 	ldw	r2,0(r5)
   83a5c:	10c00044 	addi	r3,r2,1
   83a60:	28c00015 	stw	r3,0(r5)
   83a64:	10800003 	ldbu	r2,0(r2)
   83a68:	dfc00317 	ldw	ra,12(sp)
   83a6c:	dc400217 	ldw	r17,8(sp)
   83a70:	dc000117 	ldw	r16,4(sp)
   83a74:	dec00404 	addi	sp,sp,16
   83a78:	f800283a 	ret
   83a7c:	28c00617 	ldw	r3,24(r5)
   83a80:	10c00e16 	blt	r2,r3,83abc <putc+0xa8>
   83a84:	28800017 	ldw	r2,0(r5)
   83a88:	01000284 	movi	r4,10
   83a8c:	14400005 	stb	r17,0(r2)
   83a90:	28800017 	ldw	r2,0(r5)
   83a94:	10c00003 	ldbu	r3,0(r2)
   83a98:	193ff01e 	bne	r3,r4,83a5c <__alt_mem_RAM_block+0xfff8225c>
   83a9c:	280d883a 	mov	r6,r5
   83aa0:	180b883a 	mov	r5,r3
   83aa4:	00000706 	br	83ac4 <putc+0xb0>
   83aa8:	8009883a 	mov	r4,r16
   83aac:	d9400015 	stw	r5,0(sp)
   83ab0:	00846b00 	call	846b0 <__sinit>
   83ab4:	d9400017 	ldw	r5,0(sp)
   83ab8:	003fe106 	br	83a40 <__alt_mem_RAM_block+0xfff82240>
   83abc:	280d883a 	mov	r6,r5
   83ac0:	880b883a 	mov	r5,r17
   83ac4:	8009883a 	mov	r4,r16
   83ac8:	dfc00317 	ldw	ra,12(sp)
   83acc:	dc400217 	ldw	r17,8(sp)
   83ad0:	dc000117 	ldw	r16,4(sp)
   83ad4:	dec00404 	addi	sp,sp,16
   83ad8:	0083b741 	jmpi	83b74 <__swbuf_r>

00083adc <strlen>:
   83adc:	208000cc 	andi	r2,r4,3
   83ae0:	10002026 	beq	r2,zero,83b64 <strlen+0x88>
   83ae4:	20800007 	ldb	r2,0(r4)
   83ae8:	10002026 	beq	r2,zero,83b6c <strlen+0x90>
   83aec:	2005883a 	mov	r2,r4
   83af0:	00000206 	br	83afc <strlen+0x20>
   83af4:	10c00007 	ldb	r3,0(r2)
   83af8:	18001826 	beq	r3,zero,83b5c <strlen+0x80>
   83afc:	10800044 	addi	r2,r2,1
   83b00:	10c000cc 	andi	r3,r2,3
   83b04:	183ffb1e 	bne	r3,zero,83af4 <__alt_mem_RAM_block+0xfff822f4>
   83b08:	10c00017 	ldw	r3,0(r2)
   83b0c:	01ffbff4 	movhi	r7,65279
   83b10:	39ffbfc4 	addi	r7,r7,-257
   83b14:	00ca303a 	nor	r5,zero,r3
   83b18:	01a02074 	movhi	r6,32897
   83b1c:	19c7883a 	add	r3,r3,r7
   83b20:	31a02004 	addi	r6,r6,-32640
   83b24:	1946703a 	and	r3,r3,r5
   83b28:	1986703a 	and	r3,r3,r6
   83b2c:	1800091e 	bne	r3,zero,83b54 <strlen+0x78>
   83b30:	10800104 	addi	r2,r2,4
   83b34:	10c00017 	ldw	r3,0(r2)
   83b38:	19cb883a 	add	r5,r3,r7
   83b3c:	00c6303a 	nor	r3,zero,r3
   83b40:	28c6703a 	and	r3,r5,r3
   83b44:	1986703a 	and	r3,r3,r6
   83b48:	183ff926 	beq	r3,zero,83b30 <__alt_mem_RAM_block+0xfff82330>
   83b4c:	00000106 	br	83b54 <strlen+0x78>
   83b50:	10800044 	addi	r2,r2,1
   83b54:	10c00007 	ldb	r3,0(r2)
   83b58:	183ffd1e 	bne	r3,zero,83b50 <__alt_mem_RAM_block+0xfff82350>
   83b5c:	1105c83a 	sub	r2,r2,r4
   83b60:	f800283a 	ret
   83b64:	2005883a 	mov	r2,r4
   83b68:	003fe706 	br	83b08 <__alt_mem_RAM_block+0xfff82308>
   83b6c:	0005883a 	mov	r2,zero
   83b70:	f800283a 	ret

00083b74 <__swbuf_r>:
   83b74:	defffb04 	addi	sp,sp,-20
   83b78:	dcc00315 	stw	r19,12(sp)
   83b7c:	dc800215 	stw	r18,8(sp)
   83b80:	dc000015 	stw	r16,0(sp)
   83b84:	dfc00415 	stw	ra,16(sp)
   83b88:	dc400115 	stw	r17,4(sp)
   83b8c:	2025883a 	mov	r18,r4
   83b90:	2827883a 	mov	r19,r5
   83b94:	3021883a 	mov	r16,r6
   83b98:	20000226 	beq	r4,zero,83ba4 <__swbuf_r+0x30>
   83b9c:	20800e17 	ldw	r2,56(r4)
   83ba0:	10004226 	beq	r2,zero,83cac <__swbuf_r+0x138>
   83ba4:	80800617 	ldw	r2,24(r16)
   83ba8:	8100030b 	ldhu	r4,12(r16)
   83bac:	80800215 	stw	r2,8(r16)
   83bb0:	2080020c 	andi	r2,r4,8
   83bb4:	10003626 	beq	r2,zero,83c90 <__swbuf_r+0x11c>
   83bb8:	80c00417 	ldw	r3,16(r16)
   83bbc:	18003426 	beq	r3,zero,83c90 <__swbuf_r+0x11c>
   83bc0:	2088000c 	andi	r2,r4,8192
   83bc4:	9c403fcc 	andi	r17,r19,255
   83bc8:	10001a26 	beq	r2,zero,83c34 <__swbuf_r+0xc0>
   83bcc:	80800017 	ldw	r2,0(r16)
   83bd0:	81000517 	ldw	r4,20(r16)
   83bd4:	10c7c83a 	sub	r3,r2,r3
   83bd8:	1900200e 	bge	r3,r4,83c5c <__swbuf_r+0xe8>
   83bdc:	18c00044 	addi	r3,r3,1
   83be0:	81000217 	ldw	r4,8(r16)
   83be4:	11400044 	addi	r5,r2,1
   83be8:	81400015 	stw	r5,0(r16)
   83bec:	213fffc4 	addi	r4,r4,-1
   83bf0:	81000215 	stw	r4,8(r16)
   83bf4:	14c00005 	stb	r19,0(r2)
   83bf8:	80800517 	ldw	r2,20(r16)
   83bfc:	10c01e26 	beq	r2,r3,83c78 <__swbuf_r+0x104>
   83c00:	8080030b 	ldhu	r2,12(r16)
   83c04:	1080004c 	andi	r2,r2,1
   83c08:	10000226 	beq	r2,zero,83c14 <__swbuf_r+0xa0>
   83c0c:	00800284 	movi	r2,10
   83c10:	88801926 	beq	r17,r2,83c78 <__swbuf_r+0x104>
   83c14:	8805883a 	mov	r2,r17
   83c18:	dfc00417 	ldw	ra,16(sp)
   83c1c:	dcc00317 	ldw	r19,12(sp)
   83c20:	dc800217 	ldw	r18,8(sp)
   83c24:	dc400117 	ldw	r17,4(sp)
   83c28:	dc000017 	ldw	r16,0(sp)
   83c2c:	dec00504 	addi	sp,sp,20
   83c30:	f800283a 	ret
   83c34:	81401917 	ldw	r5,100(r16)
   83c38:	00b7ffc4 	movi	r2,-8193
   83c3c:	21080014 	ori	r4,r4,8192
   83c40:	2884703a 	and	r2,r5,r2
   83c44:	80801915 	stw	r2,100(r16)
   83c48:	80800017 	ldw	r2,0(r16)
   83c4c:	8100030d 	sth	r4,12(r16)
   83c50:	81000517 	ldw	r4,20(r16)
   83c54:	10c7c83a 	sub	r3,r2,r3
   83c58:	193fe016 	blt	r3,r4,83bdc <__alt_mem_RAM_block+0xfff823dc>
   83c5c:	800b883a 	mov	r5,r16
   83c60:	9009883a 	mov	r4,r18
   83c64:	00842d40 	call	842d4 <_fflush_r>
   83c68:	1000071e 	bne	r2,zero,83c88 <__swbuf_r+0x114>
   83c6c:	80800017 	ldw	r2,0(r16)
   83c70:	00c00044 	movi	r3,1
   83c74:	003fda06 	br	83be0 <__alt_mem_RAM_block+0xfff823e0>
   83c78:	800b883a 	mov	r5,r16
   83c7c:	9009883a 	mov	r4,r18
   83c80:	00842d40 	call	842d4 <_fflush_r>
   83c84:	103fe326 	beq	r2,zero,83c14 <__alt_mem_RAM_block+0xfff82414>
   83c88:	00bfffc4 	movi	r2,-1
   83c8c:	003fe206 	br	83c18 <__alt_mem_RAM_block+0xfff82418>
   83c90:	800b883a 	mov	r5,r16
   83c94:	9009883a 	mov	r4,r18
   83c98:	0083ccc0 	call	83ccc <__swsetup_r>
   83c9c:	103ffa1e 	bne	r2,zero,83c88 <__alt_mem_RAM_block+0xfff82488>
   83ca0:	8100030b 	ldhu	r4,12(r16)
   83ca4:	80c00417 	ldw	r3,16(r16)
   83ca8:	003fc506 	br	83bc0 <__alt_mem_RAM_block+0xfff823c0>
   83cac:	00846b00 	call	846b0 <__sinit>
   83cb0:	003fbc06 	br	83ba4 <__alt_mem_RAM_block+0xfff823a4>

00083cb4 <__swbuf>:
   83cb4:	00800274 	movhi	r2,9
   83cb8:	10a15804 	addi	r2,r2,-31392
   83cbc:	280d883a 	mov	r6,r5
   83cc0:	200b883a 	mov	r5,r4
   83cc4:	11000017 	ldw	r4,0(r2)
   83cc8:	0083b741 	jmpi	83b74 <__swbuf_r>

00083ccc <__swsetup_r>:
   83ccc:	00800274 	movhi	r2,9
   83cd0:	defffd04 	addi	sp,sp,-12
   83cd4:	10a15804 	addi	r2,r2,-31392
   83cd8:	dc400115 	stw	r17,4(sp)
   83cdc:	2023883a 	mov	r17,r4
   83ce0:	11000017 	ldw	r4,0(r2)
   83ce4:	dc000015 	stw	r16,0(sp)
   83ce8:	dfc00215 	stw	ra,8(sp)
   83cec:	2821883a 	mov	r16,r5
   83cf0:	20000226 	beq	r4,zero,83cfc <__swsetup_r+0x30>
   83cf4:	20800e17 	ldw	r2,56(r4)
   83cf8:	10003126 	beq	r2,zero,83dc0 <__swsetup_r+0xf4>
   83cfc:	8080030b 	ldhu	r2,12(r16)
   83d00:	10c0020c 	andi	r3,r2,8
   83d04:	1009883a 	mov	r4,r2
   83d08:	18000f26 	beq	r3,zero,83d48 <__swsetup_r+0x7c>
   83d0c:	80c00417 	ldw	r3,16(r16)
   83d10:	18001526 	beq	r3,zero,83d68 <__swsetup_r+0x9c>
   83d14:	1100004c 	andi	r4,r2,1
   83d18:	20001c1e 	bne	r4,zero,83d8c <__swsetup_r+0xc0>
   83d1c:	1080008c 	andi	r2,r2,2
   83d20:	1000291e 	bne	r2,zero,83dc8 <__swsetup_r+0xfc>
   83d24:	80800517 	ldw	r2,20(r16)
   83d28:	80800215 	stw	r2,8(r16)
   83d2c:	18001c26 	beq	r3,zero,83da0 <__swsetup_r+0xd4>
   83d30:	0005883a 	mov	r2,zero
   83d34:	dfc00217 	ldw	ra,8(sp)
   83d38:	dc400117 	ldw	r17,4(sp)
   83d3c:	dc000017 	ldw	r16,0(sp)
   83d40:	dec00304 	addi	sp,sp,12
   83d44:	f800283a 	ret
   83d48:	2080040c 	andi	r2,r4,16
   83d4c:	10002e26 	beq	r2,zero,83e08 <__swsetup_r+0x13c>
   83d50:	2080010c 	andi	r2,r4,4
   83d54:	10001e1e 	bne	r2,zero,83dd0 <__swsetup_r+0x104>
   83d58:	80c00417 	ldw	r3,16(r16)
   83d5c:	20800214 	ori	r2,r4,8
   83d60:	8080030d 	sth	r2,12(r16)
   83d64:	183feb1e 	bne	r3,zero,83d14 <__alt_mem_RAM_block+0xfff82514>
   83d68:	1100a00c 	andi	r4,r2,640
   83d6c:	01408004 	movi	r5,512
   83d70:	217fe826 	beq	r4,r5,83d14 <__alt_mem_RAM_block+0xfff82514>
   83d74:	800b883a 	mov	r5,r16
   83d78:	8809883a 	mov	r4,r17
   83d7c:	0084cbc0 	call	84cbc <__smakebuf_r>
   83d80:	8080030b 	ldhu	r2,12(r16)
   83d84:	80c00417 	ldw	r3,16(r16)
   83d88:	003fe206 	br	83d14 <__alt_mem_RAM_block+0xfff82514>
   83d8c:	80800517 	ldw	r2,20(r16)
   83d90:	80000215 	stw	zero,8(r16)
   83d94:	0085c83a 	sub	r2,zero,r2
   83d98:	80800615 	stw	r2,24(r16)
   83d9c:	183fe41e 	bne	r3,zero,83d30 <__alt_mem_RAM_block+0xfff82530>
   83da0:	80c0030b 	ldhu	r3,12(r16)
   83da4:	0005883a 	mov	r2,zero
   83da8:	1900200c 	andi	r4,r3,128
   83dac:	203fe126 	beq	r4,zero,83d34 <__alt_mem_RAM_block+0xfff82534>
   83db0:	18c01014 	ori	r3,r3,64
   83db4:	80c0030d 	sth	r3,12(r16)
   83db8:	00bfffc4 	movi	r2,-1
   83dbc:	003fdd06 	br	83d34 <__alt_mem_RAM_block+0xfff82534>
   83dc0:	00846b00 	call	846b0 <__sinit>
   83dc4:	003fcd06 	br	83cfc <__alt_mem_RAM_block+0xfff824fc>
   83dc8:	0005883a 	mov	r2,zero
   83dcc:	003fd606 	br	83d28 <__alt_mem_RAM_block+0xfff82528>
   83dd0:	81400c17 	ldw	r5,48(r16)
   83dd4:	28000626 	beq	r5,zero,83df0 <__swsetup_r+0x124>
   83dd8:	80801004 	addi	r2,r16,64
   83ddc:	28800326 	beq	r5,r2,83dec <__swsetup_r+0x120>
   83de0:	8809883a 	mov	r4,r17
   83de4:	00848240 	call	84824 <_free_r>
   83de8:	8100030b 	ldhu	r4,12(r16)
   83dec:	80000c15 	stw	zero,48(r16)
   83df0:	80c00417 	ldw	r3,16(r16)
   83df4:	00bff6c4 	movi	r2,-37
   83df8:	1108703a 	and	r4,r2,r4
   83dfc:	80000115 	stw	zero,4(r16)
   83e00:	80c00015 	stw	r3,0(r16)
   83e04:	003fd506 	br	83d5c <__alt_mem_RAM_block+0xfff8255c>
   83e08:	00800244 	movi	r2,9
   83e0c:	88800015 	stw	r2,0(r17)
   83e10:	20801014 	ori	r2,r4,64
   83e14:	8080030d 	sth	r2,12(r16)
   83e18:	00bfffc4 	movi	r2,-1
   83e1c:	003fc506 	br	83d34 <__alt_mem_RAM_block+0xfff82534>

00083e20 <__register_exitproc>:
   83e20:	defffa04 	addi	sp,sp,-24
   83e24:	dc000315 	stw	r16,12(sp)
   83e28:	04000274 	movhi	r16,9
   83e2c:	84215704 	addi	r16,r16,-31396
   83e30:	80c00017 	ldw	r3,0(r16)
   83e34:	dc400415 	stw	r17,16(sp)
   83e38:	dfc00515 	stw	ra,20(sp)
   83e3c:	18805217 	ldw	r2,328(r3)
   83e40:	2023883a 	mov	r17,r4
   83e44:	10003726 	beq	r2,zero,83f24 <__register_exitproc+0x104>
   83e48:	10c00117 	ldw	r3,4(r2)
   83e4c:	010007c4 	movi	r4,31
   83e50:	20c00e16 	blt	r4,r3,83e8c <__register_exitproc+0x6c>
   83e54:	1a000044 	addi	r8,r3,1
   83e58:	8800221e 	bne	r17,zero,83ee4 <__register_exitproc+0xc4>
   83e5c:	18c00084 	addi	r3,r3,2
   83e60:	18c7883a 	add	r3,r3,r3
   83e64:	18c7883a 	add	r3,r3,r3
   83e68:	12000115 	stw	r8,4(r2)
   83e6c:	10c7883a 	add	r3,r2,r3
   83e70:	19400015 	stw	r5,0(r3)
   83e74:	0005883a 	mov	r2,zero
   83e78:	dfc00517 	ldw	ra,20(sp)
   83e7c:	dc400417 	ldw	r17,16(sp)
   83e80:	dc000317 	ldw	r16,12(sp)
   83e84:	dec00604 	addi	sp,sp,24
   83e88:	f800283a 	ret
   83e8c:	00800034 	movhi	r2,0
   83e90:	10800004 	addi	r2,r2,0
   83e94:	10002626 	beq	r2,zero,83f30 <__register_exitproc+0x110>
   83e98:	01006404 	movi	r4,400
   83e9c:	d9400015 	stw	r5,0(sp)
   83ea0:	d9800115 	stw	r6,4(sp)
   83ea4:	d9c00215 	stw	r7,8(sp)
   83ea8:	00000000 	call	0 <__reset-0x80000>
   83eac:	d9400017 	ldw	r5,0(sp)
   83eb0:	d9800117 	ldw	r6,4(sp)
   83eb4:	d9c00217 	ldw	r7,8(sp)
   83eb8:	10001d26 	beq	r2,zero,83f30 <__register_exitproc+0x110>
   83ebc:	81000017 	ldw	r4,0(r16)
   83ec0:	10000115 	stw	zero,4(r2)
   83ec4:	02000044 	movi	r8,1
   83ec8:	22405217 	ldw	r9,328(r4)
   83ecc:	0007883a 	mov	r3,zero
   83ed0:	12400015 	stw	r9,0(r2)
   83ed4:	20805215 	stw	r2,328(r4)
   83ed8:	10006215 	stw	zero,392(r2)
   83edc:	10006315 	stw	zero,396(r2)
   83ee0:	883fde26 	beq	r17,zero,83e5c <__alt_mem_RAM_block+0xfff8265c>
   83ee4:	18c9883a 	add	r4,r3,r3
   83ee8:	2109883a 	add	r4,r4,r4
   83eec:	1109883a 	add	r4,r2,r4
   83ef0:	21802215 	stw	r6,136(r4)
   83ef4:	01800044 	movi	r6,1
   83ef8:	12406217 	ldw	r9,392(r2)
   83efc:	30cc983a 	sll	r6,r6,r3
   83f00:	4992b03a 	or	r9,r9,r6
   83f04:	12406215 	stw	r9,392(r2)
   83f08:	21c04215 	stw	r7,264(r4)
   83f0c:	01000084 	movi	r4,2
   83f10:	893fd21e 	bne	r17,r4,83e5c <__alt_mem_RAM_block+0xfff8265c>
   83f14:	11006317 	ldw	r4,396(r2)
   83f18:	218cb03a 	or	r6,r4,r6
   83f1c:	11806315 	stw	r6,396(r2)
   83f20:	003fce06 	br	83e5c <__alt_mem_RAM_block+0xfff8265c>
   83f24:	18805304 	addi	r2,r3,332
   83f28:	18805215 	stw	r2,328(r3)
   83f2c:	003fc606 	br	83e48 <__alt_mem_RAM_block+0xfff82648>
   83f30:	00bfffc4 	movi	r2,-1
   83f34:	003fd006 	br	83e78 <__alt_mem_RAM_block+0xfff82678>

00083f38 <__call_exitprocs>:
   83f38:	defff504 	addi	sp,sp,-44
   83f3c:	df000915 	stw	fp,36(sp)
   83f40:	dd400615 	stw	r21,24(sp)
   83f44:	dc800315 	stw	r18,12(sp)
   83f48:	dfc00a15 	stw	ra,40(sp)
   83f4c:	ddc00815 	stw	r23,32(sp)
   83f50:	dd800715 	stw	r22,28(sp)
   83f54:	dd000515 	stw	r20,20(sp)
   83f58:	dcc00415 	stw	r19,16(sp)
   83f5c:	dc400215 	stw	r17,8(sp)
   83f60:	dc000115 	stw	r16,4(sp)
   83f64:	d9000015 	stw	r4,0(sp)
   83f68:	2839883a 	mov	fp,r5
   83f6c:	04800044 	movi	r18,1
   83f70:	057fffc4 	movi	r21,-1
   83f74:	00800274 	movhi	r2,9
   83f78:	10a15704 	addi	r2,r2,-31396
   83f7c:	12000017 	ldw	r8,0(r2)
   83f80:	45005217 	ldw	r20,328(r8)
   83f84:	44c05204 	addi	r19,r8,328
   83f88:	a0001c26 	beq	r20,zero,83ffc <__call_exitprocs+0xc4>
   83f8c:	a0800117 	ldw	r2,4(r20)
   83f90:	15ffffc4 	addi	r23,r2,-1
   83f94:	b8000d16 	blt	r23,zero,83fcc <__call_exitprocs+0x94>
   83f98:	14000044 	addi	r16,r2,1
   83f9c:	8421883a 	add	r16,r16,r16
   83fa0:	8421883a 	add	r16,r16,r16
   83fa4:	84402004 	addi	r17,r16,128
   83fa8:	a463883a 	add	r17,r20,r17
   83fac:	a421883a 	add	r16,r20,r16
   83fb0:	e0001e26 	beq	fp,zero,8402c <__call_exitprocs+0xf4>
   83fb4:	80804017 	ldw	r2,256(r16)
   83fb8:	e0801c26 	beq	fp,r2,8402c <__call_exitprocs+0xf4>
   83fbc:	bdffffc4 	addi	r23,r23,-1
   83fc0:	843fff04 	addi	r16,r16,-4
   83fc4:	8c7fff04 	addi	r17,r17,-4
   83fc8:	bd7ff91e 	bne	r23,r21,83fb0 <__alt_mem_RAM_block+0xfff827b0>
   83fcc:	00800034 	movhi	r2,0
   83fd0:	10800004 	addi	r2,r2,0
   83fd4:	10000926 	beq	r2,zero,83ffc <__call_exitprocs+0xc4>
   83fd8:	a0800117 	ldw	r2,4(r20)
   83fdc:	1000301e 	bne	r2,zero,840a0 <__call_exitprocs+0x168>
   83fe0:	a0800017 	ldw	r2,0(r20)
   83fe4:	10003226 	beq	r2,zero,840b0 <__call_exitprocs+0x178>
   83fe8:	a009883a 	mov	r4,r20
   83fec:	98800015 	stw	r2,0(r19)
   83ff0:	00000000 	call	0 <__reset-0x80000>
   83ff4:	9d000017 	ldw	r20,0(r19)
   83ff8:	a03fe41e 	bne	r20,zero,83f8c <__alt_mem_RAM_block+0xfff8278c>
   83ffc:	dfc00a17 	ldw	ra,40(sp)
   84000:	df000917 	ldw	fp,36(sp)
   84004:	ddc00817 	ldw	r23,32(sp)
   84008:	dd800717 	ldw	r22,28(sp)
   8400c:	dd400617 	ldw	r21,24(sp)
   84010:	dd000517 	ldw	r20,20(sp)
   84014:	dcc00417 	ldw	r19,16(sp)
   84018:	dc800317 	ldw	r18,12(sp)
   8401c:	dc400217 	ldw	r17,8(sp)
   84020:	dc000117 	ldw	r16,4(sp)
   84024:	dec00b04 	addi	sp,sp,44
   84028:	f800283a 	ret
   8402c:	a0800117 	ldw	r2,4(r20)
   84030:	80c00017 	ldw	r3,0(r16)
   84034:	10bfffc4 	addi	r2,r2,-1
   84038:	15c01426 	beq	r2,r23,8408c <__call_exitprocs+0x154>
   8403c:	80000015 	stw	zero,0(r16)
   84040:	183fde26 	beq	r3,zero,83fbc <__alt_mem_RAM_block+0xfff827bc>
   84044:	95c8983a 	sll	r4,r18,r23
   84048:	a0806217 	ldw	r2,392(r20)
   8404c:	a5800117 	ldw	r22,4(r20)
   84050:	2084703a 	and	r2,r4,r2
   84054:	10000b26 	beq	r2,zero,84084 <__call_exitprocs+0x14c>
   84058:	a0806317 	ldw	r2,396(r20)
   8405c:	2088703a 	and	r4,r4,r2
   84060:	20000c1e 	bne	r4,zero,84094 <__call_exitprocs+0x15c>
   84064:	89400017 	ldw	r5,0(r17)
   84068:	d9000017 	ldw	r4,0(sp)
   8406c:	183ee83a 	callr	r3
   84070:	a0800117 	ldw	r2,4(r20)
   84074:	15bfbf1e 	bne	r2,r22,83f74 <__alt_mem_RAM_block+0xfff82774>
   84078:	98800017 	ldw	r2,0(r19)
   8407c:	153fcf26 	beq	r2,r20,83fbc <__alt_mem_RAM_block+0xfff827bc>
   84080:	003fbc06 	br	83f74 <__alt_mem_RAM_block+0xfff82774>
   84084:	183ee83a 	callr	r3
   84088:	003ff906 	br	84070 <__alt_mem_RAM_block+0xfff82870>
   8408c:	a5c00115 	stw	r23,4(r20)
   84090:	003feb06 	br	84040 <__alt_mem_RAM_block+0xfff82840>
   84094:	89000017 	ldw	r4,0(r17)
   84098:	183ee83a 	callr	r3
   8409c:	003ff406 	br	84070 <__alt_mem_RAM_block+0xfff82870>
   840a0:	a0800017 	ldw	r2,0(r20)
   840a4:	a027883a 	mov	r19,r20
   840a8:	1029883a 	mov	r20,r2
   840ac:	003fb606 	br	83f88 <__alt_mem_RAM_block+0xfff82788>
   840b0:	0005883a 	mov	r2,zero
   840b4:	003ffb06 	br	840a4 <__alt_mem_RAM_block+0xfff828a4>

000840b8 <__sflush_r>:
   840b8:	2880030b 	ldhu	r2,12(r5)
   840bc:	defffb04 	addi	sp,sp,-20
   840c0:	dcc00315 	stw	r19,12(sp)
   840c4:	dc400115 	stw	r17,4(sp)
   840c8:	dfc00415 	stw	ra,16(sp)
   840cc:	dc800215 	stw	r18,8(sp)
   840d0:	dc000015 	stw	r16,0(sp)
   840d4:	10c0020c 	andi	r3,r2,8
   840d8:	2823883a 	mov	r17,r5
   840dc:	2027883a 	mov	r19,r4
   840e0:	1800311e 	bne	r3,zero,841a8 <__sflush_r+0xf0>
   840e4:	28c00117 	ldw	r3,4(r5)
   840e8:	10820014 	ori	r2,r2,2048
   840ec:	2880030d 	sth	r2,12(r5)
   840f0:	00c04b0e 	bge	zero,r3,84220 <__sflush_r+0x168>
   840f4:	8a000a17 	ldw	r8,40(r17)
   840f8:	40002326 	beq	r8,zero,84188 <__sflush_r+0xd0>
   840fc:	9c000017 	ldw	r16,0(r19)
   84100:	10c4000c 	andi	r3,r2,4096
   84104:	98000015 	stw	zero,0(r19)
   84108:	18004826 	beq	r3,zero,8422c <__sflush_r+0x174>
   8410c:	89801417 	ldw	r6,80(r17)
   84110:	10c0010c 	andi	r3,r2,4
   84114:	18000626 	beq	r3,zero,84130 <__sflush_r+0x78>
   84118:	88c00117 	ldw	r3,4(r17)
   8411c:	88800c17 	ldw	r2,48(r17)
   84120:	30cdc83a 	sub	r6,r6,r3
   84124:	10000226 	beq	r2,zero,84130 <__sflush_r+0x78>
   84128:	88800f17 	ldw	r2,60(r17)
   8412c:	308dc83a 	sub	r6,r6,r2
   84130:	89400717 	ldw	r5,28(r17)
   84134:	000f883a 	mov	r7,zero
   84138:	9809883a 	mov	r4,r19
   8413c:	403ee83a 	callr	r8
   84140:	00ffffc4 	movi	r3,-1
   84144:	10c04426 	beq	r2,r3,84258 <__sflush_r+0x1a0>
   84148:	88c0030b 	ldhu	r3,12(r17)
   8414c:	89000417 	ldw	r4,16(r17)
   84150:	88000115 	stw	zero,4(r17)
   84154:	197dffcc 	andi	r5,r3,63487
   84158:	8940030d 	sth	r5,12(r17)
   8415c:	89000015 	stw	r4,0(r17)
   84160:	18c4000c 	andi	r3,r3,4096
   84164:	18002c1e 	bne	r3,zero,84218 <__sflush_r+0x160>
   84168:	89400c17 	ldw	r5,48(r17)
   8416c:	9c000015 	stw	r16,0(r19)
   84170:	28000526 	beq	r5,zero,84188 <__sflush_r+0xd0>
   84174:	88801004 	addi	r2,r17,64
   84178:	28800226 	beq	r5,r2,84184 <__sflush_r+0xcc>
   8417c:	9809883a 	mov	r4,r19
   84180:	00848240 	call	84824 <_free_r>
   84184:	88000c15 	stw	zero,48(r17)
   84188:	0005883a 	mov	r2,zero
   8418c:	dfc00417 	ldw	ra,16(sp)
   84190:	dcc00317 	ldw	r19,12(sp)
   84194:	dc800217 	ldw	r18,8(sp)
   84198:	dc400117 	ldw	r17,4(sp)
   8419c:	dc000017 	ldw	r16,0(sp)
   841a0:	dec00504 	addi	sp,sp,20
   841a4:	f800283a 	ret
   841a8:	2c800417 	ldw	r18,16(r5)
   841ac:	903ff626 	beq	r18,zero,84188 <__alt_mem_RAM_block+0xfff82988>
   841b0:	2c000017 	ldw	r16,0(r5)
   841b4:	108000cc 	andi	r2,r2,3
   841b8:	2c800015 	stw	r18,0(r5)
   841bc:	84a1c83a 	sub	r16,r16,r18
   841c0:	1000131e 	bne	r2,zero,84210 <__sflush_r+0x158>
   841c4:	28800517 	ldw	r2,20(r5)
   841c8:	88800215 	stw	r2,8(r17)
   841cc:	04000316 	blt	zero,r16,841dc <__sflush_r+0x124>
   841d0:	003fed06 	br	84188 <__alt_mem_RAM_block+0xfff82988>
   841d4:	90a5883a 	add	r18,r18,r2
   841d8:	043feb0e 	bge	zero,r16,84188 <__alt_mem_RAM_block+0xfff82988>
   841dc:	88800917 	ldw	r2,36(r17)
   841e0:	89400717 	ldw	r5,28(r17)
   841e4:	800f883a 	mov	r7,r16
   841e8:	900d883a 	mov	r6,r18
   841ec:	9809883a 	mov	r4,r19
   841f0:	103ee83a 	callr	r2
   841f4:	80a1c83a 	sub	r16,r16,r2
   841f8:	00bff616 	blt	zero,r2,841d4 <__alt_mem_RAM_block+0xfff829d4>
   841fc:	88c0030b 	ldhu	r3,12(r17)
   84200:	00bfffc4 	movi	r2,-1
   84204:	18c01014 	ori	r3,r3,64
   84208:	88c0030d 	sth	r3,12(r17)
   8420c:	003fdf06 	br	8418c <__alt_mem_RAM_block+0xfff8298c>
   84210:	0005883a 	mov	r2,zero
   84214:	003fec06 	br	841c8 <__alt_mem_RAM_block+0xfff829c8>
   84218:	88801415 	stw	r2,80(r17)
   8421c:	003fd206 	br	84168 <__alt_mem_RAM_block+0xfff82968>
   84220:	28c00f17 	ldw	r3,60(r5)
   84224:	00ffb316 	blt	zero,r3,840f4 <__alt_mem_RAM_block+0xfff828f4>
   84228:	003fd706 	br	84188 <__alt_mem_RAM_block+0xfff82988>
   8422c:	89400717 	ldw	r5,28(r17)
   84230:	000d883a 	mov	r6,zero
   84234:	01c00044 	movi	r7,1
   84238:	9809883a 	mov	r4,r19
   8423c:	403ee83a 	callr	r8
   84240:	100d883a 	mov	r6,r2
   84244:	00bfffc4 	movi	r2,-1
   84248:	30801426 	beq	r6,r2,8429c <__sflush_r+0x1e4>
   8424c:	8880030b 	ldhu	r2,12(r17)
   84250:	8a000a17 	ldw	r8,40(r17)
   84254:	003fae06 	br	84110 <__alt_mem_RAM_block+0xfff82910>
   84258:	98c00017 	ldw	r3,0(r19)
   8425c:	183fba26 	beq	r3,zero,84148 <__alt_mem_RAM_block+0xfff82948>
   84260:	01000744 	movi	r4,29
   84264:	19000626 	beq	r3,r4,84280 <__sflush_r+0x1c8>
   84268:	01000584 	movi	r4,22
   8426c:	19000426 	beq	r3,r4,84280 <__sflush_r+0x1c8>
   84270:	88c0030b 	ldhu	r3,12(r17)
   84274:	18c01014 	ori	r3,r3,64
   84278:	88c0030d 	sth	r3,12(r17)
   8427c:	003fc306 	br	8418c <__alt_mem_RAM_block+0xfff8298c>
   84280:	8880030b 	ldhu	r2,12(r17)
   84284:	88c00417 	ldw	r3,16(r17)
   84288:	88000115 	stw	zero,4(r17)
   8428c:	10bdffcc 	andi	r2,r2,63487
   84290:	8880030d 	sth	r2,12(r17)
   84294:	88c00015 	stw	r3,0(r17)
   84298:	003fb306 	br	84168 <__alt_mem_RAM_block+0xfff82968>
   8429c:	98800017 	ldw	r2,0(r19)
   842a0:	103fea26 	beq	r2,zero,8424c <__alt_mem_RAM_block+0xfff82a4c>
   842a4:	00c00744 	movi	r3,29
   842a8:	10c00226 	beq	r2,r3,842b4 <__sflush_r+0x1fc>
   842ac:	00c00584 	movi	r3,22
   842b0:	10c0031e 	bne	r2,r3,842c0 <__sflush_r+0x208>
   842b4:	9c000015 	stw	r16,0(r19)
   842b8:	0005883a 	mov	r2,zero
   842bc:	003fb306 	br	8418c <__alt_mem_RAM_block+0xfff8298c>
   842c0:	88c0030b 	ldhu	r3,12(r17)
   842c4:	3005883a 	mov	r2,r6
   842c8:	18c01014 	ori	r3,r3,64
   842cc:	88c0030d 	sth	r3,12(r17)
   842d0:	003fae06 	br	8418c <__alt_mem_RAM_block+0xfff8298c>

000842d4 <_fflush_r>:
   842d4:	defffd04 	addi	sp,sp,-12
   842d8:	dc000115 	stw	r16,4(sp)
   842dc:	dfc00215 	stw	ra,8(sp)
   842e0:	2021883a 	mov	r16,r4
   842e4:	20000226 	beq	r4,zero,842f0 <_fflush_r+0x1c>
   842e8:	20800e17 	ldw	r2,56(r4)
   842ec:	10000c26 	beq	r2,zero,84320 <_fflush_r+0x4c>
   842f0:	2880030f 	ldh	r2,12(r5)
   842f4:	1000051e 	bne	r2,zero,8430c <_fflush_r+0x38>
   842f8:	0005883a 	mov	r2,zero
   842fc:	dfc00217 	ldw	ra,8(sp)
   84300:	dc000117 	ldw	r16,4(sp)
   84304:	dec00304 	addi	sp,sp,12
   84308:	f800283a 	ret
   8430c:	8009883a 	mov	r4,r16
   84310:	dfc00217 	ldw	ra,8(sp)
   84314:	dc000117 	ldw	r16,4(sp)
   84318:	dec00304 	addi	sp,sp,12
   8431c:	00840b81 	jmpi	840b8 <__sflush_r>
   84320:	d9400015 	stw	r5,0(sp)
   84324:	00846b00 	call	846b0 <__sinit>
   84328:	d9400017 	ldw	r5,0(sp)
   8432c:	003ff006 	br	842f0 <__alt_mem_RAM_block+0xfff82af0>

00084330 <fflush>:
   84330:	20000526 	beq	r4,zero,84348 <fflush+0x18>
   84334:	00800274 	movhi	r2,9
   84338:	10a15804 	addi	r2,r2,-31392
   8433c:	200b883a 	mov	r5,r4
   84340:	11000017 	ldw	r4,0(r2)
   84344:	00842d41 	jmpi	842d4 <_fflush_r>
   84348:	00800274 	movhi	r2,9
   8434c:	10a15704 	addi	r2,r2,-31396
   84350:	11000017 	ldw	r4,0(r2)
   84354:	01400234 	movhi	r5,8
   84358:	2950b504 	addi	r5,r5,17108
   8435c:	0084bf81 	jmpi	84bf8 <_fwalk_reent>

00084360 <__fp_unlock>:
   84360:	0005883a 	mov	r2,zero
   84364:	f800283a 	ret

00084368 <_cleanup_r>:
   84368:	01400234 	movhi	r5,8
   8436c:	29567c04 	addi	r5,r5,23024
   84370:	0084bf81 	jmpi	84bf8 <_fwalk_reent>

00084374 <__sinit.part.1>:
   84374:	defff704 	addi	sp,sp,-36
   84378:	00c00234 	movhi	r3,8
   8437c:	dfc00815 	stw	ra,32(sp)
   84380:	ddc00715 	stw	r23,28(sp)
   84384:	dd800615 	stw	r22,24(sp)
   84388:	dd400515 	stw	r21,20(sp)
   8438c:	dd000415 	stw	r20,16(sp)
   84390:	dcc00315 	stw	r19,12(sp)
   84394:	dc800215 	stw	r18,8(sp)
   84398:	dc400115 	stw	r17,4(sp)
   8439c:	dc000015 	stw	r16,0(sp)
   843a0:	18d0da04 	addi	r3,r3,17256
   843a4:	24000117 	ldw	r16,4(r4)
   843a8:	20c00f15 	stw	r3,60(r4)
   843ac:	2080bb04 	addi	r2,r4,748
   843b0:	00c000c4 	movi	r3,3
   843b4:	20c0b915 	stw	r3,740(r4)
   843b8:	2080ba15 	stw	r2,744(r4)
   843bc:	2000b815 	stw	zero,736(r4)
   843c0:	05c00204 	movi	r23,8
   843c4:	00800104 	movi	r2,4
   843c8:	2025883a 	mov	r18,r4
   843cc:	b80d883a 	mov	r6,r23
   843d0:	81001704 	addi	r4,r16,92
   843d4:	000b883a 	mov	r5,zero
   843d8:	80000015 	stw	zero,0(r16)
   843dc:	80000115 	stw	zero,4(r16)
   843e0:	80000215 	stw	zero,8(r16)
   843e4:	8080030d 	sth	r2,12(r16)
   843e8:	80001915 	stw	zero,100(r16)
   843ec:	8000038d 	sth	zero,14(r16)
   843f0:	80000415 	stw	zero,16(r16)
   843f4:	80000515 	stw	zero,20(r16)
   843f8:	80000615 	stw	zero,24(r16)
   843fc:	00856840 	call	85684 <memset>
   84400:	05800234 	movhi	r22,8
   84404:	94400217 	ldw	r17,8(r18)
   84408:	05400234 	movhi	r21,8
   8440c:	05000234 	movhi	r20,8
   84410:	04c00234 	movhi	r19,8
   84414:	b5960004 	addi	r22,r22,22528
   84418:	ad561704 	addi	r21,r21,22620
   8441c:	a5163604 	addi	r20,r20,22744
   84420:	9cd64d04 	addi	r19,r19,22836
   84424:	85800815 	stw	r22,32(r16)
   84428:	85400915 	stw	r21,36(r16)
   8442c:	85000a15 	stw	r20,40(r16)
   84430:	84c00b15 	stw	r19,44(r16)
   84434:	84000715 	stw	r16,28(r16)
   84438:	00800284 	movi	r2,10
   8443c:	8880030d 	sth	r2,12(r17)
   84440:	00800044 	movi	r2,1
   84444:	b80d883a 	mov	r6,r23
   84448:	89001704 	addi	r4,r17,92
   8444c:	000b883a 	mov	r5,zero
   84450:	88000015 	stw	zero,0(r17)
   84454:	88000115 	stw	zero,4(r17)
   84458:	88000215 	stw	zero,8(r17)
   8445c:	88001915 	stw	zero,100(r17)
   84460:	8880038d 	sth	r2,14(r17)
   84464:	88000415 	stw	zero,16(r17)
   84468:	88000515 	stw	zero,20(r17)
   8446c:	88000615 	stw	zero,24(r17)
   84470:	00856840 	call	85684 <memset>
   84474:	94000317 	ldw	r16,12(r18)
   84478:	00800484 	movi	r2,18
   8447c:	8c400715 	stw	r17,28(r17)
   84480:	8d800815 	stw	r22,32(r17)
   84484:	8d400915 	stw	r21,36(r17)
   84488:	8d000a15 	stw	r20,40(r17)
   8448c:	8cc00b15 	stw	r19,44(r17)
   84490:	8080030d 	sth	r2,12(r16)
   84494:	00800084 	movi	r2,2
   84498:	80000015 	stw	zero,0(r16)
   8449c:	80000115 	stw	zero,4(r16)
   844a0:	80000215 	stw	zero,8(r16)
   844a4:	80001915 	stw	zero,100(r16)
   844a8:	8080038d 	sth	r2,14(r16)
   844ac:	80000415 	stw	zero,16(r16)
   844b0:	80000515 	stw	zero,20(r16)
   844b4:	80000615 	stw	zero,24(r16)
   844b8:	b80d883a 	mov	r6,r23
   844bc:	000b883a 	mov	r5,zero
   844c0:	81001704 	addi	r4,r16,92
   844c4:	00856840 	call	85684 <memset>
   844c8:	00800044 	movi	r2,1
   844cc:	84000715 	stw	r16,28(r16)
   844d0:	85800815 	stw	r22,32(r16)
   844d4:	85400915 	stw	r21,36(r16)
   844d8:	85000a15 	stw	r20,40(r16)
   844dc:	84c00b15 	stw	r19,44(r16)
   844e0:	90800e15 	stw	r2,56(r18)
   844e4:	dfc00817 	ldw	ra,32(sp)
   844e8:	ddc00717 	ldw	r23,28(sp)
   844ec:	dd800617 	ldw	r22,24(sp)
   844f0:	dd400517 	ldw	r21,20(sp)
   844f4:	dd000417 	ldw	r20,16(sp)
   844f8:	dcc00317 	ldw	r19,12(sp)
   844fc:	dc800217 	ldw	r18,8(sp)
   84500:	dc400117 	ldw	r17,4(sp)
   84504:	dc000017 	ldw	r16,0(sp)
   84508:	dec00904 	addi	sp,sp,36
   8450c:	f800283a 	ret

00084510 <__fp_lock>:
   84510:	0005883a 	mov	r2,zero
   84514:	f800283a 	ret

00084518 <__sfmoreglue>:
   84518:	defffc04 	addi	sp,sp,-16
   8451c:	dc400115 	stw	r17,4(sp)
   84520:	2c7fffc4 	addi	r17,r5,-1
   84524:	8c401a24 	muli	r17,r17,104
   84528:	dc800215 	stw	r18,8(sp)
   8452c:	2825883a 	mov	r18,r5
   84530:	89401d04 	addi	r5,r17,116
   84534:	dc000015 	stw	r16,0(sp)
   84538:	dfc00315 	stw	ra,12(sp)
   8453c:	0084e780 	call	84e78 <_malloc_r>
   84540:	1021883a 	mov	r16,r2
   84544:	10000726 	beq	r2,zero,84564 <__sfmoreglue+0x4c>
   84548:	11000304 	addi	r4,r2,12
   8454c:	10000015 	stw	zero,0(r2)
   84550:	14800115 	stw	r18,4(r2)
   84554:	11000215 	stw	r4,8(r2)
   84558:	89801a04 	addi	r6,r17,104
   8455c:	000b883a 	mov	r5,zero
   84560:	00856840 	call	85684 <memset>
   84564:	8005883a 	mov	r2,r16
   84568:	dfc00317 	ldw	ra,12(sp)
   8456c:	dc800217 	ldw	r18,8(sp)
   84570:	dc400117 	ldw	r17,4(sp)
   84574:	dc000017 	ldw	r16,0(sp)
   84578:	dec00404 	addi	sp,sp,16
   8457c:	f800283a 	ret

00084580 <__sfp>:
   84580:	defffb04 	addi	sp,sp,-20
   84584:	dc000015 	stw	r16,0(sp)
   84588:	04000274 	movhi	r16,9
   8458c:	84215704 	addi	r16,r16,-31396
   84590:	dcc00315 	stw	r19,12(sp)
   84594:	2027883a 	mov	r19,r4
   84598:	81000017 	ldw	r4,0(r16)
   8459c:	dfc00415 	stw	ra,16(sp)
   845a0:	dc800215 	stw	r18,8(sp)
   845a4:	20800e17 	ldw	r2,56(r4)
   845a8:	dc400115 	stw	r17,4(sp)
   845ac:	1000021e 	bne	r2,zero,845b8 <__sfp+0x38>
   845b0:	00843740 	call	84374 <__sinit.part.1>
   845b4:	81000017 	ldw	r4,0(r16)
   845b8:	2480b804 	addi	r18,r4,736
   845bc:	047fffc4 	movi	r17,-1
   845c0:	91000117 	ldw	r4,4(r18)
   845c4:	94000217 	ldw	r16,8(r18)
   845c8:	213fffc4 	addi	r4,r4,-1
   845cc:	20000a16 	blt	r4,zero,845f8 <__sfp+0x78>
   845d0:	8080030f 	ldh	r2,12(r16)
   845d4:	10000c26 	beq	r2,zero,84608 <__sfp+0x88>
   845d8:	80c01d04 	addi	r3,r16,116
   845dc:	00000206 	br	845e8 <__sfp+0x68>
   845e0:	18bfe60f 	ldh	r2,-104(r3)
   845e4:	10000826 	beq	r2,zero,84608 <__sfp+0x88>
   845e8:	213fffc4 	addi	r4,r4,-1
   845ec:	1c3ffd04 	addi	r16,r3,-12
   845f0:	18c01a04 	addi	r3,r3,104
   845f4:	247ffa1e 	bne	r4,r17,845e0 <__alt_mem_RAM_block+0xfff82de0>
   845f8:	90800017 	ldw	r2,0(r18)
   845fc:	10001d26 	beq	r2,zero,84674 <__sfp+0xf4>
   84600:	1025883a 	mov	r18,r2
   84604:	003fee06 	br	845c0 <__alt_mem_RAM_block+0xfff82dc0>
   84608:	00bfffc4 	movi	r2,-1
   8460c:	8080038d 	sth	r2,14(r16)
   84610:	00800044 	movi	r2,1
   84614:	8080030d 	sth	r2,12(r16)
   84618:	80001915 	stw	zero,100(r16)
   8461c:	80000015 	stw	zero,0(r16)
   84620:	80000215 	stw	zero,8(r16)
   84624:	80000115 	stw	zero,4(r16)
   84628:	80000415 	stw	zero,16(r16)
   8462c:	80000515 	stw	zero,20(r16)
   84630:	80000615 	stw	zero,24(r16)
   84634:	01800204 	movi	r6,8
   84638:	000b883a 	mov	r5,zero
   8463c:	81001704 	addi	r4,r16,92
   84640:	00856840 	call	85684 <memset>
   84644:	8005883a 	mov	r2,r16
   84648:	80000c15 	stw	zero,48(r16)
   8464c:	80000d15 	stw	zero,52(r16)
   84650:	80001115 	stw	zero,68(r16)
   84654:	80001215 	stw	zero,72(r16)
   84658:	dfc00417 	ldw	ra,16(sp)
   8465c:	dcc00317 	ldw	r19,12(sp)
   84660:	dc800217 	ldw	r18,8(sp)
   84664:	dc400117 	ldw	r17,4(sp)
   84668:	dc000017 	ldw	r16,0(sp)
   8466c:	dec00504 	addi	sp,sp,20
   84670:	f800283a 	ret
   84674:	01400104 	movi	r5,4
   84678:	9809883a 	mov	r4,r19
   8467c:	00845180 	call	84518 <__sfmoreglue>
   84680:	90800015 	stw	r2,0(r18)
   84684:	103fde1e 	bne	r2,zero,84600 <__alt_mem_RAM_block+0xfff82e00>
   84688:	00800304 	movi	r2,12
   8468c:	98800015 	stw	r2,0(r19)
   84690:	0005883a 	mov	r2,zero
   84694:	003ff006 	br	84658 <__alt_mem_RAM_block+0xfff82e58>

00084698 <_cleanup>:
   84698:	00800274 	movhi	r2,9
   8469c:	10a15704 	addi	r2,r2,-31396
   846a0:	11000017 	ldw	r4,0(r2)
   846a4:	01400234 	movhi	r5,8
   846a8:	29567c04 	addi	r5,r5,23024
   846ac:	0084bf81 	jmpi	84bf8 <_fwalk_reent>

000846b0 <__sinit>:
   846b0:	20800e17 	ldw	r2,56(r4)
   846b4:	10000126 	beq	r2,zero,846bc <__sinit+0xc>
   846b8:	f800283a 	ret
   846bc:	00843741 	jmpi	84374 <__sinit.part.1>

000846c0 <__sfp_lock_acquire>:
   846c0:	f800283a 	ret

000846c4 <__sfp_lock_release>:
   846c4:	f800283a 	ret

000846c8 <__sinit_lock_acquire>:
   846c8:	f800283a 	ret

000846cc <__sinit_lock_release>:
   846cc:	f800283a 	ret

000846d0 <__fp_lock_all>:
   846d0:	00800274 	movhi	r2,9
   846d4:	10a15804 	addi	r2,r2,-31392
   846d8:	11000017 	ldw	r4,0(r2)
   846dc:	01400234 	movhi	r5,8
   846e0:	29514404 	addi	r5,r5,17680
   846e4:	0084b341 	jmpi	84b34 <_fwalk>

000846e8 <__fp_unlock_all>:
   846e8:	00800274 	movhi	r2,9
   846ec:	10a15804 	addi	r2,r2,-31392
   846f0:	11000017 	ldw	r4,0(r2)
   846f4:	01400234 	movhi	r5,8
   846f8:	2950d804 	addi	r5,r5,17248
   846fc:	0084b341 	jmpi	84b34 <_fwalk>

00084700 <_malloc_trim_r>:
   84700:	defffb04 	addi	sp,sp,-20
   84704:	dcc00315 	stw	r19,12(sp)
   84708:	04c00274 	movhi	r19,9
   8470c:	dc800215 	stw	r18,8(sp)
   84710:	dc400115 	stw	r17,4(sp)
   84714:	dc000015 	stw	r16,0(sp)
   84718:	dfc00415 	stw	ra,16(sp)
   8471c:	2821883a 	mov	r16,r5
   84720:	9ce04804 	addi	r19,r19,-32480
   84724:	2025883a 	mov	r18,r4
   84728:	0085f740 	call	85f74 <__malloc_lock>
   8472c:	98800217 	ldw	r2,8(r19)
   84730:	14400117 	ldw	r17,4(r2)
   84734:	00bfff04 	movi	r2,-4
   84738:	88a2703a 	and	r17,r17,r2
   8473c:	8c21c83a 	sub	r16,r17,r16
   84740:	8403fbc4 	addi	r16,r16,4079
   84744:	8020d33a 	srli	r16,r16,12
   84748:	0083ffc4 	movi	r2,4095
   8474c:	843fffc4 	addi	r16,r16,-1
   84750:	8020933a 	slli	r16,r16,12
   84754:	1400060e 	bge	r2,r16,84770 <_malloc_trim_r+0x70>
   84758:	000b883a 	mov	r5,zero
   8475c:	9009883a 	mov	r4,r18
   84760:	00857ac0 	call	857ac <_sbrk_r>
   84764:	98c00217 	ldw	r3,8(r19)
   84768:	1c47883a 	add	r3,r3,r17
   8476c:	10c00a26 	beq	r2,r3,84798 <_malloc_trim_r+0x98>
   84770:	9009883a 	mov	r4,r18
   84774:	0085f980 	call	85f98 <__malloc_unlock>
   84778:	0005883a 	mov	r2,zero
   8477c:	dfc00417 	ldw	ra,16(sp)
   84780:	dcc00317 	ldw	r19,12(sp)
   84784:	dc800217 	ldw	r18,8(sp)
   84788:	dc400117 	ldw	r17,4(sp)
   8478c:	dc000017 	ldw	r16,0(sp)
   84790:	dec00504 	addi	sp,sp,20
   84794:	f800283a 	ret
   84798:	040bc83a 	sub	r5,zero,r16
   8479c:	9009883a 	mov	r4,r18
   847a0:	00857ac0 	call	857ac <_sbrk_r>
   847a4:	00ffffc4 	movi	r3,-1
   847a8:	10c00d26 	beq	r2,r3,847e0 <_malloc_trim_r+0xe0>
   847ac:	00c00274 	movhi	r3,9
   847b0:	18eb1a04 	addi	r3,r3,-21400
   847b4:	18800017 	ldw	r2,0(r3)
   847b8:	99000217 	ldw	r4,8(r19)
   847bc:	8c23c83a 	sub	r17,r17,r16
   847c0:	8c400054 	ori	r17,r17,1
   847c4:	1421c83a 	sub	r16,r2,r16
   847c8:	24400115 	stw	r17,4(r4)
   847cc:	9009883a 	mov	r4,r18
   847d0:	1c000015 	stw	r16,0(r3)
   847d4:	0085f980 	call	85f98 <__malloc_unlock>
   847d8:	00800044 	movi	r2,1
   847dc:	003fe706 	br	8477c <__alt_mem_RAM_block+0xfff82f7c>
   847e0:	000b883a 	mov	r5,zero
   847e4:	9009883a 	mov	r4,r18
   847e8:	00857ac0 	call	857ac <_sbrk_r>
   847ec:	99000217 	ldw	r4,8(r19)
   847f0:	014003c4 	movi	r5,15
   847f4:	1107c83a 	sub	r3,r2,r4
   847f8:	28ffdd0e 	bge	r5,r3,84770 <__alt_mem_RAM_block+0xfff82f70>
   847fc:	01400274 	movhi	r5,9
   84800:	29615904 	addi	r5,r5,-31388
   84804:	29400017 	ldw	r5,0(r5)
   84808:	18c00054 	ori	r3,r3,1
   8480c:	20c00115 	stw	r3,4(r4)
   84810:	00c00274 	movhi	r3,9
   84814:	1145c83a 	sub	r2,r2,r5
   84818:	18eb1a04 	addi	r3,r3,-21400
   8481c:	18800015 	stw	r2,0(r3)
   84820:	003fd306 	br	84770 <__alt_mem_RAM_block+0xfff82f70>

00084824 <_free_r>:
   84824:	28004126 	beq	r5,zero,8492c <_free_r+0x108>
   84828:	defffd04 	addi	sp,sp,-12
   8482c:	dc400115 	stw	r17,4(sp)
   84830:	dc000015 	stw	r16,0(sp)
   84834:	2023883a 	mov	r17,r4
   84838:	2821883a 	mov	r16,r5
   8483c:	dfc00215 	stw	ra,8(sp)
   84840:	0085f740 	call	85f74 <__malloc_lock>
   84844:	81ffff17 	ldw	r7,-4(r16)
   84848:	00bfff84 	movi	r2,-2
   8484c:	01000274 	movhi	r4,9
   84850:	81bffe04 	addi	r6,r16,-8
   84854:	3884703a 	and	r2,r7,r2
   84858:	21204804 	addi	r4,r4,-32480
   8485c:	308b883a 	add	r5,r6,r2
   84860:	2a400117 	ldw	r9,4(r5)
   84864:	22000217 	ldw	r8,8(r4)
   84868:	00ffff04 	movi	r3,-4
   8486c:	48c6703a 	and	r3,r9,r3
   84870:	2a005726 	beq	r5,r8,849d0 <_free_r+0x1ac>
   84874:	28c00115 	stw	r3,4(r5)
   84878:	39c0004c 	andi	r7,r7,1
   8487c:	3800091e 	bne	r7,zero,848a4 <_free_r+0x80>
   84880:	823ffe17 	ldw	r8,-8(r16)
   84884:	22400204 	addi	r9,r4,8
   84888:	320dc83a 	sub	r6,r6,r8
   8488c:	31c00217 	ldw	r7,8(r6)
   84890:	1205883a 	add	r2,r2,r8
   84894:	3a406526 	beq	r7,r9,84a2c <_free_r+0x208>
   84898:	32000317 	ldw	r8,12(r6)
   8489c:	3a000315 	stw	r8,12(r7)
   848a0:	41c00215 	stw	r7,8(r8)
   848a4:	28cf883a 	add	r7,r5,r3
   848a8:	39c00117 	ldw	r7,4(r7)
   848ac:	39c0004c 	andi	r7,r7,1
   848b0:	38003a26 	beq	r7,zero,8499c <_free_r+0x178>
   848b4:	10c00054 	ori	r3,r2,1
   848b8:	30c00115 	stw	r3,4(r6)
   848bc:	3087883a 	add	r3,r6,r2
   848c0:	18800015 	stw	r2,0(r3)
   848c4:	00c07fc4 	movi	r3,511
   848c8:	18801936 	bltu	r3,r2,84930 <_free_r+0x10c>
   848cc:	1004d0fa 	srli	r2,r2,3
   848d0:	01c00044 	movi	r7,1
   848d4:	21400117 	ldw	r5,4(r4)
   848d8:	10c00044 	addi	r3,r2,1
   848dc:	18c7883a 	add	r3,r3,r3
   848e0:	1005d0ba 	srai	r2,r2,2
   848e4:	18c7883a 	add	r3,r3,r3
   848e8:	18c7883a 	add	r3,r3,r3
   848ec:	1907883a 	add	r3,r3,r4
   848f0:	3884983a 	sll	r2,r7,r2
   848f4:	19c00017 	ldw	r7,0(r3)
   848f8:	1a3ffe04 	addi	r8,r3,-8
   848fc:	1144b03a 	or	r2,r2,r5
   84900:	32000315 	stw	r8,12(r6)
   84904:	31c00215 	stw	r7,8(r6)
   84908:	20800115 	stw	r2,4(r4)
   8490c:	19800015 	stw	r6,0(r3)
   84910:	39800315 	stw	r6,12(r7)
   84914:	8809883a 	mov	r4,r17
   84918:	dfc00217 	ldw	ra,8(sp)
   8491c:	dc400117 	ldw	r17,4(sp)
   84920:	dc000017 	ldw	r16,0(sp)
   84924:	dec00304 	addi	sp,sp,12
   84928:	0085f981 	jmpi	85f98 <__malloc_unlock>
   8492c:	f800283a 	ret
   84930:	100ad27a 	srli	r5,r2,9
   84934:	00c00104 	movi	r3,4
   84938:	19404a36 	bltu	r3,r5,84a64 <_free_r+0x240>
   8493c:	100ad1ba 	srli	r5,r2,6
   84940:	28c00e44 	addi	r3,r5,57
   84944:	18c7883a 	add	r3,r3,r3
   84948:	29400e04 	addi	r5,r5,56
   8494c:	18c7883a 	add	r3,r3,r3
   84950:	18c7883a 	add	r3,r3,r3
   84954:	1909883a 	add	r4,r3,r4
   84958:	20c00017 	ldw	r3,0(r4)
   8495c:	01c00274 	movhi	r7,9
   84960:	213ffe04 	addi	r4,r4,-8
   84964:	39e04804 	addi	r7,r7,-32480
   84968:	20c04426 	beq	r4,r3,84a7c <_free_r+0x258>
   8496c:	01ffff04 	movi	r7,-4
   84970:	19400117 	ldw	r5,4(r3)
   84974:	29ca703a 	and	r5,r5,r7
   84978:	1140022e 	bgeu	r2,r5,84984 <_free_r+0x160>
   8497c:	18c00217 	ldw	r3,8(r3)
   84980:	20fffb1e 	bne	r4,r3,84970 <__alt_mem_RAM_block+0xfff83170>
   84984:	19000317 	ldw	r4,12(r3)
   84988:	31000315 	stw	r4,12(r6)
   8498c:	30c00215 	stw	r3,8(r6)
   84990:	21800215 	stw	r6,8(r4)
   84994:	19800315 	stw	r6,12(r3)
   84998:	003fde06 	br	84914 <__alt_mem_RAM_block+0xfff83114>
   8499c:	29c00217 	ldw	r7,8(r5)
   849a0:	10c5883a 	add	r2,r2,r3
   849a4:	00c00274 	movhi	r3,9
   849a8:	18e04a04 	addi	r3,r3,-32472
   849ac:	38c03b26 	beq	r7,r3,84a9c <_free_r+0x278>
   849b0:	2a000317 	ldw	r8,12(r5)
   849b4:	11400054 	ori	r5,r2,1
   849b8:	3087883a 	add	r3,r6,r2
   849bc:	3a000315 	stw	r8,12(r7)
   849c0:	41c00215 	stw	r7,8(r8)
   849c4:	31400115 	stw	r5,4(r6)
   849c8:	18800015 	stw	r2,0(r3)
   849cc:	003fbd06 	br	848c4 <__alt_mem_RAM_block+0xfff830c4>
   849d0:	39c0004c 	andi	r7,r7,1
   849d4:	10c5883a 	add	r2,r2,r3
   849d8:	3800071e 	bne	r7,zero,849f8 <_free_r+0x1d4>
   849dc:	81fffe17 	ldw	r7,-8(r16)
   849e0:	31cdc83a 	sub	r6,r6,r7
   849e4:	30c00317 	ldw	r3,12(r6)
   849e8:	31400217 	ldw	r5,8(r6)
   849ec:	11c5883a 	add	r2,r2,r7
   849f0:	28c00315 	stw	r3,12(r5)
   849f4:	19400215 	stw	r5,8(r3)
   849f8:	10c00054 	ori	r3,r2,1
   849fc:	30c00115 	stw	r3,4(r6)
   84a00:	00c00274 	movhi	r3,9
   84a04:	18e15a04 	addi	r3,r3,-31384
   84a08:	18c00017 	ldw	r3,0(r3)
   84a0c:	21800215 	stw	r6,8(r4)
   84a10:	10ffc036 	bltu	r2,r3,84914 <__alt_mem_RAM_block+0xfff83114>
   84a14:	00800274 	movhi	r2,9
   84a18:	10a99d04 	addi	r2,r2,-22924
   84a1c:	11400017 	ldw	r5,0(r2)
   84a20:	8809883a 	mov	r4,r17
   84a24:	00847000 	call	84700 <_malloc_trim_r>
   84a28:	003fba06 	br	84914 <__alt_mem_RAM_block+0xfff83114>
   84a2c:	28c9883a 	add	r4,r5,r3
   84a30:	21000117 	ldw	r4,4(r4)
   84a34:	2100004c 	andi	r4,r4,1
   84a38:	2000391e 	bne	r4,zero,84b20 <_free_r+0x2fc>
   84a3c:	29c00217 	ldw	r7,8(r5)
   84a40:	29000317 	ldw	r4,12(r5)
   84a44:	1885883a 	add	r2,r3,r2
   84a48:	10c00054 	ori	r3,r2,1
   84a4c:	39000315 	stw	r4,12(r7)
   84a50:	21c00215 	stw	r7,8(r4)
   84a54:	30c00115 	stw	r3,4(r6)
   84a58:	308d883a 	add	r6,r6,r2
   84a5c:	30800015 	stw	r2,0(r6)
   84a60:	003fac06 	br	84914 <__alt_mem_RAM_block+0xfff83114>
   84a64:	00c00504 	movi	r3,20
   84a68:	19401536 	bltu	r3,r5,84ac0 <_free_r+0x29c>
   84a6c:	28c01704 	addi	r3,r5,92
   84a70:	18c7883a 	add	r3,r3,r3
   84a74:	294016c4 	addi	r5,r5,91
   84a78:	003fb406 	br	8494c <__alt_mem_RAM_block+0xfff8314c>
   84a7c:	280bd0ba 	srai	r5,r5,2
   84a80:	00c00044 	movi	r3,1
   84a84:	38800117 	ldw	r2,4(r7)
   84a88:	194a983a 	sll	r5,r3,r5
   84a8c:	2007883a 	mov	r3,r4
   84a90:	2884b03a 	or	r2,r5,r2
   84a94:	38800115 	stw	r2,4(r7)
   84a98:	003fbb06 	br	84988 <__alt_mem_RAM_block+0xfff83188>
   84a9c:	21800515 	stw	r6,20(r4)
   84aa0:	21800415 	stw	r6,16(r4)
   84aa4:	10c00054 	ori	r3,r2,1
   84aa8:	31c00315 	stw	r7,12(r6)
   84aac:	31c00215 	stw	r7,8(r6)
   84ab0:	30c00115 	stw	r3,4(r6)
   84ab4:	308d883a 	add	r6,r6,r2
   84ab8:	30800015 	stw	r2,0(r6)
   84abc:	003f9506 	br	84914 <__alt_mem_RAM_block+0xfff83114>
   84ac0:	00c01504 	movi	r3,84
   84ac4:	19400536 	bltu	r3,r5,84adc <_free_r+0x2b8>
   84ac8:	100ad33a 	srli	r5,r2,12
   84acc:	28c01bc4 	addi	r3,r5,111
   84ad0:	18c7883a 	add	r3,r3,r3
   84ad4:	29401b84 	addi	r5,r5,110
   84ad8:	003f9c06 	br	8494c <__alt_mem_RAM_block+0xfff8314c>
   84adc:	00c05504 	movi	r3,340
   84ae0:	19400536 	bltu	r3,r5,84af8 <_free_r+0x2d4>
   84ae4:	100ad3fa 	srli	r5,r2,15
   84ae8:	28c01e04 	addi	r3,r5,120
   84aec:	18c7883a 	add	r3,r3,r3
   84af0:	29401dc4 	addi	r5,r5,119
   84af4:	003f9506 	br	8494c <__alt_mem_RAM_block+0xfff8314c>
   84af8:	00c15504 	movi	r3,1364
   84afc:	19400536 	bltu	r3,r5,84b14 <_free_r+0x2f0>
   84b00:	100ad4ba 	srli	r5,r2,18
   84b04:	28c01f44 	addi	r3,r5,125
   84b08:	18c7883a 	add	r3,r3,r3
   84b0c:	29401f04 	addi	r5,r5,124
   84b10:	003f8e06 	br	8494c <__alt_mem_RAM_block+0xfff8314c>
   84b14:	00c03f84 	movi	r3,254
   84b18:	01401f84 	movi	r5,126
   84b1c:	003f8b06 	br	8494c <__alt_mem_RAM_block+0xfff8314c>
   84b20:	10c00054 	ori	r3,r2,1
   84b24:	30c00115 	stw	r3,4(r6)
   84b28:	308d883a 	add	r6,r6,r2
   84b2c:	30800015 	stw	r2,0(r6)
   84b30:	003f7806 	br	84914 <__alt_mem_RAM_block+0xfff83114>

00084b34 <_fwalk>:
   84b34:	defff704 	addi	sp,sp,-36
   84b38:	dd000415 	stw	r20,16(sp)
   84b3c:	dfc00815 	stw	ra,32(sp)
   84b40:	ddc00715 	stw	r23,28(sp)
   84b44:	dd800615 	stw	r22,24(sp)
   84b48:	dd400515 	stw	r21,20(sp)
   84b4c:	dcc00315 	stw	r19,12(sp)
   84b50:	dc800215 	stw	r18,8(sp)
   84b54:	dc400115 	stw	r17,4(sp)
   84b58:	dc000015 	stw	r16,0(sp)
   84b5c:	2500b804 	addi	r20,r4,736
   84b60:	a0002326 	beq	r20,zero,84bf0 <_fwalk+0xbc>
   84b64:	282b883a 	mov	r21,r5
   84b68:	002f883a 	mov	r23,zero
   84b6c:	05800044 	movi	r22,1
   84b70:	04ffffc4 	movi	r19,-1
   84b74:	a4400117 	ldw	r17,4(r20)
   84b78:	a4800217 	ldw	r18,8(r20)
   84b7c:	8c7fffc4 	addi	r17,r17,-1
   84b80:	88000d16 	blt	r17,zero,84bb8 <_fwalk+0x84>
   84b84:	94000304 	addi	r16,r18,12
   84b88:	94800384 	addi	r18,r18,14
   84b8c:	8080000b 	ldhu	r2,0(r16)
   84b90:	8c7fffc4 	addi	r17,r17,-1
   84b94:	813ffd04 	addi	r4,r16,-12
   84b98:	b080042e 	bgeu	r22,r2,84bac <_fwalk+0x78>
   84b9c:	9080000f 	ldh	r2,0(r18)
   84ba0:	14c00226 	beq	r2,r19,84bac <_fwalk+0x78>
   84ba4:	a83ee83a 	callr	r21
   84ba8:	b8aeb03a 	or	r23,r23,r2
   84bac:	84001a04 	addi	r16,r16,104
   84bb0:	94801a04 	addi	r18,r18,104
   84bb4:	8cfff51e 	bne	r17,r19,84b8c <__alt_mem_RAM_block+0xfff8338c>
   84bb8:	a5000017 	ldw	r20,0(r20)
   84bbc:	a03fed1e 	bne	r20,zero,84b74 <__alt_mem_RAM_block+0xfff83374>
   84bc0:	b805883a 	mov	r2,r23
   84bc4:	dfc00817 	ldw	ra,32(sp)
   84bc8:	ddc00717 	ldw	r23,28(sp)
   84bcc:	dd800617 	ldw	r22,24(sp)
   84bd0:	dd400517 	ldw	r21,20(sp)
   84bd4:	dd000417 	ldw	r20,16(sp)
   84bd8:	dcc00317 	ldw	r19,12(sp)
   84bdc:	dc800217 	ldw	r18,8(sp)
   84be0:	dc400117 	ldw	r17,4(sp)
   84be4:	dc000017 	ldw	r16,0(sp)
   84be8:	dec00904 	addi	sp,sp,36
   84bec:	f800283a 	ret
   84bf0:	002f883a 	mov	r23,zero
   84bf4:	003ff206 	br	84bc0 <__alt_mem_RAM_block+0xfff833c0>

00084bf8 <_fwalk_reent>:
   84bf8:	defff704 	addi	sp,sp,-36
   84bfc:	dd000415 	stw	r20,16(sp)
   84c00:	dfc00815 	stw	ra,32(sp)
   84c04:	ddc00715 	stw	r23,28(sp)
   84c08:	dd800615 	stw	r22,24(sp)
   84c0c:	dd400515 	stw	r21,20(sp)
   84c10:	dcc00315 	stw	r19,12(sp)
   84c14:	dc800215 	stw	r18,8(sp)
   84c18:	dc400115 	stw	r17,4(sp)
   84c1c:	dc000015 	stw	r16,0(sp)
   84c20:	2500b804 	addi	r20,r4,736
   84c24:	a0002326 	beq	r20,zero,84cb4 <_fwalk_reent+0xbc>
   84c28:	282b883a 	mov	r21,r5
   84c2c:	2027883a 	mov	r19,r4
   84c30:	002f883a 	mov	r23,zero
   84c34:	05800044 	movi	r22,1
   84c38:	04bfffc4 	movi	r18,-1
   84c3c:	a4400117 	ldw	r17,4(r20)
   84c40:	a4000217 	ldw	r16,8(r20)
   84c44:	8c7fffc4 	addi	r17,r17,-1
   84c48:	88000c16 	blt	r17,zero,84c7c <_fwalk_reent+0x84>
   84c4c:	84000304 	addi	r16,r16,12
   84c50:	8080000b 	ldhu	r2,0(r16)
   84c54:	8c7fffc4 	addi	r17,r17,-1
   84c58:	817ffd04 	addi	r5,r16,-12
   84c5c:	b080052e 	bgeu	r22,r2,84c74 <_fwalk_reent+0x7c>
   84c60:	8080008f 	ldh	r2,2(r16)
   84c64:	9809883a 	mov	r4,r19
   84c68:	14800226 	beq	r2,r18,84c74 <_fwalk_reent+0x7c>
   84c6c:	a83ee83a 	callr	r21
   84c70:	b8aeb03a 	or	r23,r23,r2
   84c74:	84001a04 	addi	r16,r16,104
   84c78:	8cbff51e 	bne	r17,r18,84c50 <__alt_mem_RAM_block+0xfff83450>
   84c7c:	a5000017 	ldw	r20,0(r20)
   84c80:	a03fee1e 	bne	r20,zero,84c3c <__alt_mem_RAM_block+0xfff8343c>
   84c84:	b805883a 	mov	r2,r23
   84c88:	dfc00817 	ldw	ra,32(sp)
   84c8c:	ddc00717 	ldw	r23,28(sp)
   84c90:	dd800617 	ldw	r22,24(sp)
   84c94:	dd400517 	ldw	r21,20(sp)
   84c98:	dd000417 	ldw	r20,16(sp)
   84c9c:	dcc00317 	ldw	r19,12(sp)
   84ca0:	dc800217 	ldw	r18,8(sp)
   84ca4:	dc400117 	ldw	r17,4(sp)
   84ca8:	dc000017 	ldw	r16,0(sp)
   84cac:	dec00904 	addi	sp,sp,36
   84cb0:	f800283a 	ret
   84cb4:	002f883a 	mov	r23,zero
   84cb8:	003ff206 	br	84c84 <__alt_mem_RAM_block+0xfff83484>

00084cbc <__smakebuf_r>:
   84cbc:	2880030b 	ldhu	r2,12(r5)
   84cc0:	10c0008c 	andi	r3,r2,2
   84cc4:	1800411e 	bne	r3,zero,84dcc <__smakebuf_r+0x110>
   84cc8:	deffec04 	addi	sp,sp,-80
   84ccc:	dc000f15 	stw	r16,60(sp)
   84cd0:	2821883a 	mov	r16,r5
   84cd4:	2940038f 	ldh	r5,14(r5)
   84cd8:	dc401015 	stw	r17,64(sp)
   84cdc:	dfc01315 	stw	ra,76(sp)
   84ce0:	dcc01215 	stw	r19,72(sp)
   84ce4:	dc801115 	stw	r18,68(sp)
   84ce8:	2023883a 	mov	r17,r4
   84cec:	28001c16 	blt	r5,zero,84d60 <__smakebuf_r+0xa4>
   84cf0:	d80d883a 	mov	r6,sp
   84cf4:	0085af40 	call	85af4 <_fstat_r>
   84cf8:	10001816 	blt	r2,zero,84d5c <__smakebuf_r+0xa0>
   84cfc:	d8800117 	ldw	r2,4(sp)
   84d00:	00e00014 	movui	r3,32768
   84d04:	10bc000c 	andi	r2,r2,61440
   84d08:	14c80020 	cmpeqi	r19,r2,8192
   84d0c:	10c03726 	beq	r2,r3,84dec <__smakebuf_r+0x130>
   84d10:	80c0030b 	ldhu	r3,12(r16)
   84d14:	18c20014 	ori	r3,r3,2048
   84d18:	80c0030d 	sth	r3,12(r16)
   84d1c:	00c80004 	movi	r3,8192
   84d20:	10c0521e 	bne	r2,r3,84e6c <__smakebuf_r+0x1b0>
   84d24:	8140038f 	ldh	r5,14(r16)
   84d28:	8809883a 	mov	r4,r17
   84d2c:	0085b500 	call	85b50 <_isatty_r>
   84d30:	10004c26 	beq	r2,zero,84e64 <__smakebuf_r+0x1a8>
   84d34:	8080030b 	ldhu	r2,12(r16)
   84d38:	80c010c4 	addi	r3,r16,67
   84d3c:	80c00015 	stw	r3,0(r16)
   84d40:	10800054 	ori	r2,r2,1
   84d44:	8080030d 	sth	r2,12(r16)
   84d48:	00800044 	movi	r2,1
   84d4c:	80c00415 	stw	r3,16(r16)
   84d50:	80800515 	stw	r2,20(r16)
   84d54:	04810004 	movi	r18,1024
   84d58:	00000706 	br	84d78 <__smakebuf_r+0xbc>
   84d5c:	8080030b 	ldhu	r2,12(r16)
   84d60:	10c0200c 	andi	r3,r2,128
   84d64:	18001f1e 	bne	r3,zero,84de4 <__smakebuf_r+0x128>
   84d68:	04810004 	movi	r18,1024
   84d6c:	10820014 	ori	r2,r2,2048
   84d70:	8080030d 	sth	r2,12(r16)
   84d74:	0027883a 	mov	r19,zero
   84d78:	900b883a 	mov	r5,r18
   84d7c:	8809883a 	mov	r4,r17
   84d80:	0084e780 	call	84e78 <_malloc_r>
   84d84:	10002c26 	beq	r2,zero,84e38 <__smakebuf_r+0x17c>
   84d88:	80c0030b 	ldhu	r3,12(r16)
   84d8c:	01000234 	movhi	r4,8
   84d90:	2110da04 	addi	r4,r4,17256
   84d94:	89000f15 	stw	r4,60(r17)
   84d98:	18c02014 	ori	r3,r3,128
   84d9c:	80c0030d 	sth	r3,12(r16)
   84da0:	80800015 	stw	r2,0(r16)
   84da4:	80800415 	stw	r2,16(r16)
   84da8:	84800515 	stw	r18,20(r16)
   84dac:	98001a1e 	bne	r19,zero,84e18 <__smakebuf_r+0x15c>
   84db0:	dfc01317 	ldw	ra,76(sp)
   84db4:	dcc01217 	ldw	r19,72(sp)
   84db8:	dc801117 	ldw	r18,68(sp)
   84dbc:	dc401017 	ldw	r17,64(sp)
   84dc0:	dc000f17 	ldw	r16,60(sp)
   84dc4:	dec01404 	addi	sp,sp,80
   84dc8:	f800283a 	ret
   84dcc:	288010c4 	addi	r2,r5,67
   84dd0:	28800015 	stw	r2,0(r5)
   84dd4:	28800415 	stw	r2,16(r5)
   84dd8:	00800044 	movi	r2,1
   84ddc:	28800515 	stw	r2,20(r5)
   84de0:	f800283a 	ret
   84de4:	04801004 	movi	r18,64
   84de8:	003fe006 	br	84d6c <__alt_mem_RAM_block+0xfff8356c>
   84dec:	81000a17 	ldw	r4,40(r16)
   84df0:	00c00234 	movhi	r3,8
   84df4:	18d63604 	addi	r3,r3,22744
   84df8:	20ffc51e 	bne	r4,r3,84d10 <__alt_mem_RAM_block+0xfff83510>
   84dfc:	8080030b 	ldhu	r2,12(r16)
   84e00:	04810004 	movi	r18,1024
   84e04:	84801315 	stw	r18,76(r16)
   84e08:	1484b03a 	or	r2,r2,r18
   84e0c:	8080030d 	sth	r2,12(r16)
   84e10:	0027883a 	mov	r19,zero
   84e14:	003fd806 	br	84d78 <__alt_mem_RAM_block+0xfff83578>
   84e18:	8140038f 	ldh	r5,14(r16)
   84e1c:	8809883a 	mov	r4,r17
   84e20:	0085b500 	call	85b50 <_isatty_r>
   84e24:	103fe226 	beq	r2,zero,84db0 <__alt_mem_RAM_block+0xfff835b0>
   84e28:	8080030b 	ldhu	r2,12(r16)
   84e2c:	10800054 	ori	r2,r2,1
   84e30:	8080030d 	sth	r2,12(r16)
   84e34:	003fde06 	br	84db0 <__alt_mem_RAM_block+0xfff835b0>
   84e38:	8080030b 	ldhu	r2,12(r16)
   84e3c:	10c0800c 	andi	r3,r2,512
   84e40:	183fdb1e 	bne	r3,zero,84db0 <__alt_mem_RAM_block+0xfff835b0>
   84e44:	10800094 	ori	r2,r2,2
   84e48:	80c010c4 	addi	r3,r16,67
   84e4c:	8080030d 	sth	r2,12(r16)
   84e50:	00800044 	movi	r2,1
   84e54:	80c00015 	stw	r3,0(r16)
   84e58:	80c00415 	stw	r3,16(r16)
   84e5c:	80800515 	stw	r2,20(r16)
   84e60:	003fd306 	br	84db0 <__alt_mem_RAM_block+0xfff835b0>
   84e64:	04810004 	movi	r18,1024
   84e68:	003fc306 	br	84d78 <__alt_mem_RAM_block+0xfff83578>
   84e6c:	0027883a 	mov	r19,zero
   84e70:	04810004 	movi	r18,1024
   84e74:	003fc006 	br	84d78 <__alt_mem_RAM_block+0xfff83578>

00084e78 <_malloc_r>:
   84e78:	defff504 	addi	sp,sp,-44
   84e7c:	dc800315 	stw	r18,12(sp)
   84e80:	dfc00a15 	stw	ra,40(sp)
   84e84:	df000915 	stw	fp,36(sp)
   84e88:	ddc00815 	stw	r23,32(sp)
   84e8c:	dd800715 	stw	r22,28(sp)
   84e90:	dd400615 	stw	r21,24(sp)
   84e94:	dd000515 	stw	r20,20(sp)
   84e98:	dcc00415 	stw	r19,16(sp)
   84e9c:	dc400215 	stw	r17,8(sp)
   84ea0:	dc000115 	stw	r16,4(sp)
   84ea4:	288002c4 	addi	r2,r5,11
   84ea8:	00c00584 	movi	r3,22
   84eac:	2025883a 	mov	r18,r4
   84eb0:	18807f2e 	bgeu	r3,r2,850b0 <_malloc_r+0x238>
   84eb4:	047ffe04 	movi	r17,-8
   84eb8:	1462703a 	and	r17,r2,r17
   84ebc:	8800a316 	blt	r17,zero,8514c <_malloc_r+0x2d4>
   84ec0:	8940a236 	bltu	r17,r5,8514c <_malloc_r+0x2d4>
   84ec4:	0085f740 	call	85f74 <__malloc_lock>
   84ec8:	00807dc4 	movi	r2,503
   84ecc:	1441e92e 	bgeu	r2,r17,85674 <_malloc_r+0x7fc>
   84ed0:	8804d27a 	srli	r2,r17,9
   84ed4:	1000a126 	beq	r2,zero,8515c <_malloc_r+0x2e4>
   84ed8:	00c00104 	movi	r3,4
   84edc:	18811e36 	bltu	r3,r2,85358 <_malloc_r+0x4e0>
   84ee0:	8804d1ba 	srli	r2,r17,6
   84ee4:	12000e44 	addi	r8,r2,57
   84ee8:	11c00e04 	addi	r7,r2,56
   84eec:	4209883a 	add	r4,r8,r8
   84ef0:	04c00274 	movhi	r19,9
   84ef4:	2109883a 	add	r4,r4,r4
   84ef8:	9ce04804 	addi	r19,r19,-32480
   84efc:	2109883a 	add	r4,r4,r4
   84f00:	9909883a 	add	r4,r19,r4
   84f04:	24000117 	ldw	r16,4(r4)
   84f08:	213ffe04 	addi	r4,r4,-8
   84f0c:	24009726 	beq	r4,r16,8516c <_malloc_r+0x2f4>
   84f10:	80800117 	ldw	r2,4(r16)
   84f14:	01bfff04 	movi	r6,-4
   84f18:	014003c4 	movi	r5,15
   84f1c:	1184703a 	and	r2,r2,r6
   84f20:	1447c83a 	sub	r3,r2,r17
   84f24:	28c00716 	blt	r5,r3,84f44 <_malloc_r+0xcc>
   84f28:	1800920e 	bge	r3,zero,85174 <_malloc_r+0x2fc>
   84f2c:	84000317 	ldw	r16,12(r16)
   84f30:	24008e26 	beq	r4,r16,8516c <_malloc_r+0x2f4>
   84f34:	80800117 	ldw	r2,4(r16)
   84f38:	1184703a 	and	r2,r2,r6
   84f3c:	1447c83a 	sub	r3,r2,r17
   84f40:	28fff90e 	bge	r5,r3,84f28 <__alt_mem_RAM_block+0xfff83728>
   84f44:	3809883a 	mov	r4,r7
   84f48:	01800274 	movhi	r6,9
   84f4c:	9c000417 	ldw	r16,16(r19)
   84f50:	31a04804 	addi	r6,r6,-32480
   84f54:	32000204 	addi	r8,r6,8
   84f58:	82013426 	beq	r16,r8,8542c <_malloc_r+0x5b4>
   84f5c:	80c00117 	ldw	r3,4(r16)
   84f60:	00bfff04 	movi	r2,-4
   84f64:	188e703a 	and	r7,r3,r2
   84f68:	3c45c83a 	sub	r2,r7,r17
   84f6c:	00c003c4 	movi	r3,15
   84f70:	18811f16 	blt	r3,r2,853f0 <_malloc_r+0x578>
   84f74:	32000515 	stw	r8,20(r6)
   84f78:	32000415 	stw	r8,16(r6)
   84f7c:	10007f0e 	bge	r2,zero,8517c <_malloc_r+0x304>
   84f80:	00807fc4 	movi	r2,511
   84f84:	11c0fd36 	bltu	r2,r7,8537c <_malloc_r+0x504>
   84f88:	3806d0fa 	srli	r3,r7,3
   84f8c:	01c00044 	movi	r7,1
   84f90:	30800117 	ldw	r2,4(r6)
   84f94:	19400044 	addi	r5,r3,1
   84f98:	294b883a 	add	r5,r5,r5
   84f9c:	1807d0ba 	srai	r3,r3,2
   84fa0:	294b883a 	add	r5,r5,r5
   84fa4:	294b883a 	add	r5,r5,r5
   84fa8:	298b883a 	add	r5,r5,r6
   84fac:	38c6983a 	sll	r3,r7,r3
   84fb0:	29c00017 	ldw	r7,0(r5)
   84fb4:	2a7ffe04 	addi	r9,r5,-8
   84fb8:	1886b03a 	or	r3,r3,r2
   84fbc:	82400315 	stw	r9,12(r16)
   84fc0:	81c00215 	stw	r7,8(r16)
   84fc4:	30c00115 	stw	r3,4(r6)
   84fc8:	2c000015 	stw	r16,0(r5)
   84fcc:	3c000315 	stw	r16,12(r7)
   84fd0:	2005d0ba 	srai	r2,r4,2
   84fd4:	01400044 	movi	r5,1
   84fd8:	288a983a 	sll	r5,r5,r2
   84fdc:	19406f36 	bltu	r3,r5,8519c <_malloc_r+0x324>
   84fe0:	28c4703a 	and	r2,r5,r3
   84fe4:	10000a1e 	bne	r2,zero,85010 <_malloc_r+0x198>
   84fe8:	00bfff04 	movi	r2,-4
   84fec:	294b883a 	add	r5,r5,r5
   84ff0:	2088703a 	and	r4,r4,r2
   84ff4:	28c4703a 	and	r2,r5,r3
   84ff8:	21000104 	addi	r4,r4,4
   84ffc:	1000041e 	bne	r2,zero,85010 <_malloc_r+0x198>
   85000:	294b883a 	add	r5,r5,r5
   85004:	28c4703a 	and	r2,r5,r3
   85008:	21000104 	addi	r4,r4,4
   8500c:	103ffc26 	beq	r2,zero,85000 <__alt_mem_RAM_block+0xfff83800>
   85010:	02bfff04 	movi	r10,-4
   85014:	024003c4 	movi	r9,15
   85018:	21800044 	addi	r6,r4,1
   8501c:	318d883a 	add	r6,r6,r6
   85020:	318d883a 	add	r6,r6,r6
   85024:	318d883a 	add	r6,r6,r6
   85028:	998d883a 	add	r6,r19,r6
   8502c:	333ffe04 	addi	r12,r6,-8
   85030:	2017883a 	mov	r11,r4
   85034:	31800104 	addi	r6,r6,4
   85038:	34000017 	ldw	r16,0(r6)
   8503c:	31fffd04 	addi	r7,r6,-12
   85040:	81c0041e 	bne	r16,r7,85054 <_malloc_r+0x1dc>
   85044:	0000fb06 	br	85434 <_malloc_r+0x5bc>
   85048:	1801030e 	bge	r3,zero,85458 <_malloc_r+0x5e0>
   8504c:	84000317 	ldw	r16,12(r16)
   85050:	81c0f826 	beq	r16,r7,85434 <_malloc_r+0x5bc>
   85054:	80800117 	ldw	r2,4(r16)
   85058:	1284703a 	and	r2,r2,r10
   8505c:	1447c83a 	sub	r3,r2,r17
   85060:	48fff90e 	bge	r9,r3,85048 <__alt_mem_RAM_block+0xfff83848>
   85064:	80800317 	ldw	r2,12(r16)
   85068:	81000217 	ldw	r4,8(r16)
   8506c:	89400054 	ori	r5,r17,1
   85070:	81400115 	stw	r5,4(r16)
   85074:	20800315 	stw	r2,12(r4)
   85078:	11000215 	stw	r4,8(r2)
   8507c:	8463883a 	add	r17,r16,r17
   85080:	9c400515 	stw	r17,20(r19)
   85084:	9c400415 	stw	r17,16(r19)
   85088:	18800054 	ori	r2,r3,1
   8508c:	88800115 	stw	r2,4(r17)
   85090:	8a000315 	stw	r8,12(r17)
   85094:	8a000215 	stw	r8,8(r17)
   85098:	88e3883a 	add	r17,r17,r3
   8509c:	88c00015 	stw	r3,0(r17)
   850a0:	9009883a 	mov	r4,r18
   850a4:	0085f980 	call	85f98 <__malloc_unlock>
   850a8:	80800204 	addi	r2,r16,8
   850ac:	00001b06 	br	8511c <_malloc_r+0x2a4>
   850b0:	04400404 	movi	r17,16
   850b4:	89402536 	bltu	r17,r5,8514c <_malloc_r+0x2d4>
   850b8:	0085f740 	call	85f74 <__malloc_lock>
   850bc:	00800184 	movi	r2,6
   850c0:	01000084 	movi	r4,2
   850c4:	04c00274 	movhi	r19,9
   850c8:	1085883a 	add	r2,r2,r2
   850cc:	9ce04804 	addi	r19,r19,-32480
   850d0:	1085883a 	add	r2,r2,r2
   850d4:	9885883a 	add	r2,r19,r2
   850d8:	14000117 	ldw	r16,4(r2)
   850dc:	10fffe04 	addi	r3,r2,-8
   850e0:	80c0d926 	beq	r16,r3,85448 <_malloc_r+0x5d0>
   850e4:	80c00117 	ldw	r3,4(r16)
   850e8:	81000317 	ldw	r4,12(r16)
   850ec:	00bfff04 	movi	r2,-4
   850f0:	1884703a 	and	r2,r3,r2
   850f4:	81400217 	ldw	r5,8(r16)
   850f8:	8085883a 	add	r2,r16,r2
   850fc:	10c00117 	ldw	r3,4(r2)
   85100:	29000315 	stw	r4,12(r5)
   85104:	21400215 	stw	r5,8(r4)
   85108:	18c00054 	ori	r3,r3,1
   8510c:	10c00115 	stw	r3,4(r2)
   85110:	9009883a 	mov	r4,r18
   85114:	0085f980 	call	85f98 <__malloc_unlock>
   85118:	80800204 	addi	r2,r16,8
   8511c:	dfc00a17 	ldw	ra,40(sp)
   85120:	df000917 	ldw	fp,36(sp)
   85124:	ddc00817 	ldw	r23,32(sp)
   85128:	dd800717 	ldw	r22,28(sp)
   8512c:	dd400617 	ldw	r21,24(sp)
   85130:	dd000517 	ldw	r20,20(sp)
   85134:	dcc00417 	ldw	r19,16(sp)
   85138:	dc800317 	ldw	r18,12(sp)
   8513c:	dc400217 	ldw	r17,8(sp)
   85140:	dc000117 	ldw	r16,4(sp)
   85144:	dec00b04 	addi	sp,sp,44
   85148:	f800283a 	ret
   8514c:	00800304 	movi	r2,12
   85150:	90800015 	stw	r2,0(r18)
   85154:	0005883a 	mov	r2,zero
   85158:	003ff006 	br	8511c <__alt_mem_RAM_block+0xfff8391c>
   8515c:	01002004 	movi	r4,128
   85160:	02001004 	movi	r8,64
   85164:	01c00fc4 	movi	r7,63
   85168:	003f6106 	br	84ef0 <__alt_mem_RAM_block+0xfff836f0>
   8516c:	4009883a 	mov	r4,r8
   85170:	003f7506 	br	84f48 <__alt_mem_RAM_block+0xfff83748>
   85174:	81000317 	ldw	r4,12(r16)
   85178:	003fde06 	br	850f4 <__alt_mem_RAM_block+0xfff838f4>
   8517c:	81c5883a 	add	r2,r16,r7
   85180:	11400117 	ldw	r5,4(r2)
   85184:	9009883a 	mov	r4,r18
   85188:	29400054 	ori	r5,r5,1
   8518c:	11400115 	stw	r5,4(r2)
   85190:	0085f980 	call	85f98 <__malloc_unlock>
   85194:	80800204 	addi	r2,r16,8
   85198:	003fe006 	br	8511c <__alt_mem_RAM_block+0xfff8391c>
   8519c:	9c000217 	ldw	r16,8(r19)
   851a0:	00bfff04 	movi	r2,-4
   851a4:	85800117 	ldw	r22,4(r16)
   851a8:	b0ac703a 	and	r22,r22,r2
   851ac:	b4400336 	bltu	r22,r17,851bc <_malloc_r+0x344>
   851b0:	b445c83a 	sub	r2,r22,r17
   851b4:	00c003c4 	movi	r3,15
   851b8:	18805d16 	blt	r3,r2,85330 <_malloc_r+0x4b8>
   851bc:	05c00274 	movhi	r23,9
   851c0:	00800274 	movhi	r2,9
   851c4:	10a99d04 	addi	r2,r2,-22924
   851c8:	bde15904 	addi	r23,r23,-31388
   851cc:	15400017 	ldw	r21,0(r2)
   851d0:	b8c00017 	ldw	r3,0(r23)
   851d4:	00bfffc4 	movi	r2,-1
   851d8:	858d883a 	add	r6,r16,r22
   851dc:	8d6b883a 	add	r21,r17,r21
   851e0:	1880ea26 	beq	r3,r2,8558c <_malloc_r+0x714>
   851e4:	ad4403c4 	addi	r21,r21,4111
   851e8:	00bc0004 	movi	r2,-4096
   851ec:	a8aa703a 	and	r21,r21,r2
   851f0:	a80b883a 	mov	r5,r21
   851f4:	9009883a 	mov	r4,r18
   851f8:	d9800015 	stw	r6,0(sp)
   851fc:	00857ac0 	call	857ac <_sbrk_r>
   85200:	1029883a 	mov	r20,r2
   85204:	00bfffc4 	movi	r2,-1
   85208:	d9800017 	ldw	r6,0(sp)
   8520c:	a080e826 	beq	r20,r2,855b0 <_malloc_r+0x738>
   85210:	a180a636 	bltu	r20,r6,854ac <_malloc_r+0x634>
   85214:	07000274 	movhi	fp,9
   85218:	e72b1a04 	addi	fp,fp,-21400
   8521c:	e0800017 	ldw	r2,0(fp)
   85220:	a887883a 	add	r3,r21,r2
   85224:	e0c00015 	stw	r3,0(fp)
   85228:	3500e626 	beq	r6,r20,855c4 <_malloc_r+0x74c>
   8522c:	b9000017 	ldw	r4,0(r23)
   85230:	00bfffc4 	movi	r2,-1
   85234:	2080ee26 	beq	r4,r2,855f0 <_malloc_r+0x778>
   85238:	a185c83a 	sub	r2,r20,r6
   8523c:	10c5883a 	add	r2,r2,r3
   85240:	e0800015 	stw	r2,0(fp)
   85244:	a0c001cc 	andi	r3,r20,7
   85248:	1800bc26 	beq	r3,zero,8553c <_malloc_r+0x6c4>
   8524c:	a0e9c83a 	sub	r20,r20,r3
   85250:	00840204 	movi	r2,4104
   85254:	a5000204 	addi	r20,r20,8
   85258:	10c7c83a 	sub	r3,r2,r3
   8525c:	a545883a 	add	r2,r20,r21
   85260:	1083ffcc 	andi	r2,r2,4095
   85264:	18abc83a 	sub	r21,r3,r2
   85268:	a80b883a 	mov	r5,r21
   8526c:	9009883a 	mov	r4,r18
   85270:	00857ac0 	call	857ac <_sbrk_r>
   85274:	00ffffc4 	movi	r3,-1
   85278:	10c0e126 	beq	r2,r3,85600 <_malloc_r+0x788>
   8527c:	1505c83a 	sub	r2,r2,r20
   85280:	1545883a 	add	r2,r2,r21
   85284:	10800054 	ori	r2,r2,1
   85288:	e0c00017 	ldw	r3,0(fp)
   8528c:	9d000215 	stw	r20,8(r19)
   85290:	a0800115 	stw	r2,4(r20)
   85294:	a8c7883a 	add	r3,r21,r3
   85298:	e0c00015 	stw	r3,0(fp)
   8529c:	84c00e26 	beq	r16,r19,852d8 <_malloc_r+0x460>
   852a0:	018003c4 	movi	r6,15
   852a4:	3580a72e 	bgeu	r6,r22,85544 <_malloc_r+0x6cc>
   852a8:	81400117 	ldw	r5,4(r16)
   852ac:	013ffe04 	movi	r4,-8
   852b0:	b0bffd04 	addi	r2,r22,-12
   852b4:	1104703a 	and	r2,r2,r4
   852b8:	2900004c 	andi	r4,r5,1
   852bc:	2088b03a 	or	r4,r4,r2
   852c0:	81000115 	stw	r4,4(r16)
   852c4:	01400144 	movi	r5,5
   852c8:	8089883a 	add	r4,r16,r2
   852cc:	21400115 	stw	r5,4(r4)
   852d0:	21400215 	stw	r5,8(r4)
   852d4:	3080cd36 	bltu	r6,r2,8560c <_malloc_r+0x794>
   852d8:	00800274 	movhi	r2,9
   852dc:	10a99c04 	addi	r2,r2,-22928
   852e0:	11000017 	ldw	r4,0(r2)
   852e4:	20c0012e 	bgeu	r4,r3,852ec <_malloc_r+0x474>
   852e8:	10c00015 	stw	r3,0(r2)
   852ec:	00800274 	movhi	r2,9
   852f0:	10a99b04 	addi	r2,r2,-22932
   852f4:	11000017 	ldw	r4,0(r2)
   852f8:	9c000217 	ldw	r16,8(r19)
   852fc:	20c0012e 	bgeu	r4,r3,85304 <_malloc_r+0x48c>
   85300:	10c00015 	stw	r3,0(r2)
   85304:	80c00117 	ldw	r3,4(r16)
   85308:	00bfff04 	movi	r2,-4
   8530c:	1886703a 	and	r3,r3,r2
   85310:	1c45c83a 	sub	r2,r3,r17
   85314:	1c400236 	bltu	r3,r17,85320 <_malloc_r+0x4a8>
   85318:	00c003c4 	movi	r3,15
   8531c:	18800416 	blt	r3,r2,85330 <_malloc_r+0x4b8>
   85320:	9009883a 	mov	r4,r18
   85324:	0085f980 	call	85f98 <__malloc_unlock>
   85328:	0005883a 	mov	r2,zero
   8532c:	003f7b06 	br	8511c <__alt_mem_RAM_block+0xfff8391c>
   85330:	88c00054 	ori	r3,r17,1
   85334:	80c00115 	stw	r3,4(r16)
   85338:	8463883a 	add	r17,r16,r17
   8533c:	10800054 	ori	r2,r2,1
   85340:	9c400215 	stw	r17,8(r19)
   85344:	88800115 	stw	r2,4(r17)
   85348:	9009883a 	mov	r4,r18
   8534c:	0085f980 	call	85f98 <__malloc_unlock>
   85350:	80800204 	addi	r2,r16,8
   85354:	003f7106 	br	8511c <__alt_mem_RAM_block+0xfff8391c>
   85358:	00c00504 	movi	r3,20
   8535c:	18804a2e 	bgeu	r3,r2,85488 <_malloc_r+0x610>
   85360:	00c01504 	movi	r3,84
   85364:	18806e36 	bltu	r3,r2,85520 <_malloc_r+0x6a8>
   85368:	8804d33a 	srli	r2,r17,12
   8536c:	12001bc4 	addi	r8,r2,111
   85370:	11c01b84 	addi	r7,r2,110
   85374:	4209883a 	add	r4,r8,r8
   85378:	003edd06 	br	84ef0 <__alt_mem_RAM_block+0xfff836f0>
   8537c:	3804d27a 	srli	r2,r7,9
   85380:	00c00104 	movi	r3,4
   85384:	1880442e 	bgeu	r3,r2,85498 <_malloc_r+0x620>
   85388:	00c00504 	movi	r3,20
   8538c:	18808136 	bltu	r3,r2,85594 <_malloc_r+0x71c>
   85390:	11401704 	addi	r5,r2,92
   85394:	10c016c4 	addi	r3,r2,91
   85398:	294b883a 	add	r5,r5,r5
   8539c:	294b883a 	add	r5,r5,r5
   853a0:	294b883a 	add	r5,r5,r5
   853a4:	994b883a 	add	r5,r19,r5
   853a8:	28800017 	ldw	r2,0(r5)
   853ac:	01800274 	movhi	r6,9
   853b0:	297ffe04 	addi	r5,r5,-8
   853b4:	31a04804 	addi	r6,r6,-32480
   853b8:	28806526 	beq	r5,r2,85550 <_malloc_r+0x6d8>
   853bc:	01bfff04 	movi	r6,-4
   853c0:	10c00117 	ldw	r3,4(r2)
   853c4:	1986703a 	and	r3,r3,r6
   853c8:	38c0022e 	bgeu	r7,r3,853d4 <_malloc_r+0x55c>
   853cc:	10800217 	ldw	r2,8(r2)
   853d0:	28bffb1e 	bne	r5,r2,853c0 <__alt_mem_RAM_block+0xfff83bc0>
   853d4:	11400317 	ldw	r5,12(r2)
   853d8:	98c00117 	ldw	r3,4(r19)
   853dc:	81400315 	stw	r5,12(r16)
   853e0:	80800215 	stw	r2,8(r16)
   853e4:	2c000215 	stw	r16,8(r5)
   853e8:	14000315 	stw	r16,12(r2)
   853ec:	003ef806 	br	84fd0 <__alt_mem_RAM_block+0xfff837d0>
   853f0:	88c00054 	ori	r3,r17,1
   853f4:	80c00115 	stw	r3,4(r16)
   853f8:	8463883a 	add	r17,r16,r17
   853fc:	34400515 	stw	r17,20(r6)
   85400:	34400415 	stw	r17,16(r6)
   85404:	10c00054 	ori	r3,r2,1
   85408:	8a000315 	stw	r8,12(r17)
   8540c:	8a000215 	stw	r8,8(r17)
   85410:	88c00115 	stw	r3,4(r17)
   85414:	88a3883a 	add	r17,r17,r2
   85418:	88800015 	stw	r2,0(r17)
   8541c:	9009883a 	mov	r4,r18
   85420:	0085f980 	call	85f98 <__malloc_unlock>
   85424:	80800204 	addi	r2,r16,8
   85428:	003f3c06 	br	8511c <__alt_mem_RAM_block+0xfff8391c>
   8542c:	30c00117 	ldw	r3,4(r6)
   85430:	003ee706 	br	84fd0 <__alt_mem_RAM_block+0xfff837d0>
   85434:	5ac00044 	addi	r11,r11,1
   85438:	588000cc 	andi	r2,r11,3
   8543c:	31800204 	addi	r6,r6,8
   85440:	103efd1e 	bne	r2,zero,85038 <__alt_mem_RAM_block+0xfff83838>
   85444:	00002406 	br	854d8 <_malloc_r+0x660>
   85448:	14000317 	ldw	r16,12(r2)
   8544c:	143f251e 	bne	r2,r16,850e4 <__alt_mem_RAM_block+0xfff838e4>
   85450:	21000084 	addi	r4,r4,2
   85454:	003ebc06 	br	84f48 <__alt_mem_RAM_block+0xfff83748>
   85458:	8085883a 	add	r2,r16,r2
   8545c:	10c00117 	ldw	r3,4(r2)
   85460:	81000317 	ldw	r4,12(r16)
   85464:	81400217 	ldw	r5,8(r16)
   85468:	18c00054 	ori	r3,r3,1
   8546c:	10c00115 	stw	r3,4(r2)
   85470:	29000315 	stw	r4,12(r5)
   85474:	21400215 	stw	r5,8(r4)
   85478:	9009883a 	mov	r4,r18
   8547c:	0085f980 	call	85f98 <__malloc_unlock>
   85480:	80800204 	addi	r2,r16,8
   85484:	003f2506 	br	8511c <__alt_mem_RAM_block+0xfff8391c>
   85488:	12001704 	addi	r8,r2,92
   8548c:	11c016c4 	addi	r7,r2,91
   85490:	4209883a 	add	r4,r8,r8
   85494:	003e9606 	br	84ef0 <__alt_mem_RAM_block+0xfff836f0>
   85498:	3804d1ba 	srli	r2,r7,6
   8549c:	11400e44 	addi	r5,r2,57
   854a0:	10c00e04 	addi	r3,r2,56
   854a4:	294b883a 	add	r5,r5,r5
   854a8:	003fbc06 	br	8539c <__alt_mem_RAM_block+0xfff83b9c>
   854ac:	84ff5926 	beq	r16,r19,85214 <__alt_mem_RAM_block+0xfff83a14>
   854b0:	00800274 	movhi	r2,9
   854b4:	10a04804 	addi	r2,r2,-32480
   854b8:	14000217 	ldw	r16,8(r2)
   854bc:	00bfff04 	movi	r2,-4
   854c0:	80c00117 	ldw	r3,4(r16)
   854c4:	1886703a 	and	r3,r3,r2
   854c8:	003f9106 	br	85310 <__alt_mem_RAM_block+0xfff83b10>
   854cc:	60800217 	ldw	r2,8(r12)
   854d0:	213fffc4 	addi	r4,r4,-1
   854d4:	1300651e 	bne	r2,r12,8566c <_malloc_r+0x7f4>
   854d8:	208000cc 	andi	r2,r4,3
   854dc:	633ffe04 	addi	r12,r12,-8
   854e0:	103ffa1e 	bne	r2,zero,854cc <__alt_mem_RAM_block+0xfff83ccc>
   854e4:	98800117 	ldw	r2,4(r19)
   854e8:	0146303a 	nor	r3,zero,r5
   854ec:	1884703a 	and	r2,r3,r2
   854f0:	98800115 	stw	r2,4(r19)
   854f4:	294b883a 	add	r5,r5,r5
   854f8:	117f2836 	bltu	r2,r5,8519c <__alt_mem_RAM_block+0xfff8399c>
   854fc:	283f2726 	beq	r5,zero,8519c <__alt_mem_RAM_block+0xfff8399c>
   85500:	2886703a 	and	r3,r5,r2
   85504:	5809883a 	mov	r4,r11
   85508:	183ec31e 	bne	r3,zero,85018 <__alt_mem_RAM_block+0xfff83818>
   8550c:	294b883a 	add	r5,r5,r5
   85510:	2886703a 	and	r3,r5,r2
   85514:	21000104 	addi	r4,r4,4
   85518:	183ffc26 	beq	r3,zero,8550c <__alt_mem_RAM_block+0xfff83d0c>
   8551c:	003ebe06 	br	85018 <__alt_mem_RAM_block+0xfff83818>
   85520:	00c05504 	movi	r3,340
   85524:	18801236 	bltu	r3,r2,85570 <_malloc_r+0x6f8>
   85528:	8804d3fa 	srli	r2,r17,15
   8552c:	12001e04 	addi	r8,r2,120
   85530:	11c01dc4 	addi	r7,r2,119
   85534:	4209883a 	add	r4,r8,r8
   85538:	003e6d06 	br	84ef0 <__alt_mem_RAM_block+0xfff836f0>
   8553c:	00c40004 	movi	r3,4096
   85540:	003f4606 	br	8525c <__alt_mem_RAM_block+0xfff83a5c>
   85544:	00800044 	movi	r2,1
   85548:	a0800115 	stw	r2,4(r20)
   8554c:	003f7406 	br	85320 <__alt_mem_RAM_block+0xfff83b20>
   85550:	1805d0ba 	srai	r2,r3,2
   85554:	01c00044 	movi	r7,1
   85558:	30c00117 	ldw	r3,4(r6)
   8555c:	388e983a 	sll	r7,r7,r2
   85560:	2805883a 	mov	r2,r5
   85564:	38c6b03a 	or	r3,r7,r3
   85568:	30c00115 	stw	r3,4(r6)
   8556c:	003f9b06 	br	853dc <__alt_mem_RAM_block+0xfff83bdc>
   85570:	00c15504 	movi	r3,1364
   85574:	18801a36 	bltu	r3,r2,855e0 <_malloc_r+0x768>
   85578:	8804d4ba 	srli	r2,r17,18
   8557c:	12001f44 	addi	r8,r2,125
   85580:	11c01f04 	addi	r7,r2,124
   85584:	4209883a 	add	r4,r8,r8
   85588:	003e5906 	br	84ef0 <__alt_mem_RAM_block+0xfff836f0>
   8558c:	ad400404 	addi	r21,r21,16
   85590:	003f1706 	br	851f0 <__alt_mem_RAM_block+0xfff839f0>
   85594:	00c01504 	movi	r3,84
   85598:	18802336 	bltu	r3,r2,85628 <_malloc_r+0x7b0>
   8559c:	3804d33a 	srli	r2,r7,12
   855a0:	11401bc4 	addi	r5,r2,111
   855a4:	10c01b84 	addi	r3,r2,110
   855a8:	294b883a 	add	r5,r5,r5
   855ac:	003f7b06 	br	8539c <__alt_mem_RAM_block+0xfff83b9c>
   855b0:	9c000217 	ldw	r16,8(r19)
   855b4:	00bfff04 	movi	r2,-4
   855b8:	80c00117 	ldw	r3,4(r16)
   855bc:	1886703a 	and	r3,r3,r2
   855c0:	003f5306 	br	85310 <__alt_mem_RAM_block+0xfff83b10>
   855c4:	3083ffcc 	andi	r2,r6,4095
   855c8:	103f181e 	bne	r2,zero,8522c <__alt_mem_RAM_block+0xfff83a2c>
   855cc:	99000217 	ldw	r4,8(r19)
   855d0:	b545883a 	add	r2,r22,r21
   855d4:	10800054 	ori	r2,r2,1
   855d8:	20800115 	stw	r2,4(r4)
   855dc:	003f3e06 	br	852d8 <__alt_mem_RAM_block+0xfff83ad8>
   855e0:	01003f84 	movi	r4,254
   855e4:	02001fc4 	movi	r8,127
   855e8:	01c01f84 	movi	r7,126
   855ec:	003e4006 	br	84ef0 <__alt_mem_RAM_block+0xfff836f0>
   855f0:	00800274 	movhi	r2,9
   855f4:	10a15904 	addi	r2,r2,-31388
   855f8:	15000015 	stw	r20,0(r2)
   855fc:	003f1106 	br	85244 <__alt_mem_RAM_block+0xfff83a44>
   85600:	00800044 	movi	r2,1
   85604:	002b883a 	mov	r21,zero
   85608:	003f1f06 	br	85288 <__alt_mem_RAM_block+0xfff83a88>
   8560c:	81400204 	addi	r5,r16,8
   85610:	9009883a 	mov	r4,r18
   85614:	00848240 	call	84824 <_free_r>
   85618:	00800274 	movhi	r2,9
   8561c:	10ab1a04 	addi	r2,r2,-21400
   85620:	10c00017 	ldw	r3,0(r2)
   85624:	003f2c06 	br	852d8 <__alt_mem_RAM_block+0xfff83ad8>
   85628:	00c05504 	movi	r3,340
   8562c:	18800536 	bltu	r3,r2,85644 <_malloc_r+0x7cc>
   85630:	3804d3fa 	srli	r2,r7,15
   85634:	11401e04 	addi	r5,r2,120
   85638:	10c01dc4 	addi	r3,r2,119
   8563c:	294b883a 	add	r5,r5,r5
   85640:	003f5606 	br	8539c <__alt_mem_RAM_block+0xfff83b9c>
   85644:	00c15504 	movi	r3,1364
   85648:	18800536 	bltu	r3,r2,85660 <_malloc_r+0x7e8>
   8564c:	3804d4ba 	srli	r2,r7,18
   85650:	11401f44 	addi	r5,r2,125
   85654:	10c01f04 	addi	r3,r2,124
   85658:	294b883a 	add	r5,r5,r5
   8565c:	003f4f06 	br	8539c <__alt_mem_RAM_block+0xfff83b9c>
   85660:	01403f84 	movi	r5,254
   85664:	00c01f84 	movi	r3,126
   85668:	003f4c06 	br	8539c <__alt_mem_RAM_block+0xfff83b9c>
   8566c:	98800117 	ldw	r2,4(r19)
   85670:	003fa006 	br	854f4 <__alt_mem_RAM_block+0xfff83cf4>
   85674:	8808d0fa 	srli	r4,r17,3
   85678:	20800044 	addi	r2,r4,1
   8567c:	1085883a 	add	r2,r2,r2
   85680:	003e9006 	br	850c4 <__alt_mem_RAM_block+0xfff838c4>

00085684 <memset>:
   85684:	20c000cc 	andi	r3,r4,3
   85688:	2005883a 	mov	r2,r4
   8568c:	18004426 	beq	r3,zero,857a0 <memset+0x11c>
   85690:	31ffffc4 	addi	r7,r6,-1
   85694:	30004026 	beq	r6,zero,85798 <memset+0x114>
   85698:	2813883a 	mov	r9,r5
   8569c:	200d883a 	mov	r6,r4
   856a0:	2007883a 	mov	r3,r4
   856a4:	00000406 	br	856b8 <memset+0x34>
   856a8:	3a3fffc4 	addi	r8,r7,-1
   856ac:	31800044 	addi	r6,r6,1
   856b0:	38003926 	beq	r7,zero,85798 <memset+0x114>
   856b4:	400f883a 	mov	r7,r8
   856b8:	18c00044 	addi	r3,r3,1
   856bc:	32400005 	stb	r9,0(r6)
   856c0:	1a0000cc 	andi	r8,r3,3
   856c4:	403ff81e 	bne	r8,zero,856a8 <__alt_mem_RAM_block+0xfff83ea8>
   856c8:	010000c4 	movi	r4,3
   856cc:	21c02d2e 	bgeu	r4,r7,85784 <memset+0x100>
   856d0:	29003fcc 	andi	r4,r5,255
   856d4:	200c923a 	slli	r6,r4,8
   856d8:	3108b03a 	or	r4,r6,r4
   856dc:	200c943a 	slli	r6,r4,16
   856e0:	218cb03a 	or	r6,r4,r6
   856e4:	010003c4 	movi	r4,15
   856e8:	21c0182e 	bgeu	r4,r7,8574c <memset+0xc8>
   856ec:	3b3ffc04 	addi	r12,r7,-16
   856f0:	6018d13a 	srli	r12,r12,4
   856f4:	1a000104 	addi	r8,r3,4
   856f8:	1ac00204 	addi	r11,r3,8
   856fc:	6008913a 	slli	r4,r12,4
   85700:	1a800304 	addi	r10,r3,12
   85704:	1813883a 	mov	r9,r3
   85708:	21000504 	addi	r4,r4,20
   8570c:	1909883a 	add	r4,r3,r4
   85710:	49800015 	stw	r6,0(r9)
   85714:	41800015 	stw	r6,0(r8)
   85718:	59800015 	stw	r6,0(r11)
   8571c:	51800015 	stw	r6,0(r10)
   85720:	42000404 	addi	r8,r8,16
   85724:	4a400404 	addi	r9,r9,16
   85728:	5ac00404 	addi	r11,r11,16
   8572c:	52800404 	addi	r10,r10,16
   85730:	413ff71e 	bne	r8,r4,85710 <__alt_mem_RAM_block+0xfff83f10>
   85734:	63000044 	addi	r12,r12,1
   85738:	6018913a 	slli	r12,r12,4
   8573c:	39c003cc 	andi	r7,r7,15
   85740:	010000c4 	movi	r4,3
   85744:	1b07883a 	add	r3,r3,r12
   85748:	21c00e2e 	bgeu	r4,r7,85784 <memset+0x100>
   8574c:	1813883a 	mov	r9,r3
   85750:	3811883a 	mov	r8,r7
   85754:	010000c4 	movi	r4,3
   85758:	49800015 	stw	r6,0(r9)
   8575c:	423fff04 	addi	r8,r8,-4
   85760:	4a400104 	addi	r9,r9,4
   85764:	223ffc36 	bltu	r4,r8,85758 <__alt_mem_RAM_block+0xfff83f58>
   85768:	393fff04 	addi	r4,r7,-4
   8576c:	2008d0ba 	srli	r4,r4,2
   85770:	39c000cc 	andi	r7,r7,3
   85774:	21000044 	addi	r4,r4,1
   85778:	2109883a 	add	r4,r4,r4
   8577c:	2109883a 	add	r4,r4,r4
   85780:	1907883a 	add	r3,r3,r4
   85784:	38000526 	beq	r7,zero,8579c <memset+0x118>
   85788:	19cf883a 	add	r7,r3,r7
   8578c:	19400005 	stb	r5,0(r3)
   85790:	18c00044 	addi	r3,r3,1
   85794:	38fffd1e 	bne	r7,r3,8578c <__alt_mem_RAM_block+0xfff83f8c>
   85798:	f800283a 	ret
   8579c:	f800283a 	ret
   857a0:	2007883a 	mov	r3,r4
   857a4:	300f883a 	mov	r7,r6
   857a8:	003fc706 	br	856c8 <__alt_mem_RAM_block+0xfff83ec8>

000857ac <_sbrk_r>:
   857ac:	defffd04 	addi	sp,sp,-12
   857b0:	dc000015 	stw	r16,0(sp)
   857b4:	04000274 	movhi	r16,9
   857b8:	dc400115 	stw	r17,4(sp)
   857bc:	84299a04 	addi	r16,r16,-22936
   857c0:	2023883a 	mov	r17,r4
   857c4:	2809883a 	mov	r4,r5
   857c8:	dfc00215 	stw	ra,8(sp)
   857cc:	80000015 	stw	zero,0(r16)
   857d0:	00860f40 	call	860f4 <sbrk>
   857d4:	00ffffc4 	movi	r3,-1
   857d8:	10c00526 	beq	r2,r3,857f0 <_sbrk_r+0x44>
   857dc:	dfc00217 	ldw	ra,8(sp)
   857e0:	dc400117 	ldw	r17,4(sp)
   857e4:	dc000017 	ldw	r16,0(sp)
   857e8:	dec00304 	addi	sp,sp,12
   857ec:	f800283a 	ret
   857f0:	80c00017 	ldw	r3,0(r16)
   857f4:	183ff926 	beq	r3,zero,857dc <__alt_mem_RAM_block+0xfff83fdc>
   857f8:	88c00015 	stw	r3,0(r17)
   857fc:	003ff706 	br	857dc <__alt_mem_RAM_block+0xfff83fdc>

00085800 <__sread>:
   85800:	defffe04 	addi	sp,sp,-8
   85804:	dc000015 	stw	r16,0(sp)
   85808:	2821883a 	mov	r16,r5
   8580c:	2940038f 	ldh	r5,14(r5)
   85810:	dfc00115 	stw	ra,4(sp)
   85814:	0085c040 	call	85c04 <_read_r>
   85818:	10000716 	blt	r2,zero,85838 <__sread+0x38>
   8581c:	80c01417 	ldw	r3,80(r16)
   85820:	1887883a 	add	r3,r3,r2
   85824:	80c01415 	stw	r3,80(r16)
   85828:	dfc00117 	ldw	ra,4(sp)
   8582c:	dc000017 	ldw	r16,0(sp)
   85830:	dec00204 	addi	sp,sp,8
   85834:	f800283a 	ret
   85838:	80c0030b 	ldhu	r3,12(r16)
   8583c:	18fbffcc 	andi	r3,r3,61439
   85840:	80c0030d 	sth	r3,12(r16)
   85844:	dfc00117 	ldw	ra,4(sp)
   85848:	dc000017 	ldw	r16,0(sp)
   8584c:	dec00204 	addi	sp,sp,8
   85850:	f800283a 	ret

00085854 <__seofread>:
   85854:	0005883a 	mov	r2,zero
   85858:	f800283a 	ret

0008585c <__swrite>:
   8585c:	2880030b 	ldhu	r2,12(r5)
   85860:	defffb04 	addi	sp,sp,-20
   85864:	dcc00315 	stw	r19,12(sp)
   85868:	dc800215 	stw	r18,8(sp)
   8586c:	dc400115 	stw	r17,4(sp)
   85870:	dc000015 	stw	r16,0(sp)
   85874:	dfc00415 	stw	ra,16(sp)
   85878:	10c0400c 	andi	r3,r2,256
   8587c:	2821883a 	mov	r16,r5
   85880:	2023883a 	mov	r17,r4
   85884:	3025883a 	mov	r18,r6
   85888:	3827883a 	mov	r19,r7
   8588c:	18000526 	beq	r3,zero,858a4 <__swrite+0x48>
   85890:	2940038f 	ldh	r5,14(r5)
   85894:	01c00084 	movi	r7,2
   85898:	000d883a 	mov	r6,zero
   8589c:	0085ba40 	call	85ba4 <_lseek_r>
   858a0:	8080030b 	ldhu	r2,12(r16)
   858a4:	8140038f 	ldh	r5,14(r16)
   858a8:	10bbffcc 	andi	r2,r2,61439
   858ac:	980f883a 	mov	r7,r19
   858b0:	900d883a 	mov	r6,r18
   858b4:	8809883a 	mov	r4,r17
   858b8:	8080030d 	sth	r2,12(r16)
   858bc:	dfc00417 	ldw	ra,16(sp)
   858c0:	dcc00317 	ldw	r19,12(sp)
   858c4:	dc800217 	ldw	r18,8(sp)
   858c8:	dc400117 	ldw	r17,4(sp)
   858cc:	dc000017 	ldw	r16,0(sp)
   858d0:	dec00504 	addi	sp,sp,20
   858d4:	008593c1 	jmpi	8593c <_write_r>

000858d8 <__sseek>:
   858d8:	defffe04 	addi	sp,sp,-8
   858dc:	dc000015 	stw	r16,0(sp)
   858e0:	2821883a 	mov	r16,r5
   858e4:	2940038f 	ldh	r5,14(r5)
   858e8:	dfc00115 	stw	ra,4(sp)
   858ec:	0085ba40 	call	85ba4 <_lseek_r>
   858f0:	00ffffc4 	movi	r3,-1
   858f4:	10c00826 	beq	r2,r3,85918 <__sseek+0x40>
   858f8:	80c0030b 	ldhu	r3,12(r16)
   858fc:	80801415 	stw	r2,80(r16)
   85900:	18c40014 	ori	r3,r3,4096
   85904:	80c0030d 	sth	r3,12(r16)
   85908:	dfc00117 	ldw	ra,4(sp)
   8590c:	dc000017 	ldw	r16,0(sp)
   85910:	dec00204 	addi	sp,sp,8
   85914:	f800283a 	ret
   85918:	80c0030b 	ldhu	r3,12(r16)
   8591c:	18fbffcc 	andi	r3,r3,61439
   85920:	80c0030d 	sth	r3,12(r16)
   85924:	dfc00117 	ldw	ra,4(sp)
   85928:	dc000017 	ldw	r16,0(sp)
   8592c:	dec00204 	addi	sp,sp,8
   85930:	f800283a 	ret

00085934 <__sclose>:
   85934:	2940038f 	ldh	r5,14(r5)
   85938:	008599c1 	jmpi	8599c <_close_r>

0008593c <_write_r>:
   8593c:	defffd04 	addi	sp,sp,-12
   85940:	2805883a 	mov	r2,r5
   85944:	dc000015 	stw	r16,0(sp)
   85948:	04000274 	movhi	r16,9
   8594c:	dc400115 	stw	r17,4(sp)
   85950:	300b883a 	mov	r5,r6
   85954:	84299a04 	addi	r16,r16,-22936
   85958:	2023883a 	mov	r17,r4
   8595c:	380d883a 	mov	r6,r7
   85960:	1009883a 	mov	r4,r2
   85964:	dfc00215 	stw	ra,8(sp)
   85968:	80000015 	stw	zero,0(r16)
   8596c:	00861e00 	call	861e0 <write>
   85970:	00ffffc4 	movi	r3,-1
   85974:	10c00526 	beq	r2,r3,8598c <_write_r+0x50>
   85978:	dfc00217 	ldw	ra,8(sp)
   8597c:	dc400117 	ldw	r17,4(sp)
   85980:	dc000017 	ldw	r16,0(sp)
   85984:	dec00304 	addi	sp,sp,12
   85988:	f800283a 	ret
   8598c:	80c00017 	ldw	r3,0(r16)
   85990:	183ff926 	beq	r3,zero,85978 <__alt_mem_RAM_block+0xfff84178>
   85994:	88c00015 	stw	r3,0(r17)
   85998:	003ff706 	br	85978 <__alt_mem_RAM_block+0xfff84178>

0008599c <_close_r>:
   8599c:	defffd04 	addi	sp,sp,-12
   859a0:	dc000015 	stw	r16,0(sp)
   859a4:	04000274 	movhi	r16,9
   859a8:	dc400115 	stw	r17,4(sp)
   859ac:	84299a04 	addi	r16,r16,-22936
   859b0:	2023883a 	mov	r17,r4
   859b4:	2809883a 	mov	r4,r5
   859b8:	dfc00215 	stw	ra,8(sp)
   859bc:	80000015 	stw	zero,0(r16)
   859c0:	0082aac0 	call	82aac <close>
   859c4:	00ffffc4 	movi	r3,-1
   859c8:	10c00526 	beq	r2,r3,859e0 <_close_r+0x44>
   859cc:	dfc00217 	ldw	ra,8(sp)
   859d0:	dc400117 	ldw	r17,4(sp)
   859d4:	dc000017 	ldw	r16,0(sp)
   859d8:	dec00304 	addi	sp,sp,12
   859dc:	f800283a 	ret
   859e0:	80c00017 	ldw	r3,0(r16)
   859e4:	183ff926 	beq	r3,zero,859cc <__alt_mem_RAM_block+0xfff841cc>
   859e8:	88c00015 	stw	r3,0(r17)
   859ec:	003ff706 	br	859cc <__alt_mem_RAM_block+0xfff841cc>

000859f0 <_fclose_r>:
   859f0:	28003926 	beq	r5,zero,85ad8 <_fclose_r+0xe8>
   859f4:	defffc04 	addi	sp,sp,-16
   859f8:	dc400115 	stw	r17,4(sp)
   859fc:	dc000015 	stw	r16,0(sp)
   85a00:	dfc00315 	stw	ra,12(sp)
   85a04:	dc800215 	stw	r18,8(sp)
   85a08:	2023883a 	mov	r17,r4
   85a0c:	2821883a 	mov	r16,r5
   85a10:	20000226 	beq	r4,zero,85a1c <_fclose_r+0x2c>
   85a14:	20800e17 	ldw	r2,56(r4)
   85a18:	10002726 	beq	r2,zero,85ab8 <_fclose_r+0xc8>
   85a1c:	8080030f 	ldh	r2,12(r16)
   85a20:	1000071e 	bne	r2,zero,85a40 <_fclose_r+0x50>
   85a24:	0005883a 	mov	r2,zero
   85a28:	dfc00317 	ldw	ra,12(sp)
   85a2c:	dc800217 	ldw	r18,8(sp)
   85a30:	dc400117 	ldw	r17,4(sp)
   85a34:	dc000017 	ldw	r16,0(sp)
   85a38:	dec00404 	addi	sp,sp,16
   85a3c:	f800283a 	ret
   85a40:	800b883a 	mov	r5,r16
   85a44:	8809883a 	mov	r4,r17
   85a48:	00840b80 	call	840b8 <__sflush_r>
   85a4c:	1025883a 	mov	r18,r2
   85a50:	80800b17 	ldw	r2,44(r16)
   85a54:	10000426 	beq	r2,zero,85a68 <_fclose_r+0x78>
   85a58:	81400717 	ldw	r5,28(r16)
   85a5c:	8809883a 	mov	r4,r17
   85a60:	103ee83a 	callr	r2
   85a64:	10001616 	blt	r2,zero,85ac0 <_fclose_r+0xd0>
   85a68:	8080030b 	ldhu	r2,12(r16)
   85a6c:	1080200c 	andi	r2,r2,128
   85a70:	1000151e 	bne	r2,zero,85ac8 <_fclose_r+0xd8>
   85a74:	81400c17 	ldw	r5,48(r16)
   85a78:	28000526 	beq	r5,zero,85a90 <_fclose_r+0xa0>
   85a7c:	80801004 	addi	r2,r16,64
   85a80:	28800226 	beq	r5,r2,85a8c <_fclose_r+0x9c>
   85a84:	8809883a 	mov	r4,r17
   85a88:	00848240 	call	84824 <_free_r>
   85a8c:	80000c15 	stw	zero,48(r16)
   85a90:	81401117 	ldw	r5,68(r16)
   85a94:	28000326 	beq	r5,zero,85aa4 <_fclose_r+0xb4>
   85a98:	8809883a 	mov	r4,r17
   85a9c:	00848240 	call	84824 <_free_r>
   85aa0:	80001115 	stw	zero,68(r16)
   85aa4:	00846c00 	call	846c0 <__sfp_lock_acquire>
   85aa8:	8000030d 	sth	zero,12(r16)
   85aac:	00846c40 	call	846c4 <__sfp_lock_release>
   85ab0:	9005883a 	mov	r2,r18
   85ab4:	003fdc06 	br	85a28 <__alt_mem_RAM_block+0xfff84228>
   85ab8:	00846b00 	call	846b0 <__sinit>
   85abc:	003fd706 	br	85a1c <__alt_mem_RAM_block+0xfff8421c>
   85ac0:	04bfffc4 	movi	r18,-1
   85ac4:	003fe806 	br	85a68 <__alt_mem_RAM_block+0xfff84268>
   85ac8:	81400417 	ldw	r5,16(r16)
   85acc:	8809883a 	mov	r4,r17
   85ad0:	00848240 	call	84824 <_free_r>
   85ad4:	003fe706 	br	85a74 <__alt_mem_RAM_block+0xfff84274>
   85ad8:	0005883a 	mov	r2,zero
   85adc:	f800283a 	ret

00085ae0 <fclose>:
   85ae0:	00800274 	movhi	r2,9
   85ae4:	10a15804 	addi	r2,r2,-31392
   85ae8:	200b883a 	mov	r5,r4
   85aec:	11000017 	ldw	r4,0(r2)
   85af0:	00859f01 	jmpi	859f0 <_fclose_r>

00085af4 <_fstat_r>:
   85af4:	defffd04 	addi	sp,sp,-12
   85af8:	2805883a 	mov	r2,r5
   85afc:	dc000015 	stw	r16,0(sp)
   85b00:	04000274 	movhi	r16,9
   85b04:	dc400115 	stw	r17,4(sp)
   85b08:	84299a04 	addi	r16,r16,-22936
   85b0c:	2023883a 	mov	r17,r4
   85b10:	300b883a 	mov	r5,r6
   85b14:	1009883a 	mov	r4,r2
   85b18:	dfc00215 	stw	ra,8(sp)
   85b1c:	80000015 	stw	zero,0(r16)
   85b20:	0085cd40 	call	85cd4 <fstat>
   85b24:	00ffffc4 	movi	r3,-1
   85b28:	10c00526 	beq	r2,r3,85b40 <_fstat_r+0x4c>
   85b2c:	dfc00217 	ldw	ra,8(sp)
   85b30:	dc400117 	ldw	r17,4(sp)
   85b34:	dc000017 	ldw	r16,0(sp)
   85b38:	dec00304 	addi	sp,sp,12
   85b3c:	f800283a 	ret
   85b40:	80c00017 	ldw	r3,0(r16)
   85b44:	183ff926 	beq	r3,zero,85b2c <__alt_mem_RAM_block+0xfff8432c>
   85b48:	88c00015 	stw	r3,0(r17)
   85b4c:	003ff706 	br	85b2c <__alt_mem_RAM_block+0xfff8432c>

00085b50 <_isatty_r>:
   85b50:	defffd04 	addi	sp,sp,-12
   85b54:	dc000015 	stw	r16,0(sp)
   85b58:	04000274 	movhi	r16,9
   85b5c:	dc400115 	stw	r17,4(sp)
   85b60:	84299a04 	addi	r16,r16,-22936
   85b64:	2023883a 	mov	r17,r4
   85b68:	2809883a 	mov	r4,r5
   85b6c:	dfc00215 	stw	ra,8(sp)
   85b70:	80000015 	stw	zero,0(r16)
   85b74:	0085dc00 	call	85dc0 <isatty>
   85b78:	00ffffc4 	movi	r3,-1
   85b7c:	10c00526 	beq	r2,r3,85b94 <_isatty_r+0x44>
   85b80:	dfc00217 	ldw	ra,8(sp)
   85b84:	dc400117 	ldw	r17,4(sp)
   85b88:	dc000017 	ldw	r16,0(sp)
   85b8c:	dec00304 	addi	sp,sp,12
   85b90:	f800283a 	ret
   85b94:	80c00017 	ldw	r3,0(r16)
   85b98:	183ff926 	beq	r3,zero,85b80 <__alt_mem_RAM_block+0xfff84380>
   85b9c:	88c00015 	stw	r3,0(r17)
   85ba0:	003ff706 	br	85b80 <__alt_mem_RAM_block+0xfff84380>

00085ba4 <_lseek_r>:
   85ba4:	defffd04 	addi	sp,sp,-12
   85ba8:	2805883a 	mov	r2,r5
   85bac:	dc000015 	stw	r16,0(sp)
   85bb0:	04000274 	movhi	r16,9
   85bb4:	dc400115 	stw	r17,4(sp)
   85bb8:	300b883a 	mov	r5,r6
   85bbc:	84299a04 	addi	r16,r16,-22936
   85bc0:	2023883a 	mov	r17,r4
   85bc4:	380d883a 	mov	r6,r7
   85bc8:	1009883a 	mov	r4,r2
   85bcc:	dfc00215 	stw	ra,8(sp)
   85bd0:	80000015 	stw	zero,0(r16)
   85bd4:	0085ea00 	call	85ea0 <lseek>
   85bd8:	00ffffc4 	movi	r3,-1
   85bdc:	10c00526 	beq	r2,r3,85bf4 <_lseek_r+0x50>
   85be0:	dfc00217 	ldw	ra,8(sp)
   85be4:	dc400117 	ldw	r17,4(sp)
   85be8:	dc000017 	ldw	r16,0(sp)
   85bec:	dec00304 	addi	sp,sp,12
   85bf0:	f800283a 	ret
   85bf4:	80c00017 	ldw	r3,0(r16)
   85bf8:	183ff926 	beq	r3,zero,85be0 <__alt_mem_RAM_block+0xfff843e0>
   85bfc:	88c00015 	stw	r3,0(r17)
   85c00:	003ff706 	br	85be0 <__alt_mem_RAM_block+0xfff843e0>

00085c04 <_read_r>:
   85c04:	defffd04 	addi	sp,sp,-12
   85c08:	2805883a 	mov	r2,r5
   85c0c:	dc000015 	stw	r16,0(sp)
   85c10:	04000274 	movhi	r16,9
   85c14:	dc400115 	stw	r17,4(sp)
   85c18:	300b883a 	mov	r5,r6
   85c1c:	84299a04 	addi	r16,r16,-22936
   85c20:	2023883a 	mov	r17,r4
   85c24:	380d883a 	mov	r6,r7
   85c28:	1009883a 	mov	r4,r2
   85c2c:	dfc00215 	stw	ra,8(sp)
   85c30:	80000015 	stw	zero,0(r16)
   85c34:	0085ff80 	call	85ff8 <read>
   85c38:	00ffffc4 	movi	r3,-1
   85c3c:	10c00526 	beq	r2,r3,85c54 <_read_r+0x50>
   85c40:	dfc00217 	ldw	ra,8(sp)
   85c44:	dc400117 	ldw	r17,4(sp)
   85c48:	dc000017 	ldw	r16,0(sp)
   85c4c:	dec00304 	addi	sp,sp,12
   85c50:	f800283a 	ret
   85c54:	80c00017 	ldw	r3,0(r16)
   85c58:	183ff926 	beq	r3,zero,85c40 <__alt_mem_RAM_block+0xfff84440>
   85c5c:	88c00015 	stw	r3,0(r17)
   85c60:	003ff706 	br	85c40 <__alt_mem_RAM_block+0xfff84440>

00085c64 <_exit>:
   85c64:	defffd04 	addi	sp,sp,-12
   85c68:	df000215 	stw	fp,8(sp)
   85c6c:	df000204 	addi	fp,sp,8
   85c70:	e13fff15 	stw	r4,-4(fp)
   85c74:	0001883a 	nop
   85c78:	e0bfff17 	ldw	r2,-4(fp)
   85c7c:	e0bffe15 	stw	r2,-8(fp)
   85c80:	e0bffe17 	ldw	r2,-8(fp)
   85c84:	10000226 	beq	r2,zero,85c90 <_exit+0x2c>
   85c88:	002af070 	cmpltui	zero,zero,43969
   85c8c:	00000106 	br	85c94 <_exit+0x30>
   85c90:	002af0b0 	cmpltui	zero,zero,43970
   85c94:	003fff06 	br	85c94 <__alt_mem_RAM_block+0xfff84494>

00085c98 <alt_get_errno>:
   85c98:	defffe04 	addi	sp,sp,-8
   85c9c:	dfc00115 	stw	ra,4(sp)
   85ca0:	df000015 	stw	fp,0(sp)
   85ca4:	d839883a 	mov	fp,sp
   85ca8:	d0a00a17 	ldw	r2,-32728(gp)
   85cac:	10000326 	beq	r2,zero,85cbc <alt_get_errno+0x24>
   85cb0:	d0a00a17 	ldw	r2,-32728(gp)
   85cb4:	103ee83a 	callr	r2
   85cb8:	00000106 	br	85cc0 <alt_get_errno+0x28>
   85cbc:	d0a85004 	addi	r2,gp,-24256
   85cc0:	e037883a 	mov	sp,fp
   85cc4:	dfc00117 	ldw	ra,4(sp)
   85cc8:	df000017 	ldw	fp,0(sp)
   85ccc:	dec00204 	addi	sp,sp,8
   85cd0:	f800283a 	ret

00085cd4 <fstat>:
   85cd4:	defffb04 	addi	sp,sp,-20
   85cd8:	dfc00415 	stw	ra,16(sp)
   85cdc:	df000315 	stw	fp,12(sp)
   85ce0:	df000304 	addi	fp,sp,12
   85ce4:	e13ffe15 	stw	r4,-8(fp)
   85ce8:	e17fff15 	stw	r5,-4(fp)
   85cec:	e0bffe17 	ldw	r2,-8(fp)
   85cf0:	10000616 	blt	r2,zero,85d0c <fstat+0x38>
   85cf4:	e0bffe17 	ldw	r2,-8(fp)
   85cf8:	10c00324 	muli	r3,r2,12
   85cfc:	00800234 	movhi	r2,8
   85d00:	109edf04 	addi	r2,r2,31612
   85d04:	1885883a 	add	r2,r3,r2
   85d08:	00000106 	br	85d10 <fstat+0x3c>
   85d0c:	0005883a 	mov	r2,zero
   85d10:	e0bffd15 	stw	r2,-12(fp)
   85d14:	e0bffd17 	ldw	r2,-12(fp)
   85d18:	10001026 	beq	r2,zero,85d5c <fstat+0x88>
   85d1c:	e0bffd17 	ldw	r2,-12(fp)
   85d20:	10800017 	ldw	r2,0(r2)
   85d24:	10800817 	ldw	r2,32(r2)
   85d28:	10000726 	beq	r2,zero,85d48 <fstat+0x74>
   85d2c:	e0bffd17 	ldw	r2,-12(fp)
   85d30:	10800017 	ldw	r2,0(r2)
   85d34:	10800817 	ldw	r2,32(r2)
   85d38:	e17fff17 	ldw	r5,-4(fp)
   85d3c:	e13ffd17 	ldw	r4,-12(fp)
   85d40:	103ee83a 	callr	r2
   85d44:	00000a06 	br	85d70 <fstat+0x9c>
   85d48:	e0bfff17 	ldw	r2,-4(fp)
   85d4c:	00c80004 	movi	r3,8192
   85d50:	10c00115 	stw	r3,4(r2)
   85d54:	0005883a 	mov	r2,zero
   85d58:	00000506 	br	85d70 <fstat+0x9c>
   85d5c:	0085c980 	call	85c98 <alt_get_errno>
   85d60:	1007883a 	mov	r3,r2
   85d64:	00801444 	movi	r2,81
   85d68:	18800015 	stw	r2,0(r3)
   85d6c:	00bfffc4 	movi	r2,-1
   85d70:	e037883a 	mov	sp,fp
   85d74:	dfc00117 	ldw	ra,4(sp)
   85d78:	df000017 	ldw	fp,0(sp)
   85d7c:	dec00204 	addi	sp,sp,8
   85d80:	f800283a 	ret

00085d84 <alt_get_errno>:
   85d84:	defffe04 	addi	sp,sp,-8
   85d88:	dfc00115 	stw	ra,4(sp)
   85d8c:	df000015 	stw	fp,0(sp)
   85d90:	d839883a 	mov	fp,sp
   85d94:	d0a00a17 	ldw	r2,-32728(gp)
   85d98:	10000326 	beq	r2,zero,85da8 <alt_get_errno+0x24>
   85d9c:	d0a00a17 	ldw	r2,-32728(gp)
   85da0:	103ee83a 	callr	r2
   85da4:	00000106 	br	85dac <alt_get_errno+0x28>
   85da8:	d0a85004 	addi	r2,gp,-24256
   85dac:	e037883a 	mov	sp,fp
   85db0:	dfc00117 	ldw	ra,4(sp)
   85db4:	df000017 	ldw	fp,0(sp)
   85db8:	dec00204 	addi	sp,sp,8
   85dbc:	f800283a 	ret

00085dc0 <isatty>:
   85dc0:	deffed04 	addi	sp,sp,-76
   85dc4:	dfc01215 	stw	ra,72(sp)
   85dc8:	df001115 	stw	fp,68(sp)
   85dcc:	df001104 	addi	fp,sp,68
   85dd0:	e13fff15 	stw	r4,-4(fp)
   85dd4:	e0bfff17 	ldw	r2,-4(fp)
   85dd8:	10000616 	blt	r2,zero,85df4 <isatty+0x34>
   85ddc:	e0bfff17 	ldw	r2,-4(fp)
   85de0:	10c00324 	muli	r3,r2,12
   85de4:	00800234 	movhi	r2,8
   85de8:	109edf04 	addi	r2,r2,31612
   85dec:	1885883a 	add	r2,r3,r2
   85df0:	00000106 	br	85df8 <isatty+0x38>
   85df4:	0005883a 	mov	r2,zero
   85df8:	e0bfef15 	stw	r2,-68(fp)
   85dfc:	e0bfef17 	ldw	r2,-68(fp)
   85e00:	10000e26 	beq	r2,zero,85e3c <isatty+0x7c>
   85e04:	e0bfef17 	ldw	r2,-68(fp)
   85e08:	10800017 	ldw	r2,0(r2)
   85e0c:	10800817 	ldw	r2,32(r2)
   85e10:	1000021e 	bne	r2,zero,85e1c <isatty+0x5c>
   85e14:	00800044 	movi	r2,1
   85e18:	00000d06 	br	85e50 <isatty+0x90>
   85e1c:	e0bff004 	addi	r2,fp,-64
   85e20:	100b883a 	mov	r5,r2
   85e24:	e13fff17 	ldw	r4,-4(fp)
   85e28:	0085cd40 	call	85cd4 <fstat>
   85e2c:	e0bff117 	ldw	r2,-60(fp)
   85e30:	10880020 	cmpeqi	r2,r2,8192
   85e34:	10803fcc 	andi	r2,r2,255
   85e38:	00000506 	br	85e50 <isatty+0x90>
   85e3c:	0085d840 	call	85d84 <alt_get_errno>
   85e40:	1007883a 	mov	r3,r2
   85e44:	00801444 	movi	r2,81
   85e48:	18800015 	stw	r2,0(r3)
   85e4c:	0005883a 	mov	r2,zero
   85e50:	e037883a 	mov	sp,fp
   85e54:	dfc00117 	ldw	ra,4(sp)
   85e58:	df000017 	ldw	fp,0(sp)
   85e5c:	dec00204 	addi	sp,sp,8
   85e60:	f800283a 	ret

00085e64 <alt_get_errno>:
   85e64:	defffe04 	addi	sp,sp,-8
   85e68:	dfc00115 	stw	ra,4(sp)
   85e6c:	df000015 	stw	fp,0(sp)
   85e70:	d839883a 	mov	fp,sp
   85e74:	d0a00a17 	ldw	r2,-32728(gp)
   85e78:	10000326 	beq	r2,zero,85e88 <alt_get_errno+0x24>
   85e7c:	d0a00a17 	ldw	r2,-32728(gp)
   85e80:	103ee83a 	callr	r2
   85e84:	00000106 	br	85e8c <alt_get_errno+0x28>
   85e88:	d0a85004 	addi	r2,gp,-24256
   85e8c:	e037883a 	mov	sp,fp
   85e90:	dfc00117 	ldw	ra,4(sp)
   85e94:	df000017 	ldw	fp,0(sp)
   85e98:	dec00204 	addi	sp,sp,8
   85e9c:	f800283a 	ret

00085ea0 <lseek>:
   85ea0:	defff904 	addi	sp,sp,-28
   85ea4:	dfc00615 	stw	ra,24(sp)
   85ea8:	df000515 	stw	fp,20(sp)
   85eac:	df000504 	addi	fp,sp,20
   85eb0:	e13ffd15 	stw	r4,-12(fp)
   85eb4:	e17ffe15 	stw	r5,-8(fp)
   85eb8:	e1bfff15 	stw	r6,-4(fp)
   85ebc:	e03ffb15 	stw	zero,-20(fp)
   85ec0:	e0bffd17 	ldw	r2,-12(fp)
   85ec4:	10000616 	blt	r2,zero,85ee0 <lseek+0x40>
   85ec8:	e0bffd17 	ldw	r2,-12(fp)
   85ecc:	10c00324 	muli	r3,r2,12
   85ed0:	00800234 	movhi	r2,8
   85ed4:	109edf04 	addi	r2,r2,31612
   85ed8:	1885883a 	add	r2,r3,r2
   85edc:	00000106 	br	85ee4 <lseek+0x44>
   85ee0:	0005883a 	mov	r2,zero
   85ee4:	e0bffc15 	stw	r2,-16(fp)
   85ee8:	e0bffc17 	ldw	r2,-16(fp)
   85eec:	10001026 	beq	r2,zero,85f30 <lseek+0x90>
   85ef0:	e0bffc17 	ldw	r2,-16(fp)
   85ef4:	10800017 	ldw	r2,0(r2)
   85ef8:	10800717 	ldw	r2,28(r2)
   85efc:	10000926 	beq	r2,zero,85f24 <lseek+0x84>
   85f00:	e0bffc17 	ldw	r2,-16(fp)
   85f04:	10800017 	ldw	r2,0(r2)
   85f08:	10800717 	ldw	r2,28(r2)
   85f0c:	e1bfff17 	ldw	r6,-4(fp)
   85f10:	e17ffe17 	ldw	r5,-8(fp)
   85f14:	e13ffc17 	ldw	r4,-16(fp)
   85f18:	103ee83a 	callr	r2
   85f1c:	e0bffb15 	stw	r2,-20(fp)
   85f20:	00000506 	br	85f38 <lseek+0x98>
   85f24:	00bfde84 	movi	r2,-134
   85f28:	e0bffb15 	stw	r2,-20(fp)
   85f2c:	00000206 	br	85f38 <lseek+0x98>
   85f30:	00bfebc4 	movi	r2,-81
   85f34:	e0bffb15 	stw	r2,-20(fp)
   85f38:	e0bffb17 	ldw	r2,-20(fp)
   85f3c:	1000070e 	bge	r2,zero,85f5c <lseek+0xbc>
   85f40:	0085e640 	call	85e64 <alt_get_errno>
   85f44:	1007883a 	mov	r3,r2
   85f48:	e0bffb17 	ldw	r2,-20(fp)
   85f4c:	0085c83a 	sub	r2,zero,r2
   85f50:	18800015 	stw	r2,0(r3)
   85f54:	00bfffc4 	movi	r2,-1
   85f58:	e0bffb15 	stw	r2,-20(fp)
   85f5c:	e0bffb17 	ldw	r2,-20(fp)
   85f60:	e037883a 	mov	sp,fp
   85f64:	dfc00117 	ldw	ra,4(sp)
   85f68:	df000017 	ldw	fp,0(sp)
   85f6c:	dec00204 	addi	sp,sp,8
   85f70:	f800283a 	ret

00085f74 <__malloc_lock>:
   85f74:	defffe04 	addi	sp,sp,-8
   85f78:	df000115 	stw	fp,4(sp)
   85f7c:	df000104 	addi	fp,sp,4
   85f80:	e13fff15 	stw	r4,-4(fp)
   85f84:	0001883a 	nop
   85f88:	e037883a 	mov	sp,fp
   85f8c:	df000017 	ldw	fp,0(sp)
   85f90:	dec00104 	addi	sp,sp,4
   85f94:	f800283a 	ret

00085f98 <__malloc_unlock>:
   85f98:	defffe04 	addi	sp,sp,-8
   85f9c:	df000115 	stw	fp,4(sp)
   85fa0:	df000104 	addi	fp,sp,4
   85fa4:	e13fff15 	stw	r4,-4(fp)
   85fa8:	0001883a 	nop
   85fac:	e037883a 	mov	sp,fp
   85fb0:	df000017 	ldw	fp,0(sp)
   85fb4:	dec00104 	addi	sp,sp,4
   85fb8:	f800283a 	ret

00085fbc <alt_get_errno>:
   85fbc:	defffe04 	addi	sp,sp,-8
   85fc0:	dfc00115 	stw	ra,4(sp)
   85fc4:	df000015 	stw	fp,0(sp)
   85fc8:	d839883a 	mov	fp,sp
   85fcc:	d0a00a17 	ldw	r2,-32728(gp)
   85fd0:	10000326 	beq	r2,zero,85fe0 <alt_get_errno+0x24>
   85fd4:	d0a00a17 	ldw	r2,-32728(gp)
   85fd8:	103ee83a 	callr	r2
   85fdc:	00000106 	br	85fe4 <alt_get_errno+0x28>
   85fe0:	d0a85004 	addi	r2,gp,-24256
   85fe4:	e037883a 	mov	sp,fp
   85fe8:	dfc00117 	ldw	ra,4(sp)
   85fec:	df000017 	ldw	fp,0(sp)
   85ff0:	dec00204 	addi	sp,sp,8
   85ff4:	f800283a 	ret

