
C:/Users/julia/Documents/tse_tutorial/app_software/tse_tutorial.elf:     file format elf32-littlenios2
C:/Users/julia/Documents/tse_tutorial/app_software/tse_tutorial.elf
architecture: nios2:r1, flags 0x00000112:
EXEC_P, HAS_SYMS, D_PAGED
start address 0x000801a8

Program Header:
    LOAD off    0x00001000 vaddr 0x00080000 paddr 0x00080000 align 2**12
         filesz 0x00000020 memsz 0x00000020 flags r-x
    LOAD off    0x00001020 vaddr 0x00080020 paddr 0x00080020 align 2**12
         filesz 0x00004d44 memsz 0x00004d44 flags r-x
    LOAD off    0x00005d64 vaddr 0x00084d64 paddr 0x00086c38 align 2**12
         filesz 0x00001ed4 memsz 0x00001ed4 flags rw-
    LOAD off    0x00008b0c vaddr 0x00088b0c paddr 0x00088b0c align 2**12
         filesz 0x00000000 memsz 0x00000560 flags rw-
    LOAD off    0x00008000 vaddr 0x00100000 paddr 0x0008906c align 2**12
         filesz 0x00000080 memsz 0x00000080 flags rw-

Sections:
Idx Name          Size      VMA       LMA       File off  Algn
  0 .entry        00000020  00080000  00080000  00001000  2**5
                  CONTENTS, ALLOC, LOAD, READONLY, CODE
  1 .exceptions   00000188  00080020  00080020  00001020  2**2
                  CONTENTS, ALLOC, LOAD, READONLY, CODE
  2 .text         00004a7c  000801a8  000801a8  000011a8  2**2
                  CONTENTS, ALLOC, LOAD, READONLY, CODE
  3 .rodata       00000140  00084c24  00084c24  00005c24  2**2
                  CONTENTS, ALLOC, LOAD, READONLY, DATA
  4 .rwdata       00001ed4  00084d64  00086c38  00005d64  2**2
                  CONTENTS, ALLOC, LOAD, DATA, SMALL_DATA
  5 .bss          00000560  00088b0c  00088b0c  00008b0c  2**2
                  ALLOC, SMALL_DATA
  6 .main_memory  00000000  0008906c  0008906c  00008080  2**0
                  CONTENTS
  7 .descriptor_memory 00000080  00100000  0008906c  00008000  2**0
                  CONTENTS, ALLOC, LOAD, DATA
  8 .comment      00000023  00000000  00000000  00008080  2**0
                  CONTENTS, READONLY
  9 .debug_aranges 00000a30  00000000  00000000  000080a8  2**3
                  CONTENTS, READONLY, DEBUGGING
 10 .debug_info   00018fcf  00000000  00000000  00008ad8  2**0
                  CONTENTS, READONLY, DEBUGGING
 11 .debug_abbrev 00006aa7  00000000  00000000  00021aa7  2**0
                  CONTENTS, READONLY, DEBUGGING
 12 .debug_line   00006cb4  00000000  00000000  0002854e  2**0
                  CONTENTS, READONLY, DEBUGGING
 13 .debug_frame  00001480  00000000  00000000  0002f204  2**2
                  CONTENTS, READONLY, DEBUGGING
 14 .debug_str    00002aea  00000000  00000000  00030684  2**0
                  CONTENTS, READONLY, DEBUGGING
 15 .debug_loc    00005b2d  00000000  00000000  0003316e  2**0
                  CONTENTS, READONLY, DEBUGGING
 16 .debug_alt_sim_info 00000010  00000000  00000000  00038c9c  2**2
                  CONTENTS, READONLY, DEBUGGING
 17 .debug_ranges 00000600  00000000  00000000  00038cb0  2**3
                  CONTENTS, READONLY, DEBUGGING
 18 .thread_model 00000003  00000000  00000000  0003bb1c  2**0
                  CONTENTS, READONLY
 19 .cpu          0000000c  00000000  00000000  0003bb1f  2**0
                  CONTENTS, READONLY
 20 .qsys         00000001  00000000  00000000  0003bb2b  2**0
                  CONTENTS, READONLY
 21 .simulation_enabled 00000001  00000000  00000000  0003bb2c  2**0
                  CONTENTS, READONLY
 22 .stderr_dev   00000009  00000000  00000000  0003bb2d  2**0
                  CONTENTS, READONLY
 23 .stdin_dev    00000009  00000000  00000000  0003bb36  2**0
                  CONTENTS, READONLY
 24 .stdout_dev   00000009  00000000  00000000  0003bb3f  2**0
                  CONTENTS, READONLY
 25 .sopc_system_name 0000000b  00000000  00000000  0003bb48  2**0
                  CONTENTS, READONLY
 26 .sopcinfo     0006239e  00000000  00000000  0003bb53  2**0
                  CONTENTS, READONLY
SYMBOL TABLE:
00080000 l    d  .entry	00000000 .entry
00080020 l    d  .exceptions	00000000 .exceptions
000801a8 l    d  .text	00000000 .text
00084c24 l    d  .rodata	00000000 .rodata
00084d64 l    d  .rwdata	00000000 .rwdata
00088b0c l    d  .bss	00000000 .bss
0008906c l    d  .main_memory	00000000 .main_memory
00100000 l    d  .descriptor_memory	00000000 .descriptor_memory
00000000 l    d  .comment	00000000 .comment
00000000 l    d  .debug_aranges	00000000 .debug_aranges
00000000 l    d  .debug_info	00000000 .debug_info
00000000 l    d  .debug_abbrev	00000000 .debug_abbrev
00000000 l    d  .debug_line	00000000 .debug_line
00000000 l    d  .debug_frame	00000000 .debug_frame
00000000 l    d  .debug_str	00000000 .debug_str
00000000 l    d  .debug_loc	00000000 .debug_loc
00000000 l    d  .debug_alt_sim_info	00000000 .debug_alt_sim_info
00000000 l    d  .debug_ranges	00000000 .debug_ranges
00000000 l    df *ABS*	00000000 BSP//obj/HAL/src/crt0.o
000801e0 l       .text	00000000 alt_after_alt_main
00000000 l    df *ABS*	00000000 alt_irq_handler.c
00000000 l    df *ABS*	00000000 alt_instruction_exception_entry.c
00000000 l    df *ABS*	00000000 tse_tutorial.c
00000000 l    df *ABS*	00000000 alt_getchar.c
00000000 l    df *ABS*	00000000 alt_load.c
00000000 l    df *ABS*	00000000 alt_main.c
00000000 l    df *ABS*	00000000 alt_printf.c
00000000 l    df *ABS*	00000000 alt_putchar.c
00000000 l    df *ABS*	00000000 alt_sys_init.c
000851c4 l     O .rwdata	00001060 jtag_uart
00085194 l     O .rwdata	00000030 sgdma_rx
00085164 l     O .rwdata	00000030 sgdma_tx
00000000 l    df *ABS*	00000000 altera_avalon_jtag_uart_fd.c
00000000 l    df *ABS*	00000000 altera_avalon_jtag_uart_init.c
00080adc l     F .text	00000048 altera_avalon_jtag_uart_timeout
00080b24 l     F .text	00000108 altera_avalon_jtag_uart_irq
00000000 l    df *ABS*	00000000 altera_avalon_jtag_uart_ioctl.c
00000000 l    df *ABS*	00000000 altera_avalon_jtag_uart_read.c
00000000 l    df *ABS*	00000000 altera_avalon_jtag_uart_write.c
00000000 l    df *ABS*	00000000 altera_avalon_sgdma.c
0008105c l     F .text	00000060 alt_avalon_sgdma_irq
00000000 l    df *ABS*	00000000 alt_alarm_start.c
00000000 l    df *ABS*	00000000 alt_close.c
00000000 l    df *ABS*	00000000 alt_dcache_flush.c
00000000 l    df *ABS*	00000000 alt_dcache_flush_all.c
00000000 l    df *ABS*	00000000 alt_dev.c
000817b4 l     F .text	00000008 alt_dev_null_write
00000000 l    df *ABS*	00000000 alt_dev_llist_insert.c
00000000 l    df *ABS*	00000000 alt_errno.c
00000000 l    df *ABS*	00000000 alt_find_dev.c
00000000 l    df *ABS*	00000000 alt_icache_flush_all.c
00000000 l    df *ABS*	00000000 alt_iic.c
00000000 l    df *ABS*	00000000 alt_iic_isr_register.c
00000000 l    df *ABS*	00000000 alt_io_redirect.c
000819c4 l     F .text	00000080 alt_open_fd
00000000 l    df *ABS*	00000000 alt_irq_vars.c
00000000 l    df *ABS*	00000000 alt_open.c
00000000 l    df *ABS*	00000000 alt_release_fd.c
00000000 l    df *ABS*	00000000 alt_tick.c
00000000 l    df *ABS*	00000000 altera_nios2_gen2_irq.c
00000000 l    df *ABS*	00000000 alt_find_file.c
00000000 l    df *ABS*	00000000 alt_get_fd.c
00000000 l    df *ABS*	00000000 exit.c
00000000 l    df *ABS*	00000000 getc.c
00000000 l    df *ABS*	00000000 impure.c
000863cc l     O .rwdata	00000424 impure_data
00000000 l    df *ABS*	00000000 int_errno.c
00000000 l    df *ABS*	00000000 memcmp.c
00000000 l    df *ABS*	00000000 memcpy.c
00000000 l    df *ABS*	00000000 putc.c
00000000 l    df *ABS*	00000000 rget.c
00000000 l    df *ABS*	00000000 strlen.c
00000000 l    df *ABS*	00000000 wbuf.c
00000000 l    df *ABS*	00000000 wsetup.c
00000000 l    df *ABS*	00000000 __call_atexit.c
00000000 l    df *ABS*	00000000 fflush.c
00000000 l    df *ABS*	00000000 findfp.c
00082c18 l     F .text	00000008 __fp_unlock
00082c2c l     F .text	0000019c __sinit.part.1
00082dc8 l     F .text	00000008 __fp_lock
00000000 l    df *ABS*	00000000 mallocr.c
00000000 l    df *ABS*	00000000 fwalk.c
00000000 l    df *ABS*	00000000 makebuf.c
00000000 l    df *ABS*	00000000 mallocr.c
00000000 l    df *ABS*	00000000 memset.c
00000000 l    df *ABS*	00000000 refill.c
00084074 l     F .text	0000001c lflush
00000000 l    df *ABS*	00000000 sbrkr.c
00000000 l    df *ABS*	00000000 stdio.c
00000000 l    df *ABS*	00000000 writer.c
00000000 l    df *ABS*	00000000 closer.c
00000000 l    df *ABS*	00000000 fclose.c
00000000 l    df *ABS*	00000000 fstatr.c
00000000 l    df *ABS*	00000000 isattyr.c
00000000 l    df *ABS*	00000000 lseekr.c
00000000 l    df *ABS*	00000000 readr.c
00000000 l    df *ABS*	00000000 lib2-mul.c
00000000 l    df *ABS*	00000000 alt_exit.c
00000000 l    df *ABS*	00000000 alt_fstat.c
00000000 l    df *ABS*	00000000 alt_isatty.c
00000000 l    df *ABS*	00000000 alt_lseek.c
00000000 l    df *ABS*	00000000 alt_malloc_lock.c
00000000 l    df *ABS*	00000000 alt_read.c
00000000 l    df *ABS*	00000000 alt_sbrk.c
00086c34 l     O .rwdata	00000004 heap_end
00000000 l    df *ABS*	00000000 alt_write.c
00088b30 g     O .bss	00000004 alt_instruction_exception_handler
00084608 g     F .text	00000054 _isatty_r
00080744 g     F .text	00000050 alt_main
000801e4 g     F .text	000000d4 rx_ethernet_isr
00088f6c g     O .bss	00000100 alt_irq
0008465c g     F .text	00000060 _lseek_r
00086c38 g       *ABS*	00000000 __flash_rwdata_start
0008906c g       *ABS*	00000000 __alt_heap_start
00081148 g     F .text	0000008c alt_avalon_sgdma_do_sync_transfer
00084390 g     F .text	0000005c __sseek
00082f78 g     F .text	00000010 __sinit
00082544 g     F .text	00000140 __swbuf_r
00082dd0 g     F .text	00000078 __sfmoreglue
00084988 g     F .text	00000004 __malloc_unlock
000812e0 g     F .text	00000128 alt_avalon_sgdma_construct_descriptor_burst
00082f60 g     F .text	00000018 _cleanup
00081df4 g     F .text	00000008 altera_nios2_gen2_irq_init
00080000 g     F .entry	0000000c __reset
00081488 g     F .text	00000048 alt_avalon_sgdma_construct_stream_to_mem_desc_burst
00080020 g       *ABS*	00000000 __flash_exceptions_start
000845ac g     F .text	0000005c _fstat_r
00088b34 g     O .bss	00000004 errno
00082498 g     F .text	00000014 __srget
0008430c g     F .text	00000008 __seofread
00088b1c g     O .bss	00000004 alt_argv
0008ebf8 g       *ABS*	00000000 _gp
00086224 g     O .rwdata	00000180 alt_fd_list
00082000 g     F .text	00000070 _getc_r
00082070 g     F .text	00000088 getc
00081830 g     F .text	0000007c alt_find_dev
00082174 g     F .text	00000148 memcpy
00082c20 g     F .text	0000000c _cleanup_r
00081a44 g     F .text	00000094 alt_io_redirect
00081f54 g     F .text	00000074 alt_exception_cause_generated_bad_addr
000814f8 g     F .text	00000050 alt_avalon_sgdma_construct_mem_to_stream_desc_burst
00080d68 g     F .text	00000158 altera_avalon_jtag_uart_read
0008480c g     F .text	000000a0 isatty
00088b40 g     O .bss	00000004 __malloc_top_pad
000811fc g     F .text	0000001c alt_avalon_sgdma_stop
00084264 g     F .text	00000054 _sbrk_r
000846bc g     F .text	00000060 _read_r
000817ac g     F .text	00000004 alt_dcache_flush
00086c00 g     O .rwdata	00000004 alt_max_fd
000844a8 g     F .text	000000f0 _fclose_r
00082be8 g     F .text	00000030 fflush
00088b3c g     O .bss	00000004 __malloc_max_sbrked_mem
00080000 g       *ABS*	00000000 __alt_mem_main_memory
000848ac g     F .text	000000d8 lseek
00086c24 g     O .rwdata	00000004 _global_impure_ptr
0008906c g       *ABS*	00000000 __bss_end
00081958 g     F .text	0000006c alt_iic_isr_register
000805a0 g     F .text	00000020 alt_getchar
000810bc g     F .text	0000008c alt_avalon_sgdma_do_async_transfer
00081d28 g     F .text	000000cc alt_tick
00100000 g     O .descriptor_memory	00000020 rx_descriptor_end
00082f98 g     F .text	00000018 __fp_lock_all
00081940 g     F .text	00000018 alt_ic_irq_enabled
00081cf0 g     F .text	00000038 alt_alarm_stop
00100000 g       *ABS*	00000000 __alt_mem_descriptor_memory
00088b24 g     O .bss	00000004 alt_irq_active
00084d64 g     O .rwdata	00000400 tx_frame
000800fc g     F .exceptions	00000070 alt_irq_handler
000863a4 g     O .rwdata	00000028 alt_dev_null
00081218 g     F .text	0000002c alt_avalon_sgdma_check_descriptor_status
000817b0 g     F .text	00000004 alt_dcache_flush_all
00100020 g     O .descriptor_memory	00000020 rx_descriptor
00086c38 g       *ABS*	00000000 __ram_rwdata_end
00086c04 g     O .rwdata	00000008 alt_dev_list
00084b00 g     F .text	00000124 write
00081290 g     F .text	00000030 alt_avalon_sgdma_enable_desc_poll
000822bc g     F .text	000000a0 _putc_r
00084d64 g       *ABS*	00000000 __ram_rodata_end
00084758 g     F .text	000000b4 fstat
00081548 g     F .text	00000040 alt_avalon_sgdma_construct_mem_to_stream_desc
000811d4 g     F .text	00000010 alt_avalon_sgdma_register_callback
0008906c g       *ABS*	00000000 end
00080c2c g     F .text	00000078 altera_avalon_jtag_uart_init
0008016c g     F .exceptions	0000003c alt_instruction_exception_entry
000cb000 g       *ABS*	00000000 __alt_stack_pointer
000812c0 g     F .text	00000020 alt_avalon_sgdma_disable_desc_poll
00080ec0 g     F .text	0000019c altera_avalon_jtag_uart_write
00081450 g     F .text	00000038 alt_avalon_sgdma_construct_mem_to_mem_desc
00082f88 g     F .text	00000004 __sfp_lock_acquire
000814d0 g     F .text	00000028 alt_avalon_sgdma_construct_stream_to_mem_desc
000830ec g     F .text	00000310 _free_r
00080794 g     F .text	00000214 alt_printf
00082424 g     F .text	00000074 __srget_r
000827f0 g     F .text	00000180 __call_exitprocs
00086c2c g     O .rwdata	00000004 __malloc_sbrk_base
000801a8 g     F .text	0000003c _start
00088b2c g     O .bss	00000004 _alt_tick_rate
00088b0c g     O .bss	00000004 sgdma_tx_dev
00081244 g     F .text	0000004c alt_avalon_sgdma_open
00088b28 g     O .bss	00000004 _alt_nticks
00088b10 g     O .bss	00000004 text_length
0008498c g     F .text	00000128 read
000809e8 g     F .text	00000068 alt_sys_init
00080ca4 g     F .text	0000003c altera_avalon_jtag_uart_close
0008471c g     F .text	00000028 .hidden __mulsi3
00084d64 g       *ABS*	00000000 __ram_rwdata_start
00084c24 g       *ABS*	00000000 __ram_rodata_start
00088f44 g     O .bss	00000028 __malloc_current_mallinfo
00080a50 g     F .text	00000024 altera_avalon_jtag_uart_read_fd
00081ebc g     F .text	00000098 alt_get_fd
00084454 g     F .text	00000054 _close_r
000820f8 g     F .text	0000007c memcmp
00080a98 g     F .text	00000024 altera_avalon_jtag_uart_close_fd
0008906c g       *ABS*	00000000 __alt_stack_base
00080abc g     F .text	00000020 altera_avalon_jtag_uart_ioctl_fd
0008269c g     F .text	00000154 __swsetup_r
00082e48 g     F .text	00000118 __sfp
000867f0 g     O .rwdata	00000408 __malloc_av_
00082f94 g     F .text	00000004 __sinit_lock_release
000842b8 g     F .text	00000054 __sread
00081dfc g     F .text	000000c0 alt_find_file
000817bc g     F .text	00000074 alt_dev_llist_insert
00084984 g     F .text	00000004 __malloc_lock
00084ab4 g     F .text	0000004c sbrk
000811e4 g     F .text	00000018 alt_avalon_sgdma_start
00082b8c g     F .text	0000005c _fflush_r
00088b0c g       *ABS*	00000000 __bss_start
00083f4c g     F .text	00000128 memset
000802b8 g     F .text	000002e8 main
00088b18 g     O .bss	00000004 alt_envp
00088b38 g     O .bss	00000004 __malloc_max_total_mem
00080a74 g     F .text	00000024 altera_avalon_jtag_uart_write_fd
00082684 g     F .text	00000018 __swbuf
00086bf8 g     O .rwdata	00000008 alt_sgdma_list
000843ec g     F .text	00000008 __sclose
000cb000 g       *ABS*	00000000 __alt_heap_limit
00084598 g     F .text	00000014 fclose
00083740 g     F .text	0000080c _malloc_r
00086c14 g     O .rwdata	00000004 alt_errno
00100060 g     O .descriptor_memory	00000020 tx_descriptor
00088b44 g     O .bss	00000400 rx_frame
000833fc g     F .text	000000c4 _fwalk
0008235c g     F .text	000000c8 putc
00082fc8 g     F .text	00000124 _malloc_trim_r
00084c24 g       *ABS*	00000000 __flash_rodata_start
000809c8 g     F .text	00000020 alt_irq_init
00081c94 g     F .text	0000005c alt_release_fd
000843f4 g     F .text	00000060 _write_r
00086c28 g     O .rwdata	00000004 _impure_ptr
00088b20 g     O .bss	00000004 alt_argc
00082970 g     F .text	0000021c __sflush_r
00084090 g     F .text	000001d4 __srefill_r
00080020 g       .exceptions	00000000 alt_irq_entry
00082fb0 g     F .text	00000018 __fp_unlock_all
00086c0c g     O .rwdata	00000008 alt_fs_list
00080020 g       *ABS*	00000000 __ram_exceptions_start
000818b0 g     F .text	00000020 alt_ic_isr_register
00086c38 g       *ABS*	00000000 _edata
0008906c g       *ABS*	00000000 _end
000801a8 g       *ABS*	00000000 __ram_exceptions_end
00080ce0 g     F .text	00000088 altera_avalon_jtag_uart_ioctl
00081908 g     F .text	00000038 alt_ic_irq_disable
00100040 g     O .descriptor_memory	00000020 tx_descriptor_end
00081588 g     F .text	00000048 alt_avalon_sgdma_construct_descriptor
00084314 g     F .text	0000007c __swrite
00086c30 g     O .rwdata	00000004 __malloc_trim_threshold
00081fc8 g     F .text	00000038 exit
000834c0 g     F .text	000000c4 _fwalk_reent
000cb000 g       *ABS*	00000000 __alt_data_end
00080020 g     F .exceptions	00000000 alt_exception
00082f8c g     F .text	00000004 __sfp_lock_release
00088b14 g     O .bss	00000004 sgdma_rx_dev
00084744 g     F .text	00000014 _exit
00081654 g     F .text	00000080 alt_alarm_start
00083584 g     F .text	000001bc __smakebuf_r
000824ac g     F .text	00000098 strlen
00081ad8 g     F .text	000001bc open
000809a8 g     F .text	00000020 alt_putchar
000818ac g     F .text	00000004 alt_icache_flush_all
00086c18 g     O .rwdata	00000004 alt_priority_mask
000818d0 g     F .text	00000038 alt_ic_irq_enable
00081408 g     F .text	00000048 alt_avalon_sgdma_construct_mem_to_mem_desc_burst
00086c1c g     O .rwdata	00000008 alt_alarm_list
000816d4 g     F .text	000000d8 close
000805c0 g     F .text	00000184 alt_load
000815d0 g     F .text	00000084 alt_avalon_sgdma_init
00082f90 g     F .text	00000004 __sinit_lock_acquire



Disassembly of section .entry:

00080000 <__reset>:
 * Jump to the _start entry point in the .text section if reset code
 * is allowed or if optimizing for RTL simulation.
 */
#if defined(ALT_ALLOW_CODE_AT_RESET) || defined(ALT_SIM_OPTIMIZE)
    /* Jump to the _start entry point in the .text section. */
    movhi r1, %hi(_start)
   80000:	00400234 	movhi	at,8
    ori r1, r1, %lo(_start)
   80004:	08406a14 	ori	at,at,424
    jmp r1
   80008:	0800683a 	jmp	at
	...

Disassembly of section .exceptions:

00080020 <alt_exception>:

#else /* ALT_EXCEPTION_STACK disabled */
        /* 
         * Reserve space on normal stack for registers about to be pushed.
         */
        addi  sp, sp, -76
   80020:	deffed04 	addi	sp,sp,-76
         * documentation for details).
         *
         * Leave a gap in the stack frame at 4(sp) for the muldiv handler to
         * store zero into.
         */
        stw   ra,  0(sp)
   80024:	dfc00015 	stw	ra,0(sp)
        stw   r1,   8(sp)
   80028:	d8400215 	stw	at,8(sp)
        stw   r2,  12(sp)
   8002c:	d8800315 	stw	r2,12(sp)
        stw   r3,  16(sp)
   80030:	d8c00415 	stw	r3,16(sp)
        stw   r4,  20(sp)
   80034:	d9000515 	stw	r4,20(sp)
        stw   r5,  24(sp)
   80038:	d9400615 	stw	r5,24(sp)
        stw   r6,  28(sp)
   8003c:	d9800715 	stw	r6,28(sp)
        stw   r7,  32(sp)
   80040:	d9c00815 	stw	r7,32(sp)
        rdctl r5, estatus   /* Read early to avoid usage stall */
   80044:	000b307a 	rdctl	r5,estatus
        stw   r8,  36(sp)
   80048:	da000915 	stw	r8,36(sp)
        stw   r9,  40(sp)
   8004c:	da400a15 	stw	r9,40(sp)
        stw   r10, 44(sp)
   80050:	da800b15 	stw	r10,44(sp)
        stw   r11, 48(sp)
   80054:	dac00c15 	stw	r11,48(sp)
        stw   r12, 52(sp)
   80058:	db000d15 	stw	r12,52(sp)
        stw   r13, 56(sp)
   8005c:	db400e15 	stw	r13,56(sp)
        stw   r14, 60(sp)
   80060:	db800f15 	stw	r14,60(sp)
        stw   r15, 64(sp)
   80064:	dbc01015 	stw	r15,64(sp)
        /*
         * ea-4 contains the address of the instruction being executed
         * when the exception occured. For interrupt exceptions, we will
         * will be re-issue the isntruction. Store it in 72(sp)
         */
        stw   r5,  68(sp)  /* estatus */
   80068:	d9401115 	stw	r5,68(sp)
        addi  r15, ea, -4  /* instruction that caused exception */
   8006c:	ebffff04 	addi	r15,ea,-4
        stw   r15,  72(sp)
   80070:	dbc01215 	stw	r15,72(sp)
#else
        /*
         * Test to see if the exception was a software exception or caused 
         * by an external interrupt, and vector accordingly.
         */
        rdctl r4, ipending
   80074:	0009313a 	rdctl	r4,ipending
        andi  r2, r5, 1
   80078:	2880004c 	andi	r2,r5,1
        beq   r2, zero, .Lnot_irq
   8007c:	10000326 	beq	r2,zero,8008c <alt_exception+0x6c>
        beq   r4, zero, .Lnot_irq
   80080:	20000226 	beq	r4,zero,8008c <alt_exception+0x6c>
        /*
         * Now that all necessary registers have been preserved, call 
         * alt_irq_handler() to process the interrupts.
         */

        call alt_irq_handler
   80084:	00800fc0 	call	800fc <alt_irq_handler>

        .section .exceptions.irqreturn, "xa"

        br    .Lexception_exit
   80088:	00000706 	br	800a8 <alt_exception+0x88>
         * upon completion, so we write ea (address of instruction *after*
         * the one where the exception occured) into 72(sp). The actual
         * instruction that caused the exception is written in r2, which these
         * handlers will utilize.
         */
        stw ea, 72(sp) /* EA is PC+4 so will skip over instruction causing exception */
   8008c:	df401215 	stw	ea,72(sp)
.Lunknown_16bit:
        addi.n r4, r4, 2 /* Need PC+2 to skip over instruction causing exception */
        stw r4, 72(sp)

#else /* CDX is not Enabled and all instructions are 32bits */
        ldw r2, -4(ea) /* Instruction value that caused exception */
   80090:	e8bfff17 	ldw	r2,-4(ea)
         * debugger is present) or go into an infinite loop since the
         * handling behavior is undefined; in that case we will not return here.
         */

        /* Load exception-causing address as first argument (r4) */
        addi   r4, ea, -4
   80094:	e93fff04 	addi	r4,ea,-4

        /* Call the instruction-exception entry */
        call   alt_instruction_exception_entry
   80098:	008016c0 	call	8016c <alt_instruction_exception_entry>
         * instruction
         *
         * Return code was 0: Skip. The instruction after the exception is
         * already stored in 72(sp).
         */
        bne   r2, r0, .Lexception_exit
   8009c:	1000021e 	bne	r2,zero,800a8 <alt_exception+0x88>

        /*
         * Otherwise, modify 72(sp) to re-issue the instruction that caused the
         * exception.
         */
        addi  r15, ea, -4  /* instruction that caused exception */
   800a0:	ebffff04 	addi	r15,ea,-4
        stw   r15,  72(sp)
   800a4:	dbc01215 	stw	r15,72(sp)
        /* 
         * Restore the saved registers, so that all general purpose registers 
         * have been restored to their state at the time the interrupt occured.
         */

        ldw   r5,  68(sp)
   800a8:	d9401117 	ldw	r5,68(sp)
        ldw   ea,  72(sp)  /* This becomes the PC once eret is executed */
   800ac:	df401217 	ldw	ea,72(sp)
        ldw   ra,   0(sp)
   800b0:	dfc00017 	ldw	ra,0(sp)

        wrctl estatus, r5
   800b4:	2801707a 	wrctl	estatus,r5

        ldw   r1,   8(sp)
   800b8:	d8400217 	ldw	at,8(sp)
        ldw   r2,  12(sp)
   800bc:	d8800317 	ldw	r2,12(sp)
        ldw   r3,  16(sp)
   800c0:	d8c00417 	ldw	r3,16(sp)
        ldw   r4,  20(sp)
   800c4:	d9000517 	ldw	r4,20(sp)
        ldw   r5,  24(sp)
   800c8:	d9400617 	ldw	r5,24(sp)
        ldw   r6,  28(sp)
   800cc:	d9800717 	ldw	r6,28(sp)
        ldw   r7,  32(sp)
   800d0:	d9c00817 	ldw	r7,32(sp)

#if defined(ALT_EXCEPTION_STACK) && defined(ALT_STACK_CHECK)
        ldw   et, %gprel(alt_exception_old_stack_limit)(gp)
#endif

        ldw   r8,  36(sp)
   800d4:	da000917 	ldw	r8,36(sp)
        ldw   r9,  40(sp)
   800d8:	da400a17 	ldw	r9,40(sp)
        ldw   r10, 44(sp)
   800dc:	da800b17 	ldw	r10,44(sp)
        ldw   r11, 48(sp)
   800e0:	dac00c17 	ldw	r11,48(sp)
        ldw   r12, 52(sp)
   800e4:	db000d17 	ldw	r12,52(sp)
        ldw   r13, 56(sp)
   800e8:	db400e17 	ldw	r13,56(sp)
        ldw   r14, 60(sp)
   800ec:	db800f17 	ldw	r14,60(sp)
        ldw   r15, 64(sp)
   800f0:	dbc01017 	ldw	r15,64(sp)
        stw   et, %gprel(alt_stack_limit_value)(gp)
        stw   zero, %gprel(alt_exception_old_stack_limit)(gp)
#endif /* ALT_STACK_CHECK */
        ldw   sp,  76(sp)
#else /* ALT_EXCEPTION_STACK disabled */
        addi  sp, sp, 76
   800f4:	dec01304 	addi	sp,sp,76

        /*
         * Return to the interrupted instruction.
         */

        eret
   800f8:	ef80083a 	eret

000800fc <alt_irq_handler>:
 * instruction is present if the macro ALT_CI_INTERRUPT_VECTOR defined.
 */

void alt_irq_handler (void) __attribute__ ((section (".exceptions")));
void alt_irq_handler (void)
{
   800fc:	defffe04 	addi	sp,sp,-8
   80100:	dfc00115 	stw	ra,4(sp)
   80104:	dc000015 	stw	r16,0(sp)
#ifndef NIOS2_EIC_PRESENT
static ALT_INLINE alt_u32 ALT_ALWAYS_INLINE alt_irq_pending (void)
{
  alt_u32 active;

  NIOS2_READ_IPENDING (active);
   80108:	000b313a 	rdctl	r5,ipending
    do
    {
      if (active & mask)
      { 
#ifdef ALT_ENHANCED_INTERRUPT_API_PRESENT
        alt_irq[i].handler(alt_irq[i].context); 
   8010c:	04000274 	movhi	r16,9
   80110:	8423db04 	addi	r16,r16,-28820
     * called to clear the interrupt condition.
     */

    do
    {
      if (active & mask)
   80114:	2880004c 	andi	r2,r5,1
   80118:	10000926 	beq	r2,zero,80140 <alt_irq_handler+0x44>

  active = alt_irq_pending ();

  do
  {
    i = 0;
   8011c:	0007883a 	mov	r3,zero
    do
    {
      if (active & mask)
      { 
#ifdef ALT_ENHANCED_INTERRUPT_API_PRESENT
        alt_irq[i].handler(alt_irq[i].context); 
   80120:	180690fa 	slli	r3,r3,3
   80124:	80c7883a 	add	r3,r16,r3
   80128:	18800017 	ldw	r2,0(r3)
   8012c:	19000117 	ldw	r4,4(r3)
   80130:	103ee83a 	callr	r2
   80134:	000b313a 	rdctl	r5,ipending

    } while (1);

    active = alt_irq_pending ();
    
  } while (active);
   80138:	283ff61e 	bne	r5,zero,80114 <tx_descriptor+0xfff800b4>
   8013c:	00000706 	br	8015c <alt_irq_handler+0x60>
     * called to clear the interrupt condition.
     */

    do
    {
      if (active & mask)
   80140:	0007883a 	mov	r3,zero
   80144:	00800044 	movi	r2,1
#else
        alt_irq[i].handler(alt_irq[i].context, i); 
#endif
        break;
      }
      mask <<= 1;
   80148:	1085883a 	add	r2,r2,r2
      i++;
   8014c:	18c00044 	addi	r3,r3,1
     * called to clear the interrupt condition.
     */

    do
    {
      if (active & mask)
   80150:	2888703a 	and	r4,r5,r2
   80154:	203ffc26 	beq	r4,zero,80148 <tx_descriptor+0xfff800e8>
   80158:	003ff106 	br	80120 <tx_descriptor+0xfff800c0>
  /*
   * Notify the operating system that interrupt processing is complete.
   */ 

  ALT_OS_INT_EXIT();
}
   8015c:	dfc00117 	ldw	ra,4(sp)
   80160:	dc000017 	ldw	r16,0(sp)
   80164:	dec00204 	addi	sp,sp,8
   80168:	f800283a 	ret

0008016c <alt_instruction_exception_entry>:
#else
  cause = NIOS2_EXCEPTION_CAUSE_NOT_PRESENT;
  badaddr = 0;
#endif /* NIOS2_HAS_EXTRA_EXCEPTION_INFO */

  if(alt_instruction_exception_handler) {
   8016c:	d0a7ce17 	ldw	r2,-24776(gp)
   80170:	10000726 	beq	r2,zero,80190 <alt_instruction_exception_entry+0x24>
 * that handler if it has been registered. Absent a handler, it will
 * break break or hang as discussed below.
 */
int 
alt_instruction_exception_entry (alt_u32 exception_pc)
{
   80174:	deffff04 	addi	sp,sp,-4
   80178:	dfc00015 	stw	ra,0(sp)
   8017c:	200b883a 	mov	r5,r4
     * Call handler. Its return value indicates whether the exception-causing
     * instruction should be re-issued. The code that called us,
     * alt_eceptions_entry.S, will look at this value and adjust the ea
     * register as necessary
     */
    return alt_instruction_exception_handler(cause, exception_pc, badaddr);
   80180:	000d883a 	mov	r6,zero
   80184:	013fffc4 	movi	r4,-1
   80188:	103ee83a 	callr	r2
   8018c:	00000306 	br	8019c <alt_instruction_exception_entry+0x30>
   *    (a peripheral which negates its interrupt output before its
   *    interrupt handler has been executed will cause spurious interrupts)
   */
  else {
#ifdef NIOS2_HAS_DEBUG_STUB
    NIOS2_BREAK();
   80190:	003da03a 	break	0
      ;
#endif /* NIOS2_HAS_DEBUG_STUB */
  }

  /* We should not get here. Remove compiler warning. */
  return NIOS2_EXCEPTION_RETURN_REISSUE_INST;
   80194:	0005883a 	mov	r2,zero
   80198:	f800283a 	ret
}
   8019c:	dfc00017 	ldw	ra,0(sp)
   801a0:	dec00104 	addi	sp,sp,4
   801a4:	f800283a 	ret

Disassembly of section .text:

000801a8 <_start>:

    /*
     * Now that the caches are initialized, set up the stack pointer and global pointer.
     * The values provided by the linker are assumed to be correctly aligned.
     */
    movhi sp, %hi(__alt_stack_pointer)
   801a8:	06c00334 	movhi	sp,12
    ori sp, sp, %lo(__alt_stack_pointer)
   801ac:	deec0014 	ori	sp,sp,45056
    movhi gp, %hi(_gp)
   801b0:	06800234 	movhi	gp,8
    ori gp, gp, %lo(_gp)
   801b4:	d6bafe14 	ori	gp,gp,60408
 */
#ifndef ALT_SIM_OPTIMIZE
    /* Log that the BSS is about to be cleared. */
    ALT_LOG_PUTS(alt_log_msg_bss)

    movhi r2, %hi(__bss_start)
   801b8:	00800234 	movhi	r2,8
    ori r2, r2, %lo(__bss_start)
   801bc:	10a2c314 	ori	r2,r2,35596

    movhi r3, %hi(__bss_end)
   801c0:	00c00234 	movhi	r3,8
    ori r3, r3, %lo(__bss_end)
   801c4:	18e41b14 	ori	r3,r3,36972

    beq r2, r3, 1f
   801c8:	10c00326 	beq	r2,r3,801d8 <_start+0x30>

0:
    stw zero, (r2)
   801cc:	10000015 	stw	zero,0(r2)
    addi r2, r2, 4
   801d0:	10800104 	addi	r2,r2,4
    bltu r2, r3, 0b
   801d4:	10fffd36 	bltu	r2,r3,801cc <tx_descriptor+0xfff8016c>
     * section aren't defined until alt_load() has been called).
     */
    mov   et, zero
#endif

    call alt_load
   801d8:	00805c00 	call	805c0 <alt_load>

    /* Log that alt_main is about to be called. */
    ALT_LOG_PUTS(alt_log_msg_alt_main)

    /* Call the C entry point. It should never return. */
    call alt_main
   801dc:	00807440 	call	80744 <alt_main>

000801e0 <alt_after_alt_main>:

    /* Wait in infinite loop in case alt_main does return. */
alt_after_alt_main:
    br alt_after_alt_main
   801e0:	003fff06 	br	801e0 <tx_descriptor+0xfff80180>

000801e4 <rx_ethernet_isr>:

/****************************************************************************************
 * Subroutine to read incoming Ethernet frames
****************************************************************************************/
void rx_ethernet_isr (void *context)
{
   801e4:	defffb04 	addi	sp,sp,-20
   801e8:	dfc00415 	stw	ra,16(sp)
   801ec:	dc800315 	stw	r18,12(sp)
   801f0:	dc400215 	stw	r17,8(sp)
   801f4:	dc000115 	stw	r16,4(sp)
	int i;

	// Wait until receive descriptor transfer is complete
	while (alt_avalon_sgdma_check_descriptor_status(&rx_descriptor) != 0)
   801f8:	04000434 	movhi	r16,16
   801fc:	84000804 	addi	r16,r16,32
   80200:	8009883a 	mov	r4,r16
   80204:	00812180 	call	81218 <alt_avalon_sgdma_check_descriptor_status>
   80208:	103ffd1e 	bne	r2,zero,80200 <tx_descriptor+0xfff801a0>
		;
	
	// Clear input line before writing
	for (i = 0; i < (6 + text_length); i++) {
   8020c:	d0e7c617 	ldw	r3,-24808(gp)
   80210:	00bffe84 	movi	r2,-6
   80214:	18800b26 	beq	r3,r2,80244 <rx_ethernet_isr+0x60>
   80218:	0021883a 	mov	r16,zero
		alt_printf( "%c", 0x08 );		 // 0x08 --> backspace	
   8021c:	04800204 	movi	r18,8
   80220:	04400234 	movhi	r17,8
   80224:	8c530904 	addi	r17,r17,19492
   80228:	900b883a 	mov	r5,r18
   8022c:	8809883a 	mov	r4,r17
   80230:	00807940 	call	80794 <alt_printf>
	// Wait until receive descriptor transfer is complete
	while (alt_avalon_sgdma_check_descriptor_status(&rx_descriptor) != 0)
		;
	
	// Clear input line before writing
	for (i = 0; i < (6 + text_length); i++) {
   80234:	84000044 	addi	r16,r16,1
   80238:	d0a7c617 	ldw	r2,-24808(gp)
   8023c:	10800184 	addi	r2,r2,6
   80240:	80bff936 	bltu	r16,r2,80228 <tx_descriptor+0xfff801c8>
		alt_printf( "%c", 0x08 );		 // 0x08 --> backspace	
	}
	
	// Output received text		
	alt_printf( "receive> %s\n", rx_frame + 16 );
   80244:	04400274 	movhi	r17,9
   80248:	8c62d504 	addi	r17,r17,-29868
   8024c:	880b883a 	mov	r5,r17
   80250:	01000234 	movhi	r4,8
   80254:	21130a04 	addi	r4,r4,19496
   80258:	00807940 	call	80794 <alt_printf>
	
	// Reprint current input line after the output
	alt_printf( "send> %s", tx_frame + 16 );
   8025c:	01400234 	movhi	r5,8
   80260:	29535d04 	addi	r5,r5,19828
   80264:	01000234 	movhi	r4,8
   80268:	21130e04 	addi	r4,r4,19512
   8026c:	00807940 	call	80794 <alt_printf>
	
	// Create new receive sgdma descriptor
	alt_avalon_sgdma_construct_stream_to_mem_desc( &rx_descriptor, &rx_descriptor_end, (alt_u32 *)rx_frame, 0, 0 );
   80270:	04000434 	movhi	r16,16
   80274:	84000804 	addi	r16,r16,32
   80278:	d8000015 	stw	zero,0(sp)
   8027c:	000f883a 	mov	r7,zero
   80280:	89bffc04 	addi	r6,r17,-16
   80284:	01400434 	movhi	r5,16
   80288:	29400004 	addi	r5,r5,0
   8028c:	8009883a 	mov	r4,r16
   80290:	00814d00 	call	814d0 <alt_avalon_sgdma_construct_stream_to_mem_desc>
	
	// Set up non-blocking transfer of sgdma receive descriptor
	alt_avalon_sgdma_do_async_transfer( sgdma_rx_dev, &rx_descriptor );
   80294:	800b883a 	mov	r5,r16
   80298:	d127c717 	ldw	r4,-24804(gp)
   8029c:	00810bc0 	call	810bc <alt_avalon_sgdma_do_async_transfer>
}
   802a0:	dfc00417 	ldw	ra,16(sp)
   802a4:	dc800317 	ldw	r18,12(sp)
   802a8:	dc400217 	ldw	r17,8(sp)
   802ac:	dc000117 	ldw	r16,4(sp)
   802b0:	dec00504 	addi	sp,sp,20
   802b4:	f800283a 	ret

000802b8 <main>:
 *  1. Records input text and transmits the text via Ethernet after Enter is 
 *     pressed
 *  2. Displays text received via Ethernet frame on the JTAG UART
********************************************************************************/
int main(void)
{	
   802b8:	defff204 	addi	sp,sp,-56
   802bc:	dfc00d15 	stw	ra,52(sp)
   802c0:	df000c15 	stw	fp,48(sp)
   802c4:	ddc00b15 	stw	r23,44(sp)
   802c8:	dd800a15 	stw	r22,40(sp)
   802cc:	dd400915 	stw	r21,36(sp)
   802d0:	dd000815 	stw	r20,32(sp)
   802d4:	dcc00715 	stw	r19,28(sp)
   802d8:	dc800615 	stw	r18,24(sp)
   802dc:	dc400515 	stw	r17,20(sp)
   802e0:	dc000415 	stw	r16,16(sp)
	// Open the sgdma transmit device
	sgdma_tx_dev = alt_avalon_sgdma_open ("/dev/sgdma_tx");
   802e4:	01000234 	movhi	r4,8
   802e8:	21131104 	addi	r4,r4,19524
   802ec:	00812440 	call	81244 <alt_avalon_sgdma_open>
   802f0:	d0a7c515 	stw	r2,-24812(gp)
	if (sgdma_tx_dev == NULL) {
   802f4:	1000041e 	bne	r2,zero,80308 <main+0x50>
		alt_printf ("Error: could not open scatter-gather dma transmit device\n");
   802f8:	01000234 	movhi	r4,8
   802fc:	21131504 	addi	r4,r4,19540
   80300:	00807940 	call	80794 <alt_printf>
		return -1;
   80304:	00009906 	br	8056c <main+0x2b4>
	} else alt_printf ("Opened scatter-gather dma transmit device\n");
   80308:	01000234 	movhi	r4,8
   8030c:	21132404 	addi	r4,r4,19600
   80310:	00807940 	call	80794 <alt_printf>
		
	// Open the sgdma receive device
	sgdma_rx_dev = alt_avalon_sgdma_open ("/dev/sgdma_rx");
   80314:	01000234 	movhi	r4,8
   80318:	21132f04 	addi	r4,r4,19644
   8031c:	00812440 	call	81244 <alt_avalon_sgdma_open>
   80320:	d0a7c715 	stw	r2,-24804(gp)
	if (sgdma_rx_dev == NULL) {
   80324:	1000041e 	bne	r2,zero,80338 <main+0x80>
		alt_printf ("Error: could not open scatter-gather dma receive device\n");
   80328:	01000234 	movhi	r4,8
   8032c:	21133304 	addi	r4,r4,19660
   80330:	00807940 	call	80794 <alt_printf>
		return -1;
   80334:	00008d06 	br	8056c <main+0x2b4>
	} else alt_printf ("Opened scatter-gather dma receive device\n");
   80338:	01000234 	movhi	r4,8
   8033c:	21134204 	addi	r4,r4,19720
   80340:	00807940 	call	80794 <alt_printf>

	// Set interrupts for the sgdma receive device
	alt_avalon_sgdma_register_callback( sgdma_rx_dev, (alt_avalon_sgdma_callback) rx_ethernet_isr, 0x00000014, NULL );
   80344:	000f883a 	mov	r7,zero
   80348:	01800504 	movi	r6,20
   8034c:	01400234 	movhi	r5,8
   80350:	29407904 	addi	r5,r5,484
   80354:	d127c717 	ldw	r4,-24804(gp)
   80358:	00811d40 	call	811d4 <alt_avalon_sgdma_register_callback>
	
	// Create sgdma receive descriptor
	alt_avalon_sgdma_construct_stream_to_mem_desc( &rx_descriptor, &rx_descriptor_end, (alt_u32 *)rx_frame, 0, 0 );
   8035c:	04000434 	movhi	r16,16
   80360:	84000804 	addi	r16,r16,32
   80364:	d8000015 	stw	zero,0(sp)
   80368:	000f883a 	mov	r7,zero
   8036c:	01800274 	movhi	r6,9
   80370:	31a2d104 	addi	r6,r6,-29884
   80374:	01400434 	movhi	r5,16
   80378:	29400004 	addi	r5,r5,0
   8037c:	8009883a 	mov	r4,r16
   80380:	00814d00 	call	814d0 <alt_avalon_sgdma_construct_stream_to_mem_desc>
	
	// Set up non-blocking transfer of sgdma receive descriptor
	alt_avalon_sgdma_do_async_transfer( sgdma_rx_dev, &rx_descriptor );
   80384:	800b883a 	mov	r5,r16
   80388:	d127c717 	ldw	r4,-24804(gp)
   8038c:	00810bc0 	call	810bc <alt_avalon_sgdma_do_async_transfer>

	// Triple-speed Ethernet MegaCore base address
	volatile int * tse = (int *) 0x00102000;	
	
	// Initialize the MAC address 
	*(tse + 3) = 0x116E6001;
   80390:	00c45bb4 	movhi	r3,4462
   80394:	18d80044 	addi	r3,r3,24577
   80398:	00800434 	movhi	r2,16
   8039c:	10880304 	addi	r2,r2,8204
   803a0:	10c00015 	stw	r3,0(r2)
	*(tse + 4) = 0x00000F02; 
   803a4:	00c3c084 	movi	r3,3842
   803a8:	00800434 	movhi	r2,16
   803ac:	10880404 	addi	r2,r2,8208
   803b0:	10c00015 	stw	r3,0(r2)

	// Specify the addresses of the PHY devices to be accessed through MDIO interface
	*(tse + 0x0F) = 0x10;
   803b4:	00c00404 	movi	r3,16
   803b8:	00800434 	movhi	r2,16
   803bc:	10880f04 	addi	r2,r2,8252
   803c0:	10c00015 	stw	r3,0(r2)
	*(tse + 0x10) = 0x11;
   803c4:	00c00444 	movi	r3,17
   803c8:	00800434 	movhi	r2,16
   803cc:	10881004 	addi	r2,r2,8256
   803d0:	10c00015 	stw	r3,0(r2)
	
	// Write to register 20 of the PHY chip for Ethernet port 0 to set up line loopback
	*(tse + 0x94) = 0x4000;
   803d4:	00d00004 	movi	r3,16384
   803d8:	00800434 	movhi	r2,16
   803dc:	10889404 	addi	r2,r2,8784
   803e0:	10c00015 	stw	r3,0(r2)
	
	// Write to register 16 of the PHY chip for Ethernet port 1 to enable automatic crossover for all modes
	*(tse + 0xB0) = *(tse + 0xB0) | 0x0060;
   803e4:	00c00434 	movhi	r3,16
   803e8:	18c8b004 	addi	r3,r3,8896
   803ec:	18800017 	ldw	r2,0(r3)
   803f0:	10801814 	ori	r2,r2,96
   803f4:	18800015 	stw	r2,0(r3)
	
	// Write to register 20 of the PHY chip for Ethernet port 2 to set up delay for input/output clk
	*(tse + 0xB4) = *(tse + 0xB4) | 0x0082;
   803f8:	00c00434 	movhi	r3,16
   803fc:	18c8b404 	addi	r3,r3,8912
   80400:	18800017 	ldw	r2,0(r3)
   80404:	10802094 	ori	r2,r2,130
   80408:	18800015 	stw	r2,0(r3)
	
	// Software reset the second PHY chip and wait
	*(tse + 0xA0) = *(tse + 0xA0) | 0x8000;
   8040c:	00c00434 	movhi	r3,16
   80410:	18c8a004 	addi	r3,r3,8832
   80414:	18800017 	ldw	r2,0(r3)
   80418:	10a00014 	ori	r2,r2,32768
   8041c:	18800015 	stw	r2,0(r3)
	while ( *(tse + 0xA0) & 0x8000  )
   80420:	00800434 	movhi	r2,16
   80424:	1088a004 	addi	r2,r2,8832
   80428:	10800017 	ldw	r2,0(r2)
   8042c:	10a0000c 	andi	r2,r2,32768
   80430:	103ffb1e 	bne	r2,zero,80420 <tx_descriptor+0xfff803c0>
		;	 
	 
	// Enable read and write transfers, gigabit Ethernet operation, and CRC forwarding
	*(tse + 2) = *(tse + 2) | 0x0000004B;	
   80434:	00c00434 	movhi	r3,16
   80438:	18c80204 	addi	r3,r3,8200
   8043c:	18800017 	ldw	r2,0(r3)
   80440:	108012d4 	ori	r2,r2,75
   80444:	18800015 	stw	r2,0(r3)
	
	alt_printf( "send> " );
   80448:	01000234 	movhi	r4,8
   8044c:	21134d04 	addi	r4,r4,19764
   80450:	00807940 	call	80794 <alt_printf>
	text_length = 0;
   80454:	d027c615 	stw	zero,-24808(gp)
	
	while (1) {
		
		char new_char;
		tx_frame[16] = '\0';
   80458:	05400234 	movhi	r21,8
   8045c:	ad535904 	addi	r21,r21,19812
		
		// Add new typed characters to the transmit frame until the user types the return character
		while ( (new_char = alt_getchar()) != '\n'  ) {
   80460:	04800284 	movi	r18,10
		
			if (new_char == 0x08 && text_length > 0) {	// Check if character is a backspace and if there is anything to delete
   80464:	04400204 	movi	r17,8

				// Maintain the terminal character after the text
				tx_frame[16 + text_length] = '\0';

			} else if (text_length < 45) {				// Check if there is still room in the frame for another character
				alt_printf( "%c", new_char );
   80468:	05800234 	movhi	r22,8
   8046c:	b5930904 	addi	r22,r22,19492
				// Maintain the terminal character after the text
				tx_frame[16 + text_length] = '\0';
			}
		}

		alt_printf( "\nsend> " );
   80470:	07000234 	movhi	fp,8
   80474:	e7134f04 	addi	fp,fp,19772
		text_length = 0;
		
		// Create transmit sgdma descriptor
		alt_avalon_sgdma_construct_mem_to_stream_desc( &tx_descriptor, &tx_descriptor_end, (alt_u32 *)tx_frame, 62, 0, 1, 1, 0 );
   80478:	05c00434 	movhi	r23,16
   8047c:	bdc01004 	addi	r23,r23,64
   80480:	05000434 	movhi	r20,16
   80484:	a5001804 	addi	r20,r20,96
	text_length = 0;
	
	while (1) {
		
		char new_char;
		tx_frame[16] = '\0';
   80488:	a8000405 	stb	zero,16(r21)
				text_length--;

				// Maintain the terminal character after the text
				tx_frame[16 + text_length] = '\0';

			} else if (text_length < 45) {				// Check if there is still room in the frame for another character
   8048c:	04c00b04 	movi	r19,44
		
		char new_char;
		tx_frame[16] = '\0';
		
		// Add new typed characters to the transmit frame until the user types the return character
		while ( (new_char = alt_getchar()) != '\n'  ) {
   80490:	00001c06 	br	80504 <main+0x24c>
		
			if (new_char == 0x08 && text_length > 0) {	// Check if character is a backspace and if there is anything to delete
   80494:	80803fcc 	andi	r2,r16,255
   80498:	1080201c 	xori	r2,r2,128
   8049c:	10bfe004 	addi	r2,r2,-128
   804a0:	14400b1e 	bne	r2,r17,804d0 <main+0x218>
   804a4:	d0a7c617 	ldw	r2,-24808(gp)
   804a8:	10000b26 	beq	r2,zero,804d8 <main+0x220>

				alt_printf( "%c", new_char );
   804ac:	880b883a 	mov	r5,r17
   804b0:	b009883a 	mov	r4,r22
   804b4:	00807940 	call	80794 <alt_printf>
				text_length--;
   804b8:	d0a7c617 	ldw	r2,-24808(gp)
   804bc:	10ffffc4 	addi	r3,r2,-1
   804c0:	d0e7c615 	stw	r3,-24808(gp)

				// Maintain the terminal character after the text
				tx_frame[16 + text_length] = '\0';
   804c4:	a885883a 	add	r2,r21,r2
   804c8:	100003c5 	stb	zero,15(r2)
   804cc:	00000d06 	br	80504 <main+0x24c>

			} else if (text_length < 45) {				// Check if there is still room in the frame for another character
   804d0:	d0a7c617 	ldw	r2,-24808(gp)
   804d4:	98800b36 	bltu	r19,r2,80504 <main+0x24c>
				alt_printf( "%c", new_char );
   804d8:	81403fcc 	andi	r5,r16,255
   804dc:	2940201c 	xori	r5,r5,128
   804e0:	297fe004 	addi	r5,r5,-128
   804e4:	b009883a 	mov	r4,r22
   804e8:	00807940 	call	80794 <alt_printf>
				
				// Add the new character to the output text
				tx_frame[16 + text_length] = new_char;
   804ec:	d0a7c617 	ldw	r2,-24808(gp)
   804f0:	a887883a 	add	r3,r21,r2
   804f4:	1c000405 	stb	r16,16(r3)
				text_length++;
   804f8:	10800044 	addi	r2,r2,1
   804fc:	d0a7c615 	stw	r2,-24808(gp)

				// Maintain the terminal character after the text
				tx_frame[16 + text_length] = '\0';
   80500:	18000445 	stb	zero,17(r3)
		
		char new_char;
		tx_frame[16] = '\0';
		
		// Add new typed characters to the transmit frame until the user types the return character
		while ( (new_char = alt_getchar()) != '\n'  ) {
   80504:	00805a00 	call	805a0 <alt_getchar>
   80508:	1021883a 	mov	r16,r2
   8050c:	10803fcc 	andi	r2,r2,255
   80510:	1080201c 	xori	r2,r2,128
   80514:	10bfe004 	addi	r2,r2,-128
   80518:	14bfde1e 	bne	r2,r18,80494 <tx_descriptor+0xfff80434>
				// Maintain the terminal character after the text
				tx_frame[16 + text_length] = '\0';
			}
		}

		alt_printf( "\nsend> " );
   8051c:	e009883a 	mov	r4,fp
   80520:	00807940 	call	80794 <alt_printf>
		text_length = 0;
   80524:	d027c615 	stw	zero,-24808(gp)
		
		// Create transmit sgdma descriptor
		alt_avalon_sgdma_construct_mem_to_stream_desc( &tx_descriptor, &tx_descriptor_end, (alt_u32 *)tx_frame, 62, 0, 1, 1, 0 );
   80528:	d8000315 	stw	zero,12(sp)
   8052c:	00800044 	movi	r2,1
   80530:	d8800215 	stw	r2,8(sp)
   80534:	d8800115 	stw	r2,4(sp)
   80538:	d8000015 	stw	zero,0(sp)
   8053c:	01c00f84 	movi	r7,62
   80540:	a80d883a 	mov	r6,r21
   80544:	b80b883a 	mov	r5,r23
   80548:	a009883a 	mov	r4,r20
   8054c:	00815480 	call	81548 <alt_avalon_sgdma_construct_mem_to_stream_desc>
		
		// Set up non-blocking transfer of sgdma transmit descriptor
		alt_avalon_sgdma_do_async_transfer( sgdma_tx_dev, &tx_descriptor );
   80550:	a00b883a 	mov	r5,r20
   80554:	d127c517 	ldw	r4,-24812(gp)
   80558:	00810bc0 	call	810bc <alt_avalon_sgdma_do_async_transfer>
		
		// Wait until transmit descriptor transfer is complete
		while (alt_avalon_sgdma_check_descriptor_status(&tx_descriptor) != 0)
   8055c:	a009883a 	mov	r4,r20
   80560:	00812180 	call	81218 <alt_avalon_sgdma_check_descriptor_status>
   80564:	103ffd1e 	bne	r2,zero,8055c <tx_descriptor+0xfff804fc>
   80568:	003fc706 	br	80488 <tx_descriptor+0xfff80428>
			;
	}    
	
	return 0;
}
   8056c:	00bfffc4 	movi	r2,-1
   80570:	dfc00d17 	ldw	ra,52(sp)
   80574:	df000c17 	ldw	fp,48(sp)
   80578:	ddc00b17 	ldw	r23,44(sp)
   8057c:	dd800a17 	ldw	r22,40(sp)
   80580:	dd400917 	ldw	r21,36(sp)
   80584:	dd000817 	ldw	r20,32(sp)
   80588:	dcc00717 	ldw	r19,28(sp)
   8058c:	dc800617 	ldw	r18,24(sp)
   80590:	dc400517 	ldw	r17,20(sp)
   80594:	dc000417 	ldw	r16,16(sp)
   80598:	dec00e04 	addi	sp,sp,56
   8059c:	f800283a 	ret

000805a0 <alt_getchar>:
 * Uses the ALT_DRIVER_READ() macro to call directly to driver if available.
 * Otherwise, uses newlib provided getchar() routine.
 */
int 
alt_getchar(void)
{
   805a0:	deffff04 	addi	sp,sp,-4
   805a4:	dfc00015 	stw	ra,0(sp)
    if (ALT_DRIVER_READ(ALT_STDIN_DEV, &c, 1, alt_fd_list[STDIN_FILENO].fd_flags) <= 0) {
        return -1;
    }
    return c;
#else
    return getchar();
   805a8:	d0a00c17 	ldw	r2,-32720(gp)
   805ac:	11000117 	ldw	r4,4(r2)
   805b0:	00820700 	call	82070 <getc>
#endif
#endif
}
   805b4:	dfc00017 	ldw	ra,0(sp)
   805b8:	dec00104 	addi	sp,sp,4
   805bc:	f800283a 	ret

000805c0 <alt_load>:
 * there is no bootloader, so this application is responsible for loading to
 * RAM any sections that are required.
 */  

void alt_load (void)
{
   805c0:	deffff04 	addi	sp,sp,-4
   805c4:	dfc00015 	stw	ra,0(sp)

static void ALT_INLINE alt_load_section (alt_u32* from, 
                                         alt_u32* to, 
                                         alt_u32* end)
{
  if (to != from)
   805c8:	00800234 	movhi	r2,8
   805cc:	109b0e04 	addi	r2,r2,27704
   805d0:	00c00234 	movhi	r3,8
   805d4:	18d35904 	addi	r3,r3,19812
   805d8:	18801926 	beq	r3,r2,80640 <alt_load+0x80>
  {
    while( to != end )
   805dc:	00800234 	movhi	r2,8
   805e0:	109b0e04 	addi	r2,r2,27704
   805e4:	00c00234 	movhi	r3,8
   805e8:	18d35904 	addi	r3,r3,19812
   805ec:	18801426 	beq	r3,r2,80640 <alt_load+0x80>
   805f0:	00c00234 	movhi	r3,8
   805f4:	18d35a04 	addi	r3,r3,19816
   805f8:	00800234 	movhi	r2,8
   805fc:	109b0e04 	addi	r2,r2,27704
   80600:	10c7c83a 	sub	r3,r2,r3
   80604:	1806d0ba 	srli	r3,r3,2
   80608:	18c00044 	addi	r3,r3,1
   8060c:	18c7883a 	add	r3,r3,r3
   80610:	18c7883a 	add	r3,r3,r3
   80614:	0005883a 	mov	r2,zero
    {
      *to++ = *from++;
   80618:	01c00234 	movhi	r7,8
   8061c:	39d35904 	addi	r7,r7,19812
   80620:	01800234 	movhi	r6,8
   80624:	319b0e04 	addi	r6,r6,27704
   80628:	11c9883a 	add	r4,r2,r7
   8062c:	118b883a 	add	r5,r2,r6
   80630:	29400017 	ldw	r5,0(r5)
   80634:	21400015 	stw	r5,0(r4)
   80638:	10800104 	addi	r2,r2,4
                                         alt_u32* to, 
                                         alt_u32* end)
{
  if (to != from)
  {
    while( to != end )
   8063c:	10fffa1e 	bne	r2,r3,80628 <tx_descriptor+0xfff805c8>

static void ALT_INLINE alt_load_section (alt_u32* from, 
                                         alt_u32* to, 
                                         alt_u32* end)
{
  if (to != from)
   80640:	00800234 	movhi	r2,8
   80644:	10800804 	addi	r2,r2,32
   80648:	00c00234 	movhi	r3,8
   8064c:	18c00804 	addi	r3,r3,32
   80650:	18801926 	beq	r3,r2,806b8 <alt_load+0xf8>
  {
    while( to != end )
   80654:	00800234 	movhi	r2,8
   80658:	10806a04 	addi	r2,r2,424
   8065c:	00c00234 	movhi	r3,8
   80660:	18c00804 	addi	r3,r3,32
   80664:	18801426 	beq	r3,r2,806b8 <alt_load+0xf8>
   80668:	00c00234 	movhi	r3,8
   8066c:	18c00904 	addi	r3,r3,36
   80670:	00800234 	movhi	r2,8
   80674:	10806a04 	addi	r2,r2,424
   80678:	10c7c83a 	sub	r3,r2,r3
   8067c:	1806d0ba 	srli	r3,r3,2
   80680:	18c00044 	addi	r3,r3,1
   80684:	18c7883a 	add	r3,r3,r3
   80688:	18c7883a 	add	r3,r3,r3
   8068c:	0005883a 	mov	r2,zero
    {
      *to++ = *from++;
   80690:	01c00234 	movhi	r7,8
   80694:	39c00804 	addi	r7,r7,32
   80698:	01800234 	movhi	r6,8
   8069c:	31800804 	addi	r6,r6,32
   806a0:	11c9883a 	add	r4,r2,r7
   806a4:	118b883a 	add	r5,r2,r6
   806a8:	29400017 	ldw	r5,0(r5)
   806ac:	21400015 	stw	r5,0(r4)
   806b0:	10800104 	addi	r2,r2,4
                                         alt_u32* to, 
                                         alt_u32* end)
{
  if (to != from)
  {
    while( to != end )
   806b4:	18bffa1e 	bne	r3,r2,806a0 <tx_descriptor+0xfff80640>

static void ALT_INLINE alt_load_section (alt_u32* from, 
                                         alt_u32* to, 
                                         alt_u32* end)
{
  if (to != from)
   806b8:	00800234 	movhi	r2,8
   806bc:	10930904 	addi	r2,r2,19492
   806c0:	00c00234 	movhi	r3,8
   806c4:	18d30904 	addi	r3,r3,19492
   806c8:	18801926 	beq	r3,r2,80730 <alt_load+0x170>
  {
    while( to != end )
   806cc:	00800234 	movhi	r2,8
   806d0:	10935904 	addi	r2,r2,19812
   806d4:	00c00234 	movhi	r3,8
   806d8:	18d30904 	addi	r3,r3,19492
   806dc:	18801426 	beq	r3,r2,80730 <alt_load+0x170>
   806e0:	00c00234 	movhi	r3,8
   806e4:	18d30a04 	addi	r3,r3,19496
   806e8:	00800234 	movhi	r2,8
   806ec:	10935904 	addi	r2,r2,19812
   806f0:	10c7c83a 	sub	r3,r2,r3
   806f4:	1806d0ba 	srli	r3,r3,2
   806f8:	18c00044 	addi	r3,r3,1
   806fc:	18c7883a 	add	r3,r3,r3
   80700:	18c7883a 	add	r3,r3,r3
   80704:	0005883a 	mov	r2,zero
    {
      *to++ = *from++;
   80708:	01c00234 	movhi	r7,8
   8070c:	39d30904 	addi	r7,r7,19492
   80710:	01800234 	movhi	r6,8
   80714:	31930904 	addi	r6,r6,19492
   80718:	11c9883a 	add	r4,r2,r7
   8071c:	118b883a 	add	r5,r2,r6
   80720:	29400017 	ldw	r5,0(r5)
   80724:	21400015 	stw	r5,0(r4)
   80728:	10800104 	addi	r2,r2,4
                                         alt_u32* to, 
                                         alt_u32* end)
{
  if (to != from)
  {
    while( to != end )
   8072c:	18bffa1e 	bne	r3,r2,80718 <tx_descriptor+0xfff806b8>
  
  /*
   * Now ensure that the caches are in synch.
   */
  
  alt_dcache_flush_all();
   80730:	00817b00 	call	817b0 <alt_dcache_flush_all>
  alt_icache_flush_all();
   80734:	00818ac0 	call	818ac <alt_icache_flush_all>
}
   80738:	dfc00017 	ldw	ra,0(sp)
   8073c:	dec00104 	addi	sp,sp,4
   80740:	f800283a 	ret

00080744 <alt_main>:
 * devices/filesystems/components in the system; and call the entry point for
 * the users application, i.e. main().
 */

void alt_main (void)
{
   80744:	defffe04 	addi	sp,sp,-8
   80748:	dfc00115 	stw	ra,4(sp)
   8074c:	dc000015 	stw	r16,0(sp)
#endif

  /* ALT LOG - please see HAL/sys/alt_log_printf.h for details */
  ALT_LOG_PRINT_BOOT("[alt_main.c] Entering alt_main, calling alt_irq_init.\r\n");
  /* Initialize the interrupt controller. */
  alt_irq_init (NULL);
   80750:	0009883a 	mov	r4,zero
   80754:	00809c80 	call	809c8 <alt_irq_init>
  ALT_LOG_PRINT_BOOT("[alt_main.c] Done OS Init, calling alt_sem_create.\r\n");
  ALT_SEM_CREATE (&alt_fd_list_lock, 1);

  /* Initialize the device drivers/software components. */
  ALT_LOG_PRINT_BOOT("[alt_main.c] Calling alt_sys_init.\r\n");
  alt_sys_init();
   80758:	00809e80 	call	809e8 <alt_sys_init>
   * devices be present (not equal to /dev/null) and if direct drivers
   * aren't being used.
   */

    ALT_LOG_PRINT_BOOT("[alt_main.c] Redirecting IO.\r\n");
    alt_io_redirect(ALT_STDOUT, ALT_STDIN, ALT_STDERR);
   8075c:	01000234 	movhi	r4,8
   80760:	21135104 	addi	r4,r4,19780
   80764:	200d883a 	mov	r6,r4
   80768:	200b883a 	mov	r5,r4
   8076c:	0081a440 	call	81a44 <alt_io_redirect>
  ALT_LOG_PRINT_BOOT("[alt_main.c] Calling main.\r\n");

#ifdef ALT_NO_EXIT
  main (alt_argc, alt_argv, alt_envp);
#else
  result = main (alt_argc, alt_argv, alt_envp);
   80770:	d1a7c817 	ldw	r6,-24800(gp)
   80774:	d167c917 	ldw	r5,-24796(gp)
   80778:	d127ca17 	ldw	r4,-24792(gp)
   8077c:	00802b80 	call	802b8 <main>
   80780:	1021883a 	mov	r16,r2
  close(STDOUT_FILENO);
   80784:	01000044 	movi	r4,1
   80788:	00816d40 	call	816d4 <close>
  exit (result);
   8078c:	8009883a 	mov	r4,r16
   80790:	0081fc80 	call	81fc8 <exit>

00080794 <alt_printf>:
/* 
 * ALT printf function 
 */
void 
alt_printf(const char* fmt, ... )
{
   80794:	defff304 	addi	sp,sp,-52
   80798:	dfc00915 	stw	ra,36(sp)
   8079c:	df000815 	stw	fp,32(sp)
   807a0:	ddc00715 	stw	r23,28(sp)
   807a4:	dd800615 	stw	r22,24(sp)
   807a8:	dd400515 	stw	r21,20(sp)
   807ac:	dd000415 	stw	r20,16(sp)
   807b0:	dcc00315 	stw	r19,12(sp)
   807b4:	dc800215 	stw	r18,8(sp)
   807b8:	dc400115 	stw	r17,4(sp)
   807bc:	dc000015 	stw	r16,0(sp)
   807c0:	2021883a 	mov	r16,r4
   807c4:	d9400a15 	stw	r5,40(sp)
   807c8:	d9800b15 	stw	r6,44(sp)
   807cc:	d9c00c15 	stw	r7,48(sp)
	va_list args;
	va_start(args, fmt);
   807d0:	dd800a04 	addi	r22,sp,40
    w = fmt;
    while ((c = *w++) != 0)
    {
        /* If not a format escape character, just print  */
        /* character.  Otherwise, process format string. */
        if (c != '%')
   807d4:	04800944 	movi	r18,37
                if (c == '%')
                {
                    /* Process "%" escape sequence. */
                    alt_putchar(c);
                } 
                else if (c == 'c')
   807d8:	05c018c4 	movi	r23,99
                {
                    int v = va_arg(args, int);
                    alt_putchar(v);
                }
                else if (c == 'x')
   807dc:	07001e04 	movi	fp,120
                        digit_shift -= 4;

                    /* Print digits. */
                    for (; digit_shift >= 0; digit_shift -= 4)
                    {
                        digit = (v & (0xF << digit_shift)) >> digit_shift;
   807e0:	04c003c4 	movi	r19,15
                        if (digit <= 9)
   807e4:	05400244 	movi	r21,9
    const char *w;
    char c;

    /* Process format string. */
    w = fmt;
    while ((c = *w++) != 0)
   807e8:	00005e06 	br	80964 <alt_printf+0x1d0>
    {
        /* If not a format escape character, just print  */
        /* character.  Otherwise, process format string. */
        if (c != '%')
   807ec:	20803fcc 	andi	r2,r4,255
   807f0:	1080201c 	xori	r2,r2,128
   807f4:	10bfe004 	addi	r2,r2,-128
   807f8:	14800426 	beq	r2,r18,8080c <alt_printf+0x78>
    const char *w;
    char c;

    /* Process format string. */
    w = fmt;
    while ((c = *w++) != 0)
   807fc:	84000044 	addi	r16,r16,1
    {
        /* If not a format escape character, just print  */
        /* character.  Otherwise, process format string. */
        if (c != '%')
        {
            alt_putchar(c);
   80800:	1009883a 	mov	r4,r2
   80804:	00809a80 	call	809a8 <alt_putchar>
   80808:	00005606 	br	80964 <alt_printf+0x1d0>
        }
        else
        {
            /* Get format character.  If none     */
            /* available, processing is complete. */
            if ((c = *w++) != 0)
   8080c:	85000084 	addi	r20,r16,2
   80810:	80800043 	ldbu	r2,1(r16)
   80814:	10c03fcc 	andi	r3,r2,255
   80818:	18c0201c 	xori	r3,r3,128
   8081c:	18ffe004 	addi	r3,r3,-128
   80820:	18005526 	beq	r3,zero,80978 <alt_printf+0x1e4>
            {
                if (c == '%')
   80824:	1c80041e 	bne	r3,r18,80838 <alt_printf+0xa4>
                {
                    /* Process "%" escape sequence. */
                    alt_putchar(c);
   80828:	9009883a 	mov	r4,r18
   8082c:	00809a80 	call	809a8 <alt_putchar>
        }
        else
        {
            /* Get format character.  If none     */
            /* available, processing is complete. */
            if ((c = *w++) != 0)
   80830:	a021883a 	mov	r16,r20
   80834:	00004b06 	br	80964 <alt_printf+0x1d0>
                if (c == '%')
                {
                    /* Process "%" escape sequence. */
                    alt_putchar(c);
                } 
                else if (c == 'c')
   80838:	10c03fcc 	andi	r3,r2,255
   8083c:	18c0201c 	xori	r3,r3,128
   80840:	18ffe004 	addi	r3,r3,-128
   80844:	1dc0061e 	bne	r3,r23,80860 <alt_printf+0xcc>
                {
                    int v = va_arg(args, int);
   80848:	b4000104 	addi	r16,r22,4
                    alt_putchar(v);
   8084c:	b1000017 	ldw	r4,0(r22)
   80850:	00809a80 	call	809a8 <alt_putchar>
                    /* Process "%" escape sequence. */
                    alt_putchar(c);
                } 
                else if (c == 'c')
                {
                    int v = va_arg(args, int);
   80854:	802d883a 	mov	r22,r16
        }
        else
        {
            /* Get format character.  If none     */
            /* available, processing is complete. */
            if ((c = *w++) != 0)
   80858:	a021883a 	mov	r16,r20
   8085c:	00004106 	br	80964 <alt_printf+0x1d0>
                else if (c == 'c')
                {
                    int v = va_arg(args, int);
                    alt_putchar(v);
                }
                else if (c == 'x')
   80860:	10c03fcc 	andi	r3,r2,255
   80864:	18c0201c 	xori	r3,r3,128
   80868:	18ffe004 	addi	r3,r3,-128
   8086c:	1f00201e 	bne	r3,fp,808f0 <alt_printf+0x15c>
                {
                    /* Process hexadecimal number format. */
                    unsigned long v = va_arg(args, unsigned long);
   80870:	b4400017 	ldw	r17,0(r22)
   80874:	b5800104 	addi	r22,r22,4
                    unsigned long digit;
                    int digit_shift;

                    /* If the number value is zero, just print and continue. */
                    if (v == 0)
   80878:	88000426 	beq	r17,zero,8088c <alt_printf+0xf8>
                        continue;
                    }

                    /* Find first non-zero digit. */
                    digit_shift = 28;
                    while (!(v & (0xF << digit_shift)))
   8087c:	88bc002c 	andhi	r2,r17,61440
   80880:	10000626 	beq	r2,zero,8089c <alt_printf+0x108>
   80884:	04000704 	movi	r16,28
   80888:	00000a06 	br	808b4 <alt_printf+0x120>
                    int digit_shift;

                    /* If the number value is zero, just print and continue. */
                    if (v == 0)
                    {
                        alt_putchar('0');
   8088c:	01000c04 	movi	r4,48
   80890:	00809a80 	call	809a8 <alt_putchar>
        }
        else
        {
            /* Get format character.  If none     */
            /* available, processing is complete. */
            if ((c = *w++) != 0)
   80894:	a021883a 	mov	r16,r20

                    /* If the number value is zero, just print and continue. */
                    if (v == 0)
                    {
                        alt_putchar('0');
                        continue;
   80898:	00003206 	br	80964 <alt_printf+0x1d0>
                    }

                    /* Find first non-zero digit. */
                    digit_shift = 28;
                    while (!(v & (0xF << digit_shift)))
   8089c:	04000704 	movi	r16,28
                        digit_shift -= 4;
   808a0:	843fff04 	addi	r16,r16,-4
                        continue;
                    }

                    /* Find first non-zero digit. */
                    digit_shift = 28;
                    while (!(v & (0xF << digit_shift)))
   808a4:	9c04983a 	sll	r2,r19,r16
   808a8:	1444703a 	and	r2,r2,r17
   808ac:	103ffc26 	beq	r2,zero,808a0 <tx_descriptor+0xfff80840>
                        digit_shift -= 4;

                    /* Print digits. */
                    for (; digit_shift >= 0; digit_shift -= 4)
   808b0:	80002716 	blt	r16,zero,80950 <alt_printf+0x1bc>
                    {
                        digit = (v & (0xF << digit_shift)) >> digit_shift;
   808b4:	9c08983a 	sll	r4,r19,r16
   808b8:	2448703a 	and	r4,r4,r17
   808bc:	2408d83a 	srl	r4,r4,r16
                        if (digit <= 9)
   808c0:	a9000236 	bltu	r21,r4,808cc <alt_printf+0x138>
                            c = '0' + digit;
   808c4:	21000c04 	addi	r4,r4,48
   808c8:	00000106 	br	808d0 <alt_printf+0x13c>
                        else
                            c = 'a' + digit - 10;
   808cc:	210015c4 	addi	r4,r4,87
                        alt_putchar(c);
   808d0:	21003fcc 	andi	r4,r4,255
   808d4:	2100201c 	xori	r4,r4,128
   808d8:	213fe004 	addi	r4,r4,-128
   808dc:	00809a80 	call	809a8 <alt_putchar>
                    digit_shift = 28;
                    while (!(v & (0xF << digit_shift)))
                        digit_shift -= 4;

                    /* Print digits. */
                    for (; digit_shift >= 0; digit_shift -= 4)
   808e0:	843fff04 	addi	r16,r16,-4
   808e4:	803ff30e 	bge	r16,zero,808b4 <tx_descriptor+0xfff80854>
        }
        else
        {
            /* Get format character.  If none     */
            /* available, processing is complete. */
            if ((c = *w++) != 0)
   808e8:	a021883a 	mov	r16,r20
   808ec:	00001d06 	br	80964 <alt_printf+0x1d0>
                        else
                            c = 'a' + digit - 10;
                        alt_putchar(c);
                    }
                }
                else if (c == 's')
   808f0:	10803fcc 	andi	r2,r2,255
   808f4:	1080201c 	xori	r2,r2,128
   808f8:	10bfe004 	addi	r2,r2,-128
   808fc:	00c01cc4 	movi	r3,115
   80900:	10c0151e 	bne	r2,r3,80958 <alt_printf+0x1c4>
                {
                    /* Process string format. */
                    char *s = va_arg(args, char *);
   80904:	b4000017 	ldw	r16,0(r22)
   80908:	b5800104 	addi	r22,r22,4

                    while(*s)
   8090c:	81000003 	ldbu	r4,0(r16)
   80910:	20803fcc 	andi	r2,r4,255
   80914:	1080201c 	xori	r2,r2,128
   80918:	10bfe004 	addi	r2,r2,-128
   8091c:	10001026 	beq	r2,zero,80960 <alt_printf+0x1cc>
                      alt_putchar(*s++);
   80920:	84000044 	addi	r16,r16,1
   80924:	21003fcc 	andi	r4,r4,255
   80928:	2100201c 	xori	r4,r4,128
   8092c:	213fe004 	addi	r4,r4,-128
   80930:	00809a80 	call	809a8 <alt_putchar>
                else if (c == 's')
                {
                    /* Process string format. */
                    char *s = va_arg(args, char *);

                    while(*s)
   80934:	81000003 	ldbu	r4,0(r16)
   80938:	20803fcc 	andi	r2,r4,255
   8093c:	1080201c 	xori	r2,r2,128
   80940:	10bfe004 	addi	r2,r2,-128
   80944:	103ff61e 	bne	r2,zero,80920 <tx_descriptor+0xfff808c0>
        }
        else
        {
            /* Get format character.  If none     */
            /* available, processing is complete. */
            if ((c = *w++) != 0)
   80948:	a021883a 	mov	r16,r20
   8094c:	00000506 	br	80964 <alt_printf+0x1d0>
   80950:	a021883a 	mov	r16,r20
   80954:	00000306 	br	80964 <alt_printf+0x1d0>
   80958:	a021883a 	mov	r16,r20
   8095c:	00000106 	br	80964 <alt_printf+0x1d0>
   80960:	a021883a 	mov	r16,r20
    const char *w;
    char c;

    /* Process format string. */
    w = fmt;
    while ((c = *w++) != 0)
   80964:	81000003 	ldbu	r4,0(r16)
   80968:	20803fcc 	andi	r2,r4,255
   8096c:	1080201c 	xori	r2,r2,128
   80970:	10bfe004 	addi	r2,r2,-128
   80974:	103f9d1e 	bne	r2,zero,807ec <tx_descriptor+0xfff8078c>
        }
    }
#ifdef ALT_SEMIHOSTING
    alt_putbufflush();
#endif
}
   80978:	dfc00917 	ldw	ra,36(sp)
   8097c:	df000817 	ldw	fp,32(sp)
   80980:	ddc00717 	ldw	r23,28(sp)
   80984:	dd800617 	ldw	r22,24(sp)
   80988:	dd400517 	ldw	r21,20(sp)
   8098c:	dd000417 	ldw	r20,16(sp)
   80990:	dcc00317 	ldw	r19,12(sp)
   80994:	dc800217 	ldw	r18,8(sp)
   80998:	dc400117 	ldw	r17,4(sp)
   8099c:	dc000017 	ldw	r16,0(sp)
   809a0:	dec00d04 	addi	sp,sp,52
   809a4:	f800283a 	ret

000809a8 <alt_putchar>:
 * Uses the ALT_DRIVER_WRITE() macro to call directly to driver if available.
 * Otherwise, uses newlib provided putchar() routine.
 */
int 
alt_putchar(int c)
{
   809a8:	deffff04 	addi	sp,sp,-4
   809ac:	dfc00015 	stw	ra,0(sp)
    if (ALT_DRIVER_WRITE(ALT_STDOUT_DEV, &c1, 1, 0) == -1) {
        return -1;
    }
    return c;
#else
    return putchar(c);
   809b0:	d0a00c17 	ldw	r2,-32720(gp)
   809b4:	11400217 	ldw	r5,8(r2)
   809b8:	008235c0 	call	8235c <putc>
#endif
#endif
}
   809bc:	dfc00017 	ldw	ra,0(sp)
   809c0:	dec00104 	addi	sp,sp,4
   809c4:	f800283a 	ret

000809c8 <alt_irq_init>:
 * The "base" parameter is ignored and only
 * present for backwards-compatibility.
 */

void alt_irq_init ( const void* base )
{
   809c8:	deffff04 	addi	sp,sp,-4
   809cc:	dfc00015 	stw	ra,0(sp)
    ALTERA_NIOS2_GEN2_IRQ_INIT ( NIOS2_GEN2_0, nios2_gen2_0);
   809d0:	0081df40 	call	81df4 <altera_nios2_gen2_irq_init>
 * alt_irq_cpu_enable_interrupts() enables the CPU to start taking interrupts.
 */
static ALT_INLINE void ALT_ALWAYS_INLINE 
       alt_irq_cpu_enable_interrupts (void)
{
    NIOS2_WRITE_STATUS(NIOS2_STATUS_PIE_MSK
   809d4:	00800044 	movi	r2,1
   809d8:	1001703a 	wrctl	status,r2
    alt_irq_cpu_enable_interrupts();
}
   809dc:	dfc00017 	ldw	ra,0(sp)
   809e0:	dec00104 	addi	sp,sp,4
   809e4:	f800283a 	ret

000809e8 <alt_sys_init>:
 * Initialize the non-interrupt controller devices.
 * Called after alt_irq_init().
 */

void alt_sys_init( void )
{
   809e8:	defffe04 	addi	sp,sp,-8
   809ec:	dfc00115 	stw	ra,4(sp)
   809f0:	dc000015 	stw	r16,0(sp)
    ALTERA_AVALON_JTAG_UART_INIT ( JTAG_UART, jtag_uart);
   809f4:	04000234 	movhi	r16,8
   809f8:	84147b04 	addi	r16,r16,20972
   809fc:	000d883a 	mov	r6,zero
   80a00:	000b883a 	mov	r5,zero
   80a04:	8009883a 	mov	r4,r16
   80a08:	0080c2c0 	call	80c2c <altera_avalon_jtag_uart_init>

static ALT_INLINE int alt_dev_reg (alt_dev* dev)
{
  extern alt_llist alt_dev_list;

  return alt_dev_llist_insert ((alt_dev_llist*) dev, &alt_dev_list);
   80a0c:	d1600304 	addi	r5,gp,-32756
   80a10:	813ff604 	addi	r4,r16,-40
   80a14:	00817bc0 	call	817bc <alt_dev_llist_insert>
    ALTERA_AVALON_SGDMA_INIT ( SGDMA_RX, sgdma_rx);
   80a18:	01800044 	movi	r6,1
   80a1c:	000b883a 	mov	r5,zero
   80a20:	01000234 	movhi	r4,8
   80a24:	21146504 	addi	r4,r4,20884
   80a28:	00815d00 	call	815d0 <alt_avalon_sgdma_init>
    ALTERA_AVALON_SGDMA_INIT ( SGDMA_TX, sgdma_tx);
   80a2c:	01800084 	movi	r6,2
   80a30:	000b883a 	mov	r5,zero
   80a34:	01000234 	movhi	r4,8
   80a38:	21145904 	addi	r4,r4,20836
   80a3c:	00815d00 	call	815d0 <alt_avalon_sgdma_init>
    ALTERA_ETH_TSE_INIT ( TSE, tse);
}
   80a40:	dfc00117 	ldw	ra,4(sp)
   80a44:	dc000017 	ldw	r16,0(sp)
   80a48:	dec00204 	addi	sp,sp,8
   80a4c:	f800283a 	ret

00080a50 <altera_avalon_jtag_uart_read_fd>:
 *
 */

int 
altera_avalon_jtag_uart_read_fd(alt_fd* fd, char* buffer, int space)
{
   80a50:	deffff04 	addi	sp,sp,-4
   80a54:	dfc00015 	stw	ra,0(sp)
    altera_avalon_jtag_uart_dev* dev = (altera_avalon_jtag_uart_dev*) fd->dev; 

    return altera_avalon_jtag_uart_read(&dev->state, buffer, space,
   80a58:	20800017 	ldw	r2,0(r4)
   80a5c:	21c00217 	ldw	r7,8(r4)
   80a60:	11000a04 	addi	r4,r2,40
   80a64:	0080d680 	call	80d68 <altera_avalon_jtag_uart_read>
      fd->fd_flags);
}
   80a68:	dfc00017 	ldw	ra,0(sp)
   80a6c:	dec00104 	addi	sp,sp,4
   80a70:	f800283a 	ret

00080a74 <altera_avalon_jtag_uart_write_fd>:

int 
altera_avalon_jtag_uart_write_fd(alt_fd* fd, const char* buffer, int space)
{
   80a74:	deffff04 	addi	sp,sp,-4
   80a78:	dfc00015 	stw	ra,0(sp)
    altera_avalon_jtag_uart_dev* dev = (altera_avalon_jtag_uart_dev*) fd->dev; 

    return altera_avalon_jtag_uart_write(&dev->state, buffer, space,
   80a7c:	20800017 	ldw	r2,0(r4)
   80a80:	21c00217 	ldw	r7,8(r4)
   80a84:	11000a04 	addi	r4,r2,40
   80a88:	0080ec00 	call	80ec0 <altera_avalon_jtag_uart_write>
      fd->fd_flags);
}
   80a8c:	dfc00017 	ldw	ra,0(sp)
   80a90:	dec00104 	addi	sp,sp,4
   80a94:	f800283a 	ret

00080a98 <altera_avalon_jtag_uart_close_fd>:

#ifndef ALTERA_AVALON_JTAG_UART_SMALL

int 
altera_avalon_jtag_uart_close_fd(alt_fd* fd)
{
   80a98:	deffff04 	addi	sp,sp,-4
   80a9c:	dfc00015 	stw	ra,0(sp)
    altera_avalon_jtag_uart_dev* dev = (altera_avalon_jtag_uart_dev*) fd->dev; 

    return altera_avalon_jtag_uart_close(&dev->state, fd->fd_flags);
   80aa0:	20800017 	ldw	r2,0(r4)
   80aa4:	21400217 	ldw	r5,8(r4)
   80aa8:	11000a04 	addi	r4,r2,40
   80aac:	0080ca40 	call	80ca4 <altera_avalon_jtag_uart_close>
}
   80ab0:	dfc00017 	ldw	ra,0(sp)
   80ab4:	dec00104 	addi	sp,sp,4
   80ab8:	f800283a 	ret

00080abc <altera_avalon_jtag_uart_ioctl_fd>:

int 
altera_avalon_jtag_uart_ioctl_fd(alt_fd* fd, int req, void* arg)
{
   80abc:	deffff04 	addi	sp,sp,-4
   80ac0:	dfc00015 	stw	ra,0(sp)
    altera_avalon_jtag_uart_dev* dev = (altera_avalon_jtag_uart_dev*) fd->dev;

    return altera_avalon_jtag_uart_ioctl(&dev->state, req, arg);
   80ac4:	21000017 	ldw	r4,0(r4)
   80ac8:	21000a04 	addi	r4,r4,40
   80acc:	0080ce00 	call	80ce0 <altera_avalon_jtag_uart_ioctl>
}
   80ad0:	dfc00017 	ldw	ra,0(sp)
   80ad4:	dec00104 	addi	sp,sp,4
   80ad8:	f800283a 	ret

00080adc <altera_avalon_jtag_uart_timeout>:
static alt_u32 
altera_avalon_jtag_uart_timeout(void* context) 
{
  altera_avalon_jtag_uart_state* sp = (altera_avalon_jtag_uart_state *) context;

  unsigned int control = IORD_ALTERA_AVALON_JTAG_UART_CONTROL(sp->base);
   80adc:	20800017 	ldw	r2,0(r4)
   80ae0:	10800137 	ldwio	r2,4(r2)

  if (control & ALTERA_AVALON_JTAG_UART_CONTROL_AC_MSK)
   80ae4:	1081000c 	andi	r2,r2,1024
   80ae8:	10000626 	beq	r2,zero,80b04 <altera_avalon_jtag_uart_timeout+0x28>
  {
    IOWR_ALTERA_AVALON_JTAG_UART_CONTROL(sp->base, sp->irq_enable | ALTERA_AVALON_JTAG_UART_CONTROL_AC_MSK);
   80aec:	20c00017 	ldw	r3,0(r4)
   80af0:	20800817 	ldw	r2,32(r4)
   80af4:	10810014 	ori	r2,r2,1024
   80af8:	18800135 	stwio	r2,4(r3)
    sp->host_inactive = 0;
   80afc:	20000915 	stw	zero,36(r4)
   80b00:	00000606 	br	80b1c <altera_avalon_jtag_uart_timeout+0x40>
  }
  else if (sp->host_inactive < INT_MAX - 2) {
   80b04:	20800917 	ldw	r2,36(r4)
   80b08:	00e00034 	movhi	r3,32768
   80b0c:	18ffff04 	addi	r3,r3,-4
   80b10:	18800236 	bltu	r3,r2,80b1c <altera_avalon_jtag_uart_timeout+0x40>
    sp->host_inactive++;
   80b14:	10800044 	addi	r2,r2,1
   80b18:	20800915 	stw	r2,36(r4)
      ALT_FLAG_POST (sp->events, ALT_JTAG_UART_TIMEOUT, OS_FLAG_SET);
    }
  }

  return alt_ticks_per_second();
}
   80b1c:	d0a7cd17 	ldw	r2,-24780(gp)
   80b20:	f800283a 	ret

00080b24 <altera_avalon_jtag_uart_irq>:
#else
static void altera_avalon_jtag_uart_irq(void* context, alt_u32 id)
#endif
{
  altera_avalon_jtag_uart_state* sp = (altera_avalon_jtag_uart_state*) context;
  unsigned int base = sp->base;
   80b24:	21800017 	ldw	r6,0(r4)
  /* ALT_LOG - see altera_hal/HAL/inc/sys/alt_log_printf.h */ 
  ALT_LOG_JTAG_UART_ISR_FUNCTION(base, sp);

  for ( ; ; )
  {
    unsigned int control = IORD_ALTERA_AVALON_JTAG_UART_CONTROL(base);
   80b28:	32000104 	addi	r8,r6,4
      if (data & ALTERA_AVALON_JTAG_UART_DATA_RAVAIL_MSK)
      {
        /* If there is still data available here then the buffer is full 
         * so turn off receive interrupts until some space becomes available.
         */
        sp->irq_enable &= ~ALTERA_AVALON_JTAG_UART_CONTROL_RE_MSK;
   80b2c:	02bfff84 	movi	r10,-2
      }

      if (space > 0)
      {
        /* If we don't have any more data available then turn off the TX interrupt */
        sp->irq_enable &= ~ALTERA_AVALON_JTAG_UART_CONTROL_WE_MSK;
   80b30:	02ffff44 	movi	r11,-3
  /* ALT_LOG - see altera_hal/HAL/inc/sys/alt_log_printf.h */ 
  ALT_LOG_JTAG_UART_ISR_FUNCTION(base, sp);

  for ( ; ; )
  {
    unsigned int control = IORD_ALTERA_AVALON_JTAG_UART_CONTROL(base);
   80b34:	4013883a 	mov	r9,r8
   80b38:	41c00037 	ldwio	r7,0(r8)

    /* Return once nothing more to do */
    if ((control & (ALTERA_AVALON_JTAG_UART_CONTROL_RI_MSK | ALTERA_AVALON_JTAG_UART_CONTROL_WI_MSK)) == 0)
   80b3c:	3880c00c 	andi	r2,r7,768
   80b40:	10003926 	beq	r2,zero,80c28 <altera_avalon_jtag_uart_irq+0x104>
      break;

    if (control & ALTERA_AVALON_JTAG_UART_CONTROL_RI_MSK)
   80b44:	3880400c 	andi	r2,r7,256
   80b48:	10001c26 	beq	r2,zero,80bbc <altera_avalon_jtag_uart_irq+0x98>
      for ( ; ; )
      {
        /* Check whether there is space in the buffer.  If not then we must not
         * read any characters from the buffer as they will be lost.
         */
        unsigned int next = (sp->rx_in + 1) % ALTERA_AVALON_JTAG_UART_BUF_LEN;
   80b4c:	20800a17 	ldw	r2,40(r4)
        if (next == sp->rx_out)
   80b50:	10800044 	addi	r2,r2,1
   80b54:	1081ffcc 	andi	r2,r2,2047
   80b58:	20c00b17 	ldw	r3,44(r4)
   80b5c:	10c01226 	beq	r2,r3,80ba8 <altera_avalon_jtag_uart_irq+0x84>
          break;

        /* Try to remove a character from the FIFO and find out whether there
         * are any more characters remaining.
         */
        data = IORD_ALTERA_AVALON_JTAG_UART_DATA(base);
   80b60:	30800037 	ldwio	r2,0(r6)
   80b64:	100b883a 	mov	r5,r2
        
        if ((data & ALTERA_AVALON_JTAG_UART_DATA_RVALID_MSK) == 0)
   80b68:	10e0000c 	andi	r3,r2,32768
   80b6c:	18000c26 	beq	r3,zero,80ba0 <altera_avalon_jtag_uart_irq+0x7c>
          break;

        sp->rx_buf[sp->rx_in] = (data & ALTERA_AVALON_JTAG_UART_DATA_DATA_MSK) >> ALTERA_AVALON_JTAG_UART_DATA_DATA_OFST;
   80b70:	20c00a17 	ldw	r3,40(r4)
   80b74:	20c7883a 	add	r3,r4,r3
   80b78:	18800e05 	stb	r2,56(r3)
        sp->rx_in = (sp->rx_in + 1) % ALTERA_AVALON_JTAG_UART_BUF_LEN;
   80b7c:	20800a17 	ldw	r2,40(r4)
   80b80:	10800044 	addi	r2,r2,1
   80b84:	1081ffcc 	andi	r2,r2,2047
   80b88:	20800a15 	stw	r2,40(r4)
      for ( ; ; )
      {
        /* Check whether there is space in the buffer.  If not then we must not
         * read any characters from the buffer as they will be lost.
         */
        unsigned int next = (sp->rx_in + 1) % ALTERA_AVALON_JTAG_UART_BUF_LEN;
   80b8c:	20800a17 	ldw	r2,40(r4)
        if (next == sp->rx_out)
   80b90:	10800044 	addi	r2,r2,1
   80b94:	1081ffcc 	andi	r2,r2,2047
   80b98:	20c00b17 	ldw	r3,44(r4)
   80b9c:	10fff01e 	bne	r2,r3,80b60 <tx_descriptor+0xfff80b00>

        /* Post an event to notify jtag_uart_read that a character has been read */
        ALT_FLAG_POST (sp->events, ALT_JTAG_UART_READ_RDY, OS_FLAG_SET);
      }

      if (data & ALTERA_AVALON_JTAG_UART_DATA_RAVAIL_MSK)
   80ba0:	297fffec 	andhi	r5,r5,65535
   80ba4:	28000526 	beq	r5,zero,80bbc <altera_avalon_jtag_uart_irq+0x98>
      {
        /* If there is still data available here then the buffer is full 
         * so turn off receive interrupts until some space becomes available.
         */
        sp->irq_enable &= ~ALTERA_AVALON_JTAG_UART_CONTROL_RE_MSK;
   80ba8:	20800817 	ldw	r2,32(r4)
   80bac:	1284703a 	and	r2,r2,r10
   80bb0:	20800815 	stw	r2,32(r4)
        IOWR_ALTERA_AVALON_JTAG_UART_CONTROL(base, sp->irq_enable);
   80bb4:	40800035 	stwio	r2,0(r8)
        
        /* Dummy read to ensure IRQ is cleared prior to ISR completion */
        IORD_ALTERA_AVALON_JTAG_UART_CONTROL(base);
   80bb8:	40800037 	ldwio	r2,0(r8)
      }
    }

    if (control & ALTERA_AVALON_JTAG_UART_CONTROL_WI_MSK)
   80bbc:	3880800c 	andi	r2,r7,512
   80bc0:	103fdc26 	beq	r2,zero,80b34 <tx_descriptor+0xfff80ad4>
    {
      /* process a write irq */
      unsigned int space = (control & ALTERA_AVALON_JTAG_UART_CONTROL_WSPACE_MSK) >> ALTERA_AVALON_JTAG_UART_CONTROL_WSPACE_OFST;
   80bc4:	380ed43a 	srli	r7,r7,16

      while (space > 0 && sp->tx_out != sp->tx_in)
   80bc8:	383fda26 	beq	r7,zero,80b34 <tx_descriptor+0xfff80ad4>
   80bcc:	20c00d17 	ldw	r3,52(r4)
   80bd0:	20800c17 	ldw	r2,48(r4)
   80bd4:	18800d26 	beq	r3,r2,80c0c <altera_avalon_jtag_uart_irq+0xe8>
      {
        IOWR_ALTERA_AVALON_JTAG_UART_DATA(base, sp->tx_buf[sp->tx_out]);
   80bd8:	20800d17 	ldw	r2,52(r4)
   80bdc:	2085883a 	add	r2,r4,r2
   80be0:	10820e07 	ldb	r2,2104(r2)
   80be4:	30800035 	stwio	r2,0(r6)

        sp->tx_out = (sp->tx_out + 1) % ALTERA_AVALON_JTAG_UART_BUF_LEN;
   80be8:	20800d17 	ldw	r2,52(r4)
   80bec:	10800044 	addi	r2,r2,1
   80bf0:	1081ffcc 	andi	r2,r2,2047
   80bf4:	20800d15 	stw	r2,52(r4)

        /* Post an event to notify jtag_uart_write that a character has been written */
        ALT_FLAG_POST (sp->events, ALT_JTAG_UART_WRITE_RDY, OS_FLAG_SET);

        space--;
   80bf8:	39ffffc4 	addi	r7,r7,-1
    if (control & ALTERA_AVALON_JTAG_UART_CONTROL_WI_MSK)
    {
      /* process a write irq */
      unsigned int space = (control & ALTERA_AVALON_JTAG_UART_CONTROL_WSPACE_MSK) >> ALTERA_AVALON_JTAG_UART_CONTROL_WSPACE_OFST;

      while (space > 0 && sp->tx_out != sp->tx_in)
   80bfc:	383fcd26 	beq	r7,zero,80b34 <tx_descriptor+0xfff80ad4>
   80c00:	20c00d17 	ldw	r3,52(r4)
   80c04:	20800c17 	ldw	r2,48(r4)
   80c08:	18bff31e 	bne	r3,r2,80bd8 <tx_descriptor+0xfff80b78>
      }

      if (space > 0)
      {
        /* If we don't have any more data available then turn off the TX interrupt */
        sp->irq_enable &= ~ALTERA_AVALON_JTAG_UART_CONTROL_WE_MSK;
   80c0c:	20800817 	ldw	r2,32(r4)
   80c10:	12c4703a 	and	r2,r2,r11
   80c14:	20800815 	stw	r2,32(r4)
        IOWR_ALTERA_AVALON_JTAG_UART_CONTROL(sp->base, sp->irq_enable);
   80c18:	20c00017 	ldw	r3,0(r4)
   80c1c:	18800135 	stwio	r2,4(r3)
        
        /* Dummy read to ensure IRQ is cleared prior to ISR completion */
        IORD_ALTERA_AVALON_JTAG_UART_CONTROL(base);
   80c20:	48800037 	ldwio	r2,0(r9)
   80c24:	003fc306 	br	80b34 <tx_descriptor+0xfff80ad4>
   80c28:	f800283a 	ret

00080c2c <altera_avalon_jtag_uart_init>:
 * Return 1 on sucessful IRQ register and 0 on failure.
 */

void altera_avalon_jtag_uart_init(altera_avalon_jtag_uart_state* sp, 
                                  int irq_controller_id, int irq)
{
   80c2c:	defffd04 	addi	sp,sp,-12
   80c30:	dfc00215 	stw	ra,8(sp)
   80c34:	dc000115 	stw	r16,4(sp)
   80c38:	2021883a 	mov	r16,r4
   80c3c:	2809883a 	mov	r4,r5
   80c40:	300b883a 	mov	r5,r6
  ALT_FLAG_CREATE(&sp->events, 0);
  ALT_SEM_CREATE(&sp->read_lock, 1);
  ALT_SEM_CREATE(&sp->write_lock, 1);

  /* enable read interrupts at the device */
  sp->irq_enable = ALTERA_AVALON_JTAG_UART_CONTROL_RE_MSK;
   80c44:	00800044 	movi	r2,1
   80c48:	80800815 	stw	r2,32(r16)

  IOWR_ALTERA_AVALON_JTAG_UART_CONTROL(sp->base, sp->irq_enable); 
   80c4c:	80c00017 	ldw	r3,0(r16)
   80c50:	18800135 	stwio	r2,4(r3)
  
  /* register the interrupt handler */
#ifdef ALT_ENHANCED_INTERRUPT_API_PRESENT
  alt_ic_isr_register(irq_controller_id, irq, altera_avalon_jtag_uart_irq, 
   80c54:	d8000015 	stw	zero,0(sp)
   80c58:	800f883a 	mov	r7,r16
   80c5c:	01800234 	movhi	r6,8
   80c60:	3182c904 	addi	r6,r6,2852
   80c64:	00818b00 	call	818b0 <alt_ic_isr_register>
#else
  alt_irq_register(irq, sp, altera_avalon_jtag_uart_irq);
#endif  

  /* Register an alarm to go off every second to check for presence of host */
  sp->host_inactive = 0;
   80c68:	80000915 	stw	zero,36(r16)

  if (alt_alarm_start(&sp->alarm, alt_ticks_per_second(), 
   80c6c:	800f883a 	mov	r7,r16
   80c70:	01800234 	movhi	r6,8
   80c74:	3182b704 	addi	r6,r6,2780
   80c78:	d167cd17 	ldw	r5,-24780(gp)
   80c7c:	81000204 	addi	r4,r16,8
   80c80:	00816540 	call	81654 <alt_alarm_start>
   80c84:	1000030e 	bge	r2,zero,80c94 <altera_avalon_jtag_uart_init+0x68>
    &altera_avalon_jtag_uart_timeout, sp) < 0)
  {
    /* If we can't set the alarm then record "don't know if host present" 
     * and behave as though the host is present.
     */
    sp->timeout = INT_MAX;
   80c88:	00a00034 	movhi	r2,32768
   80c8c:	10bfffc4 	addi	r2,r2,-1
   80c90:	80800115 	stw	r2,4(r16)
  }

  /* ALT_LOG - see altera_hal/HAL/inc/sys/alt_log_printf.h */ 
  ALT_LOG_JTAG_UART_ALARM_REGISTER(sp, sp->base);
}
   80c94:	dfc00217 	ldw	ra,8(sp)
   80c98:	dc000117 	ldw	r16,4(sp)
   80c9c:	dec00304 	addi	sp,sp,12
   80ca0:	f800283a 	ret

00080ca4 <altera_avalon_jtag_uart_close>:
{
  /* 
   * Wait for all transmit data to be emptied by the JTAG UART ISR, or
   * for a host-inactivity timeout, in which case transmit data will be lost
   */
  while ( (sp->tx_out != sp->tx_in) && (sp->host_inactive < sp->timeout) ) {
   80ca4:	21800c17 	ldw	r6,48(r4)
    if (flags & O_NONBLOCK) {
   80ca8:	2950000c 	andi	r5,r5,16384
{
  /* 
   * Wait for all transmit data to be emptied by the JTAG UART ISR, or
   * for a host-inactivity timeout, in which case transmit data will be lost
   */
  while ( (sp->tx_out != sp->tx_in) && (sp->host_inactive < sp->timeout) ) {
   80cac:	00000106 	br	80cb4 <altera_avalon_jtag_uart_close+0x10>
    if (flags & O_NONBLOCK) {
   80cb0:	2800071e 	bne	r5,zero,80cd0 <altera_avalon_jtag_uart_close+0x2c>
{
  /* 
   * Wait for all transmit data to be emptied by the JTAG UART ISR, or
   * for a host-inactivity timeout, in which case transmit data will be lost
   */
  while ( (sp->tx_out != sp->tx_in) && (sp->host_inactive < sp->timeout) ) {
   80cb4:	20800d17 	ldw	r2,52(r4)
   80cb8:	11800726 	beq	r2,r6,80cd8 <altera_avalon_jtag_uart_close+0x34>
   80cbc:	20c00917 	ldw	r3,36(r4)
   80cc0:	20800117 	ldw	r2,4(r4)
   80cc4:	18bffa36 	bltu	r3,r2,80cb0 <tx_descriptor+0xfff80c50>
    if (flags & O_NONBLOCK) {
      return -EWOULDBLOCK; 
    }
  }

  return 0;
   80cc8:	0005883a 	mov	r2,zero
   80ccc:	f800283a 	ret
   * Wait for all transmit data to be emptied by the JTAG UART ISR, or
   * for a host-inactivity timeout, in which case transmit data will be lost
   */
  while ( (sp->tx_out != sp->tx_in) && (sp->host_inactive < sp->timeout) ) {
    if (flags & O_NONBLOCK) {
      return -EWOULDBLOCK; 
   80cd0:	00bffd44 	movi	r2,-11
   80cd4:	f800283a 	ret
    }
  }

  return 0;
   80cd8:	0005883a 	mov	r2,zero
}
   80cdc:	f800283a 	ret

00080ce0 <altera_avalon_jtag_uart_ioctl>:
altera_avalon_jtag_uart_ioctl(altera_avalon_jtag_uart_state* sp, int req,
  void* arg)
{
  int rc = -ENOTTY;

  switch (req)
   80ce0:	009a8044 	movi	r2,27137
   80ce4:	28800326 	beq	r5,r2,80cf4 <altera_avalon_jtag_uart_ioctl+0x14>
   80ce8:	009a8084 	movi	r2,27138
   80cec:	28800f26 	beq	r5,r2,80d2c <altera_avalon_jtag_uart_ioctl+0x4c>
   80cf0:	00001706 	br	80d50 <altera_avalon_jtag_uart_ioctl+0x70>
  {
  case TIOCSTIMEOUT:
    /* Set the time to wait until assuming host is not connected */
    if (sp->timeout != INT_MAX)
   80cf4:	20c00117 	ldw	r3,4(r4)
   80cf8:	00a00034 	movhi	r2,32768
   80cfc:	10bfffc4 	addi	r2,r2,-1
   80d00:	18801526 	beq	r3,r2,80d58 <altera_avalon_jtag_uart_ioctl+0x78>
    {
      int timeout = *((int *)arg);
      sp->timeout = (timeout >= 2 && timeout < INT_MAX) ? timeout : INT_MAX - 1;
   80d04:	30800017 	ldw	r2,0(r6)
   80d08:	10ffff84 	addi	r3,r2,-2
   80d0c:	01600034 	movhi	r5,32768
   80d10:	297fff04 	addi	r5,r5,-4
   80d14:	28c0022e 	bgeu	r5,r3,80d20 <altera_avalon_jtag_uart_ioctl+0x40>
   80d18:	00a00034 	movhi	r2,32768
   80d1c:	10bfff84 	addi	r2,r2,-2
   80d20:	20800115 	stw	r2,4(r4)
      rc = 0;
   80d24:	0005883a 	mov	r2,zero
   80d28:	f800283a 	ret
    }
    break;

  case TIOCGCONNECTED:
    /* Find out whether host is connected */
    if (sp->timeout != INT_MAX)
   80d2c:	20c00117 	ldw	r3,4(r4)
   80d30:	00a00034 	movhi	r2,32768
   80d34:	10bfffc4 	addi	r2,r2,-1
   80d38:	18800926 	beq	r3,r2,80d60 <altera_avalon_jtag_uart_ioctl+0x80>
    {
      *((int *)arg) = (sp->host_inactive < sp->timeout) ? 1 : 0;
   80d3c:	20800917 	ldw	r2,36(r4)
   80d40:	10c5803a 	cmpltu	r2,r2,r3
   80d44:	30800015 	stw	r2,0(r6)
      rc = 0;
   80d48:	0005883a 	mov	r2,zero
   80d4c:	f800283a 	ret

int 
altera_avalon_jtag_uart_ioctl(altera_avalon_jtag_uart_state* sp, int req,
  void* arg)
{
  int rc = -ENOTTY;
   80d50:	00bff9c4 	movi	r2,-25
   80d54:	f800283a 	ret
   80d58:	00bff9c4 	movi	r2,-25
   80d5c:	f800283a 	ret
   80d60:	00bff9c4 	movi	r2,-25
  default:
    break;
  }

  return rc;
}
   80d64:	f800283a 	ret

00080d68 <altera_avalon_jtag_uart_read>:
   * When running in a multi threaded environment, obtain the "read_lock"
   * semaphore. This ensures that reading from the device is thread-safe.
   */
  ALT_SEM_PEND (sp->read_lock, 0);

  while (space > 0)
   80d68:	0180450e 	bge	zero,r6,80e80 <altera_avalon_jtag_uart_read+0x118>
/* ----------------------------------------------------------- */

int 
altera_avalon_jtag_uart_read(altera_avalon_jtag_uart_state* sp, 
  char * buffer, int space, int flags)
{
   80d6c:	defff504 	addi	sp,sp,-44
   80d70:	dfc00a15 	stw	ra,40(sp)
   80d74:	df000915 	stw	fp,36(sp)
   80d78:	ddc00815 	stw	r23,32(sp)
   80d7c:	dd800715 	stw	r22,28(sp)
   80d80:	dd400615 	stw	r21,24(sp)
   80d84:	dd000515 	stw	r20,20(sp)
   80d88:	dcc00415 	stw	r19,16(sp)
   80d8c:	dc800315 	stw	r18,12(sp)
   80d90:	dc400215 	stw	r17,8(sp)
   80d94:	dc000115 	stw	r16,4(sp)
   80d98:	2023883a 	mov	r17,r4
   80d9c:	2839883a 	mov	fp,r5
      out = sp->rx_out;

      if (in >= out)
        n = in - out;
      else
        n = ALTERA_AVALON_JTAG_UART_BUF_LEN - out;
   80da0:	05c20004 	movi	r23,2048
        break; /* No more data available */

      if (n > space)
        n = space;

      memcpy(ptr, sp->rx_buf + out, n);
   80da4:	25800e04 	addi	r22,r4,56
    /* If we read any data then return it */
    if (ptr != buffer)
      break;

    /* If in non-blocking mode then return error */
    if (flags & O_NONBLOCK)
   80da8:	39d0000c 	andi	r7,r7,16384
   80dac:	d9c00015 	stw	r7,0(sp)
/* ----------------------------------------------------------- */

int 
altera_avalon_jtag_uart_read(altera_avalon_jtag_uart_state* sp, 
  char * buffer, int space, int flags)
{
   80db0:	e029883a 	mov	r20,fp
    unsigned int in, out;

    /* Read as much data as possible */
    do
    {
      in  = sp->rx_in;
   80db4:	8cc00a17 	ldw	r19,40(r17)
      out = sp->rx_out;
   80db8:	8c800b17 	ldw	r18,44(r17)

      if (in >= out)
   80dbc:	9c800236 	bltu	r19,r18,80dc8 <altera_avalon_jtag_uart_read+0x60>
        n = in - out;
   80dc0:	9ca1c83a 	sub	r16,r19,r18
   80dc4:	00000106 	br	80dcc <altera_avalon_jtag_uart_read+0x64>
      else
        n = ALTERA_AVALON_JTAG_UART_BUF_LEN - out;
   80dc8:	bca1c83a 	sub	r16,r23,r18

      if (n == 0)
   80dcc:	80000d26 	beq	r16,zero,80e04 <altera_avalon_jtag_uart_read+0x9c>
        break; /* No more data available */

      if (n > space)
   80dd0:	302b883a 	mov	r21,r6
   80dd4:	3400012e 	bgeu	r6,r16,80ddc <altera_avalon_jtag_uart_read+0x74>
   80dd8:	3021883a 	mov	r16,r6
        n = space;

      memcpy(ptr, sp->rx_buf + out, n);
   80ddc:	800d883a 	mov	r6,r16
   80de0:	b48b883a 	add	r5,r22,r18
   80de4:	a009883a 	mov	r4,r20
   80de8:	00821740 	call	82174 <memcpy>
      ptr   += n;
   80dec:	a429883a 	add	r20,r20,r16
      space -= n;
   80df0:	ac0dc83a 	sub	r6,r21,r16

      sp->rx_out = (out + n) % ALTERA_AVALON_JTAG_UART_BUF_LEN;
   80df4:	9421883a 	add	r16,r18,r16
   80df8:	8401ffcc 	andi	r16,r16,2047
   80dfc:	8c000b15 	stw	r16,44(r17)
    }
    while (space > 0);
   80e00:	01bfec16 	blt	zero,r6,80db4 <tx_descriptor+0xfff80d54>

    /* If we read any data then return it */
    if (ptr != buffer)
   80e04:	a700121e 	bne	r20,fp,80e50 <altera_avalon_jtag_uart_read+0xe8>
      break;

    /* If in non-blocking mode then return error */
    if (flags & O_NONBLOCK)
   80e08:	d8800017 	ldw	r2,0(sp)
   80e0c:	10000a1e 	bne	r2,zero,80e38 <altera_avalon_jtag_uart_read+0xd0>
      while (in == sp->rx_in && sp->host_inactive < sp->timeout)
        ;
    }
#else
    /* No OS: Always spin */
    while (in == sp->rx_in && sp->host_inactive < sp->timeout)
   80e10:	88800a17 	ldw	r2,40(r17)
   80e14:	9880031e 	bne	r19,r2,80e24 <altera_avalon_jtag_uart_read+0xbc>
   80e18:	88c00917 	ldw	r3,36(r17)
   80e1c:	88800117 	ldw	r2,4(r17)
   80e20:	18bffb36 	bltu	r3,r2,80e10 <tx_descriptor+0xfff80db0>
      ;
#endif /* __ucosii__ */

    if (in == sp->rx_in)
   80e24:	88800a17 	ldw	r2,40(r17)
   80e28:	98800526 	beq	r19,r2,80e40 <altera_avalon_jtag_uart_read+0xd8>
   * When running in a multi threaded environment, obtain the "read_lock"
   * semaphore. This ensures that reading from the device is thread-safe.
   */
  ALT_SEM_PEND (sp->read_lock, 0);

  while (space > 0)
   80e2c:	01bfe016 	blt	zero,r6,80db0 <tx_descriptor+0xfff80d50>
  if (ptr != buffer)
    return ptr - buffer;
  else if (flags & O_NONBLOCK)
    return -EWOULDBLOCK;
  else
    return -EIO;
   80e30:	00bffec4 	movi	r2,-5
   80e34:	00001606 	br	80e90 <altera_avalon_jtag_uart_read+0x128>
  }

  if (ptr != buffer)
    return ptr - buffer;
  else if (flags & O_NONBLOCK)
    return -EWOULDBLOCK;
   80e38:	00bffd44 	movi	r2,-11
   80e3c:	00001406 	br	80e90 <altera_avalon_jtag_uart_read+0x128>
  else
    return -EIO;
   80e40:	00bffec4 	movi	r2,-5
   80e44:	00001206 	br	80e90 <altera_avalon_jtag_uart_read+0x128>
  }

  if (ptr != buffer)
    return ptr - buffer;
  else if (flags & O_NONBLOCK)
    return -EWOULDBLOCK;
   80e48:	00bffd44 	movi	r2,-11
   80e4c:	f800283a 	ret
static ALT_INLINE alt_irq_context ALT_ALWAYS_INLINE 
       alt_irq_disable_all (void)
{
  alt_irq_context context;

  NIOS2_READ_STATUS (context);
   80e50:	0007303a 	rdctl	r3,status

  NIOS2_WRITE_STATUS (context & ~NIOS2_STATUS_PIE_MSK);
   80e54:	00bfff84 	movi	r2,-2
   80e58:	1884703a 	and	r2,r3,r2
   80e5c:	1001703a 	wrctl	status,r2

  if (ptr != buffer)
  {
    /* If we read any data then there is space in the buffer so enable interrupts */
    context = alt_irq_disable_all();
    sp->irq_enable |= ALTERA_AVALON_JTAG_UART_CONTROL_RE_MSK;
   80e60:	88800817 	ldw	r2,32(r17)
   80e64:	10800054 	ori	r2,r2,1
   80e68:	88800815 	stw	r2,32(r17)
    IOWR_ALTERA_AVALON_JTAG_UART_CONTROL(sp->base, sp->irq_enable);
   80e6c:	89000017 	ldw	r4,0(r17)
   80e70:	20800135 	stwio	r2,4(r4)
  status &= ~NIOS2_STATUS_PIE_MSK;
  status |= (context & NIOS2_STATUS_PIE_MSK);
  
  NIOS2_WRITE_STATUS (status);
#else
  NIOS2_WRITE_STATUS (context);
   80e74:	1801703a 	wrctl	status,r3
    alt_irq_enable_all(context);
  }

  if (ptr != buffer)
    return ptr - buffer;
   80e78:	a705c83a 	sub	r2,r20,fp
   80e7c:	00000406 	br	80e90 <altera_avalon_jtag_uart_read+0x128>
  else if (flags & O_NONBLOCK)
   80e80:	39d0000c 	andi	r7,r7,16384
   80e84:	383ff01e 	bne	r7,zero,80e48 <tx_descriptor+0xfff80de8>
    return -EWOULDBLOCK;
  else
    return -EIO;
   80e88:	00bffec4 	movi	r2,-5
   80e8c:	f800283a 	ret
}
   80e90:	dfc00a17 	ldw	ra,40(sp)
   80e94:	df000917 	ldw	fp,36(sp)
   80e98:	ddc00817 	ldw	r23,32(sp)
   80e9c:	dd800717 	ldw	r22,28(sp)
   80ea0:	dd400617 	ldw	r21,24(sp)
   80ea4:	dd000517 	ldw	r20,20(sp)
   80ea8:	dcc00417 	ldw	r19,16(sp)
   80eac:	dc800317 	ldw	r18,12(sp)
   80eb0:	dc400217 	ldw	r17,8(sp)
   80eb4:	dc000117 	ldw	r16,4(sp)
   80eb8:	dec00b04 	addi	sp,sp,44
   80ebc:	f800283a 	ret

00080ec0 <altera_avalon_jtag_uart_write>:
/* ----------------------------------------------------------- */

int 
altera_avalon_jtag_uart_write(altera_avalon_jtag_uart_state* sp, 
  const char * ptr, int count, int flags)
{
   80ec0:	defff504 	addi	sp,sp,-44
   80ec4:	dfc00a15 	stw	ra,40(sp)
   80ec8:	df000915 	stw	fp,36(sp)
   80ecc:	ddc00815 	stw	r23,32(sp)
   80ed0:	dd800715 	stw	r22,28(sp)
   80ed4:	dd400615 	stw	r21,24(sp)
   80ed8:	dd000515 	stw	r20,20(sp)
   80edc:	dcc00415 	stw	r19,16(sp)
   80ee0:	dc800315 	stw	r18,12(sp)
   80ee4:	dc400215 	stw	r17,8(sp)
   80ee8:	dc000115 	stw	r16,4(sp)
   80eec:	2021883a 	mov	r16,r4
   80ef0:	282f883a 	mov	r23,r5
   80ef4:	d9c00015 	stw	r7,0(sp)
   80ef8:	2827883a 	mov	r19,r5
{
  alt_irq_context context;

  NIOS2_READ_STATUS (context);

  NIOS2_WRITE_STATUS (context & ~NIOS2_STATUS_PIE_MSK);
   80efc:	05bfff84 	movi	r22,-2
     * some has been sent 
     */
    /* consider: test whether there is anything there while doing this and delay for at most 2s. */
    if (count > 0)
    {
      if (flags & O_NONBLOCK)
   80f00:	3d50000c 	andi	r21,r7,16384
        break;

      if (n > count)
        n = count;

      memcpy(sp->tx_buf + in, ptr, n);
   80f04:	27020e04 	addi	fp,r4,2104
   80f08:	00001906 	br	80f70 <altera_avalon_jtag_uart_write+0xb0>
  {
    /* Copy as much as we can into the transmit buffer */
    while (count > 0)
    {
      /* We need a stable value of the out pointer to calculate the space available */
      in  = sp->tx_in;
   80f0c:	84800c17 	ldw	r18,48(r16)
      out = sp->tx_out;
   80f10:	81000d17 	ldw	r4,52(r16)

      if (in < out)
   80f14:	9100032e 	bgeu	r18,r4,80f24 <altera_avalon_jtag_uart_write+0x64>
        n = out - 1 - in;
   80f18:	247fffc4 	addi	r17,r4,-1
   80f1c:	8ca3c83a 	sub	r17,r17,r18
   80f20:	00000606 	br	80f3c <altera_avalon_jtag_uart_write+0x7c>
      else if (out > 0)
   80f24:	20000326 	beq	r4,zero,80f34 <altera_avalon_jtag_uart_write+0x74>
        n = ALTERA_AVALON_JTAG_UART_BUF_LEN - in;
   80f28:	00820004 	movi	r2,2048
   80f2c:	14a3c83a 	sub	r17,r2,r18
   80f30:	00000206 	br	80f3c <altera_avalon_jtag_uart_write+0x7c>
      else
        n = ALTERA_AVALON_JTAG_UART_BUF_LEN - 1 - in;
   80f34:	00c1ffc4 	movi	r3,2047
   80f38:	1ca3c83a 	sub	r17,r3,r18

      if (n == 0)
   80f3c:	88002b26 	beq	r17,zero,80fec <altera_avalon_jtag_uart_write+0x12c>
        break;

      if (n > count)
   80f40:	3029883a 	mov	r20,r6
   80f44:	3440012e 	bgeu	r6,r17,80f4c <altera_avalon_jtag_uart_write+0x8c>
   80f48:	3023883a 	mov	r17,r6
        n = count;

      memcpy(sp->tx_buf + in, ptr, n);
   80f4c:	880d883a 	mov	r6,r17
   80f50:	980b883a 	mov	r5,r19
   80f54:	e489883a 	add	r4,fp,r18
   80f58:	00821740 	call	82174 <memcpy>
      ptr   += n;
   80f5c:	9c67883a 	add	r19,r19,r17
      count -= n;
   80f60:	a44dc83a 	sub	r6,r20,r17

      sp->tx_in = (in + n) % ALTERA_AVALON_JTAG_UART_BUF_LEN;
   80f64:	9463883a 	add	r17,r18,r17
   80f68:	8c41ffcc 	andi	r17,r17,2047
   80f6c:	84400c15 	stw	r17,48(r16)
  ALT_SEM_PEND (sp->write_lock, 0);

  do
  {
    /* Copy as much as we can into the transmit buffer */
    while (count > 0)
   80f70:	01bfe616 	blt	zero,r6,80f0c <tx_descriptor+0xfff80eac>
   80f74:	00001106 	br	80fbc <altera_avalon_jtag_uart_write+0xfc>
      /*
       * No OS present: Always wait for data to be removed from buffer.  Once
       * the interrupt routine has removed some data then we will be able to
       * insert some more.
       */
      while (out == sp->tx_out && sp->host_inactive < sp->timeout)
   80f78:	80800d17 	ldw	r2,52(r16)
   80f7c:	2080031e 	bne	r4,r2,80f8c <altera_avalon_jtag_uart_write+0xcc>
   80f80:	80c00917 	ldw	r3,36(r16)
   80f84:	80800117 	ldw	r2,4(r16)
   80f88:	18bffb36 	bltu	r3,r2,80f78 <tx_descriptor+0xfff80f18>
        ;
#endif /* __ucosii__ */

      if  (sp->host_inactive)
   80f8c:	80800917 	ldw	r2,36(r16)
   80f90:	103ff726 	beq	r2,zero,80f70 <tx_descriptor+0xfff80f10>
   80f94:	00002006 	br	81018 <altera_avalon_jtag_uart_write+0x158>
   * semaphore so that other threads can access the buffer.
   */
  ALT_SEM_POST (sp->write_lock);

  if (ptr != start)
    return ptr - start;
   80f98:	9dc5c83a 	sub	r2,r19,r23
   80f9c:	00002306 	br	8102c <altera_avalon_jtag_uart_write+0x16c>
  else if (flags & O_NONBLOCK)
   80fa0:	d8c00017 	ldw	r3,0(sp)
   80fa4:	1890000c 	andi	r2,r3,16384
   80fa8:	1000021e 	bne	r2,zero,80fb4 <altera_avalon_jtag_uart_write+0xf4>
    sp->tx_out = sp->tx_in = 0;
    return ptr - start + count;
  }
#endif
  else
    return -EIO; /* Host not connected */
   80fac:	00bffec4 	movi	r2,-5
   80fb0:	00001e06 	br	8102c <altera_avalon_jtag_uart_write+0x16c>
  ALT_SEM_POST (sp->write_lock);

  if (ptr != start)
    return ptr - start;
  else if (flags & O_NONBLOCK)
    return -EWOULDBLOCK;
   80fb4:	00bffd44 	movi	r2,-11
   80fb8:	00001c06 	br	8102c <altera_avalon_jtag_uart_write+0x16c>
static ALT_INLINE alt_irq_context ALT_ALWAYS_INLINE 
       alt_irq_disable_all (void)
{
  alt_irq_context context;

  NIOS2_READ_STATUS (context);
   80fbc:	0007303a 	rdctl	r3,status

  NIOS2_WRITE_STATUS (context & ~NIOS2_STATUS_PIE_MSK);
   80fc0:	00bfff84 	movi	r2,-2
   80fc4:	1884703a 	and	r2,r3,r2
   80fc8:	1001703a 	wrctl	status,r2
     *
     * For now kick the interrupt routine every time to make it transmit 
     * the data 
     */
    context = alt_irq_disable_all();
    sp->irq_enable |= ALTERA_AVALON_JTAG_UART_CONTROL_WE_MSK;
   80fcc:	80800817 	ldw	r2,32(r16)
   80fd0:	10800094 	ori	r2,r2,2
   80fd4:	80800815 	stw	r2,32(r16)
    IOWR_ALTERA_AVALON_JTAG_UART_CONTROL(sp->base, sp->irq_enable);
   80fd8:	81000017 	ldw	r4,0(r16)
   80fdc:	20800135 	stwio	r2,4(r4)
  status &= ~NIOS2_STATUS_PIE_MSK;
  status |= (context & NIOS2_STATUS_PIE_MSK);
  
  NIOS2_WRITE_STATUS (status);
#else
  NIOS2_WRITE_STATUS (context);
   80fe0:	1801703a 	wrctl	status,r3
   * Now that access to the circular buffer is complete, release the write
   * semaphore so that other threads can access the buffer.
   */
  ALT_SEM_POST (sp->write_lock);

  if (ptr != start)
   80fe4:	9dffec1e 	bne	r19,r23,80f98 <tx_descriptor+0xfff80f38>
   80fe8:	003fed06 	br	80fa0 <tx_descriptor+0xfff80f40>
static ALT_INLINE alt_irq_context ALT_ALWAYS_INLINE 
       alt_irq_disable_all (void)
{
  alt_irq_context context;

  NIOS2_READ_STATUS (context);
   80fec:	0007303a 	rdctl	r3,status

  NIOS2_WRITE_STATUS (context & ~NIOS2_STATUS_PIE_MSK);
   80ff0:	1d84703a 	and	r2,r3,r22
   80ff4:	1001703a 	wrctl	status,r2
     *
     * For now kick the interrupt routine every time to make it transmit 
     * the data 
     */
    context = alt_irq_disable_all();
    sp->irq_enable |= ALTERA_AVALON_JTAG_UART_CONTROL_WE_MSK;
   80ff8:	80800817 	ldw	r2,32(r16)
   80ffc:	10800094 	ori	r2,r2,2
   81000:	80800815 	stw	r2,32(r16)
    IOWR_ALTERA_AVALON_JTAG_UART_CONTROL(sp->base, sp->irq_enable);
   81004:	81400017 	ldw	r5,0(r16)
   81008:	28800135 	stwio	r2,4(r5)
  status &= ~NIOS2_STATUS_PIE_MSK;
  status |= (context & NIOS2_STATUS_PIE_MSK);
  
  NIOS2_WRITE_STATUS (status);
#else
  NIOS2_WRITE_STATUS (context);
   8100c:	1801703a 	wrctl	status,r3
     * some has been sent 
     */
    /* consider: test whether there is anything there while doing this and delay for at most 2s. */
    if (count > 0)
    {
      if (flags & O_NONBLOCK)
   81010:	a83fd926 	beq	r21,zero,80f78 <tx_descriptor+0xfff80f18>
   81014:	00000306 	br	81024 <altera_avalon_jtag_uart_write+0x164>
   * Now that access to the circular buffer is complete, release the write
   * semaphore so that other threads can access the buffer.
   */
  ALT_SEM_POST (sp->write_lock);

  if (ptr != start)
   81018:	9dffdf1e 	bne	r19,r23,80f98 <tx_descriptor+0xfff80f38>
    sp->tx_out = sp->tx_in = 0;
    return ptr - start + count;
  }
#endif
  else
    return -EIO; /* Host not connected */
   8101c:	00bffec4 	movi	r2,-5
   81020:	00000206 	br	8102c <altera_avalon_jtag_uart_write+0x16c>
   * Now that access to the circular buffer is complete, release the write
   * semaphore so that other threads can access the buffer.
   */
  ALT_SEM_POST (sp->write_lock);

  if (ptr != start)
   81024:	9dffdc1e 	bne	r19,r23,80f98 <tx_descriptor+0xfff80f38>
    return ptr - start;
  else if (flags & O_NONBLOCK)
    return -EWOULDBLOCK;
   81028:	00bffd44 	movi	r2,-11
    return ptr - start + count;
  }
#endif
  else
    return -EIO; /* Host not connected */
}
   8102c:	dfc00a17 	ldw	ra,40(sp)
   81030:	df000917 	ldw	fp,36(sp)
   81034:	ddc00817 	ldw	r23,32(sp)
   81038:	dd800717 	ldw	r22,28(sp)
   8103c:	dd400617 	ldw	r21,24(sp)
   81040:	dd000517 	ldw	r20,20(sp)
   81044:	dcc00417 	ldw	r19,16(sp)
   81048:	dc800317 	ldw	r18,12(sp)
   8104c:	dc400217 	ldw	r17,8(sp)
   81050:	dc000117 	ldw	r16,4(sp)
   81054:	dec00b04 	addi	sp,sp,44
   81058:	f800283a 	ret

0008105c <alt_avalon_sgdma_irq>:
   * Note: This is explicitly done before calling user interrupt-handling
   * code rather than after; if user ISR code initiates another SGDMA
   * transfer which completes quickly, reading the control register after
   * the callback routine may result in a lost interrupt.
   */
  IOWR_ALTERA_AVALON_SGDMA_CONTROL(dev->base, 
   8105c:	20800317 	ldw	r2,12(r4)
   81060:	10800404 	addi	r2,r2,16
   81064:	10c00037 	ldwio	r3,0(r2)
   81068:	18e00034 	orhi	r3,r3,32768
   8106c:	10c00035 	stwio	r3,0(r2)
    IORD_ALTERA_AVALON_SGDMA_CONTROL(dev->base) | 0x80000000);
  
  /* Dummy read to ensure IRQ is negated before the ISR returns */
  IORD_ALTERA_AVALON_SGDMA_CONTROL(dev->base);
   81070:	20800317 	ldw	r2,12(r4)
   81074:	10800437 	ldwio	r2,16(r2)
   * Other interrupts are explicitly disabled if callbacks
   * are registered because there is no guarantee that they are 
   * preemption-safe. This allows the driver to support 
   * interrupt preemption.
   */
  if(dev->callback) {
   81078:	20800917 	ldw	r2,36(r4)
   8107c:	10000e26 	beq	r2,zero,810b8 <alt_avalon_sgdma_irq+0x5c>
#ifdef ALT_ENHANCED_INTERRUPT_API_PRESENT
static void alt_avalon_sgdma_irq(void *context)
#else
static void alt_avalon_sgdma_irq(void *context, alt_u32 id)
#endif
{
   81080:	defffe04 	addi	sp,sp,-8
   81084:	dfc00115 	stw	ra,4(sp)
   81088:	dc000015 	stw	r16,0(sp)
static ALT_INLINE alt_irq_context ALT_ALWAYS_INLINE 
       alt_irq_disable_all (void)
{
  alt_irq_context context;

  NIOS2_READ_STATUS (context);
   8108c:	0021303a 	rdctl	r16,status

  NIOS2_WRITE_STATUS (context & ~NIOS2_STATUS_PIE_MSK);
   81090:	00bfff84 	movi	r2,-2
   81094:	8084703a 	and	r2,r16,r2
   81098:	1001703a 	wrctl	status,r2
   * preemption-safe. This allows the driver to support 
   * interrupt preemption.
   */
  if(dev->callback) {
    cpu_sr = alt_irq_disable_all();
    (dev->callback)(dev->callback_context);
   8109c:	20800917 	ldw	r2,36(r4)
   810a0:	21000a17 	ldw	r4,40(r4)
   810a4:	103ee83a 	callr	r2
  status &= ~NIOS2_STATUS_PIE_MSK;
  status |= (context & NIOS2_STATUS_PIE_MSK);
  
  NIOS2_WRITE_STATUS (status);
#else
  NIOS2_WRITE_STATUS (context);
   810a8:	8001703a 	wrctl	status,r16
    alt_irq_enable_all(cpu_sr);
  }
}
   810ac:	dfc00117 	ldw	ra,4(sp)
   810b0:	dc000017 	ldw	r16,0(sp)
   810b4:	dec00204 	addi	sp,sp,8
   810b8:	f800283a 	ret

000810bc <alt_avalon_sgdma_do_async_transfer>:
  alt_sgdma_descriptor *desc)
{
  alt_u32 control;

  /* Return with error immediately if controller is busy */
  if( (IORD_ALTERA_AVALON_SGDMA_STATUS(dev->base) &
   810bc:	20800317 	ldw	r2,12(r4)
   810c0:	10800037 	ldwio	r2,0(r2)
   810c4:	1080040c 	andi	r2,r2,16
   810c8:	10001d1e 	bne	r2,zero,81140 <alt_avalon_sgdma_do_async_transfer+0x84>
           ALTERA_AVALON_SGDMA_STATUS_BUSY_MSK) ) {
    return -EBUSY;
  }

  /* Clear Run */
  IOWR_ALTERA_AVALON_SGDMA_CONTROL(dev->base,
   810cc:	20c00317 	ldw	r3,12(r4)
   810d0:	18c00404 	addi	r3,r3,16
   810d4:	19c00037 	ldwio	r7,0(r3)
   810d8:	01bff7c4 	movi	r6,-33
   810dc:	398c703a 	and	r6,r7,r6
   810e0:	19800035 	stwio	r6,0(r3)

  /*
   * Clear any (previous) status register information
   * that might occlude our error checking later.
   */
  IOWR_ALTERA_AVALON_SGDMA_STATUS(dev->base, 0xFF);
   810e4:	20c00317 	ldw	r3,12(r4)
   810e8:	01803fc4 	movi	r6,255
   810ec:	19800035 	stwio	r6,0(r3)

  /* Point the controller at the descriptor */
  IOWR_ALTERA_AVALON_SGDMA_NEXT_DESC_POINTER(dev->base, (alt_u32) desc);
   810f0:	20c00317 	ldw	r3,12(r4)
   810f4:	19400835 	stwio	r5,32(r3)
   *  - Stop on an error with any particular descriptor
   *  - Include any control register bits registered with along with
   *    the callback routine (effectively, interrupts are controlled
   *    via the control bits set during callback-register time).
   */
  if(dev->callback) {
   810f8:	20c00917 	ldw	r3,36(r4)
   810fc:	18000826 	beq	r3,zero,81120 <alt_avalon_sgdma_do_async_transfer+0x64>
    control = IORD_ALTERA_AVALON_SGDMA_CONTROL(dev->base);
   81100:	20c00317 	ldw	r3,12(r4)
   81104:	18c00404 	addi	r3,r3,16
   81108:	19400037 	ldwio	r5,0(r3)

    control |= (dev->chain_control                          |
                ALTERA_AVALON_SGDMA_CONTROL_RUN_MSK         |
                ALTERA_AVALON_SGDMA_CONTROL_STOP_DMA_ER_MSK  );

    IOWR_ALTERA_AVALON_SGDMA_CONTROL(dev->base, control);
   8110c:	21000b17 	ldw	r4,44(r4)
   81110:	21001814 	ori	r4,r4,96
   81114:	2148b03a 	or	r4,r4,r5
   81118:	19000035 	stwio	r4,0(r3)
   8111c:	f800283a 	ret
   *   - Run
   *   - Stop on an error with any particular descriptor
   *   - Disable interrupt generation
   */
  else {
    control = IORD_ALTERA_AVALON_SGDMA_CONTROL(dev->base);
   81120:	21000317 	ldw	r4,12(r4)
   81124:	21000404 	addi	r4,r4,16
   81128:	21400037 	ldwio	r5,0(r4)
   8112c:	00fffbc4 	movi	r3,-17
   81130:	28c6703a 	and	r3,r5,r3

    control |= (ALTERA_AVALON_SGDMA_CONTROL_RUN_MSK         |
                ALTERA_AVALON_SGDMA_CONTROL_STOP_DMA_ER_MSK );
    control &= ~ALTERA_AVALON_SGDMA_CONTROL_IE_GLOBAL_MSK;

    IOWR_ALTERA_AVALON_SGDMA_CONTROL(dev->base, control);
   81134:	18c01814 	ori	r3,r3,96
   81138:	20c00035 	stwio	r3,0(r4)
   8113c:	f800283a 	ret
  alt_u32 control;

  /* Return with error immediately if controller is busy */
  if( (IORD_ALTERA_AVALON_SGDMA_STATUS(dev->base) &
           ALTERA_AVALON_SGDMA_STATUS_BUSY_MSK) ) {
    return -EBUSY;
   81140:	00bffc04 	movi	r2,-16
  /*
   * Error detection/handling should be performed at the application
   * or callback level as appropriate.
   */
  return 0;
}
   81144:	f800283a 	ret

00081148 <alt_avalon_sgdma_do_sync_transfer>:
  alt_sgdma_descriptor *desc)
{
  alt_u8 status;

  /* Wait for any pending transfers to complete */
  while ( (IORD_ALTERA_AVALON_SGDMA_STATUS(dev->base) &
   81148:	20800317 	ldw	r2,12(r4)
   8114c:	10800037 	ldwio	r2,0(r2)
   81150:	1080040c 	andi	r2,r2,16
   81154:	103ffc1e 	bne	r2,zero,81148 <tx_descriptor+0xfff810e8>
           ALTERA_AVALON_SGDMA_STATUS_BUSY_MSK) );


  /* Clear Run */
  IOWR_ALTERA_AVALON_SGDMA_CONTROL(dev->base,
   81158:	20800317 	ldw	r2,12(r4)
   8115c:	10800404 	addi	r2,r2,16
   81160:	11800037 	ldwio	r6,0(r2)
   81164:	00fff7c4 	movi	r3,-33
   81168:	30c6703a 	and	r3,r6,r3
   8116c:	10c00035 	stwio	r3,0(r2)

  /*
   * Clear any (previous) status register information
   * that might occlude our error checking later.
   */
  IOWR_ALTERA_AVALON_SGDMA_STATUS(dev->base, 0xFF);
   81170:	20800317 	ldw	r2,12(r4)
   81174:	00c03fc4 	movi	r3,255
   81178:	10c00035 	stwio	r3,0(r2)

  /* Point the controller at the descriptor */
  IOWR_ALTERA_AVALON_SGDMA_NEXT_DESC_POINTER(dev->base, (alt_u32) desc);
   8117c:	20800317 	ldw	r2,12(r4)
   81180:	11400835 	stwio	r5,32(r2)
   * Set up SGDMA controller to:
   * - Disable interrupt generation
   * - Run once a valid descriptor is written to controller
   * - Stop on an error with any particular descriptor
   */
  IOWR_ALTERA_AVALON_SGDMA_CONTROL(dev->base,
   81184:	20800317 	ldw	r2,12(r4)
   81188:	10800404 	addi	r2,r2,16
   8118c:	10c00037 	ldwio	r3,0(r2)
   81190:	18c01814 	ori	r3,r3,96
   81194:	10c00035 	stwio	r3,0(r2)
    (ALTERA_AVALON_SGDMA_CONTROL_RUN_MSK |
     ALTERA_AVALON_SGDMA_CONTROL_STOP_DMA_ER_MSK | 
     IORD_ALTERA_AVALON_SGDMA_CONTROL(dev->base)) );

  /* Wait for the descriptor (chain) to complete */
  while ( (IORD_ALTERA_AVALON_SGDMA_STATUS(dev->base) &
   81198:	20800317 	ldw	r2,12(r4)
   8119c:	10800037 	ldwio	r2,0(r2)
   811a0:	1080040c 	andi	r2,r2,16
   811a4:	103ffc1e 	bne	r2,zero,81198 <tx_descriptor+0xfff81138>
           ALTERA_AVALON_SGDMA_STATUS_BUSY_MSK) );

  /* Clear Run */
  IOWR_ALTERA_AVALON_SGDMA_CONTROL(dev->base, 
   811a8:	20800317 	ldw	r2,12(r4)
   811ac:	10800404 	addi	r2,r2,16
   811b0:	11400037 	ldwio	r5,0(r2)
   811b4:	00fff7c4 	movi	r3,-33
   811b8:	28c6703a 	and	r3,r5,r3
   811bc:	10c00035 	stwio	r3,0(r2)
    (IORD_ALTERA_AVALON_SGDMA_CONTROL(dev->base) &
     ~ALTERA_AVALON_SGDMA_CONTROL_RUN_MSK) );

  /* Get & clear status register contents */
  status = IORD_ALTERA_AVALON_SGDMA_STATUS(dev->base);
   811c0:	20c00317 	ldw	r3,12(r4)
   811c4:	18800037 	ldwio	r2,0(r3)
  IOWR_ALTERA_AVALON_SGDMA_STATUS(dev->base, 0xFF);
   811c8:	01003fc4 	movi	r4,255
   811cc:	19000035 	stwio	r4,0(r3)

  return status;
}
   811d0:	f800283a 	ret

000811d4 <alt_avalon_sgdma_register_callback>:
  alt_sgdma_dev *dev,
  alt_avalon_sgdma_callback callback,
  alt_u32 chain_control,
  void *context)
{
  dev->callback         = callback;
   811d4:	21400915 	stw	r5,36(r4)
  dev->callback_context = context;
   811d8:	21c00a15 	stw	r7,40(r4)
  dev->chain_control    = chain_control;
   811dc:	21800b15 	stw	r6,44(r4)
   811e0:	f800283a 	ret

000811e4 <alt_avalon_sgdma_start>:
 */
void alt_avalon_sgdma_start(alt_sgdma_dev *dev)
{
  alt_u32 control;

  control = IORD_ALTERA_AVALON_SGDMA_CONTROL(dev->base);
   811e4:	20800317 	ldw	r2,12(r4)
   811e8:	10800404 	addi	r2,r2,16
   811ec:	10c00037 	ldwio	r3,0(r2)
  control |= ALTERA_AVALON_SGDMA_CONTROL_RUN_MSK;
  IOWR_ALTERA_AVALON_SGDMA_CONTROL(dev->base, control);
   811f0:	18c00814 	ori	r3,r3,32
   811f4:	10c00035 	stwio	r3,0(r2)
   811f8:	f800283a 	ret

000811fc <alt_avalon_sgdma_stop>:
 */
void alt_avalon_sgdma_stop(alt_sgdma_dev *dev)
{
  alt_u32 control;

  control = IORD_ALTERA_AVALON_SGDMA_CONTROL(dev->base);
   811fc:	20800317 	ldw	r2,12(r4)
   81200:	10800404 	addi	r2,r2,16
   81204:	11000037 	ldwio	r4,0(r2)
  control &= ~ALTERA_AVALON_SGDMA_CONTROL_RUN_MSK;
  IOWR_ALTERA_AVALON_SGDMA_CONTROL(dev->base, control);
   81208:	00fff7c4 	movi	r3,-33
   8120c:	20c6703a 	and	r3,r4,r3
   81210:	10c00035 	stwio	r3,0(r2)
   81214:	f800283a 	ret

00081218 <alt_avalon_sgdma_check_descriptor_status>:
 *   normally. Or, various error conditions defined in <errno.h>
 */
int alt_avalon_sgdma_check_descriptor_status(alt_sgdma_descriptor *desc)
{
  /* Errors take precedence */
  if( IORD_8DIRECT(&desc->status, 0) &
   81218:	208007a3 	ldbuio	r2,30(r4)
   8121c:	10801fcc 	andi	r2,r2,127
   81220:	1000041e 	bne	r2,zero,81234 <alt_avalon_sgdma_check_descriptor_status+0x1c>
        ALTERA_AVALON_SGDMA_DESCRIPTOR_STATUS_E_MEOP_MSK     |
        ALTERA_AVALON_SGDMA_DESCRIPTOR_STATUS_E_MSOP_MSK ) ) {
    return -EIO;
  }

  if( IORD_8DIRECT(&desc->control, 0) &
   81224:	208007e3 	ldbuio	r2,31(r4)
   81228:	1080200c 	andi	r2,r2,128
   8122c:	1000031e 	bne	r2,zero,8123c <alt_avalon_sgdma_check_descriptor_status+0x24>
   81230:	f800283a 	ret
        ALTERA_AVALON_SGDMA_DESCRIPTOR_STATUS_E_OVERFLOW_MSK |
        ALTERA_AVALON_SGDMA_DESCRIPTOR_STATUS_E_SYNC_MSK     |
        ALTERA_AVALON_SGDMA_DESCRIPTOR_STATUS_E_UEOP_MSK     |
        ALTERA_AVALON_SGDMA_DESCRIPTOR_STATUS_E_MEOP_MSK     |
        ALTERA_AVALON_SGDMA_DESCRIPTOR_STATUS_E_MSOP_MSK ) ) {
    return -EIO;
   81234:	00bffec4 	movi	r2,-5
   81238:	f800283a 	ret
  }

  if( IORD_8DIRECT(&desc->control, 0) &
      ALTERA_AVALON_SGDMA_DESCRIPTOR_CONTROL_OWNED_BY_HW_MSK) {
    return -EINPROGRESS;
   8123c:	00bfe244 	movi	r2,-119
  }

    return 0;
}
   81240:	f800283a 	ret

00081244 <alt_avalon_sgdma_open>:
 * Returns:
 * - Pointer to SGDMA device instance struct, or null if the device
 *   could not be opened.
 */
alt_sgdma_dev* alt_avalon_sgdma_open (const char* name)
{
   81244:	defffe04 	addi	sp,sp,-8
   81248:	dfc00115 	stw	ra,4(sp)
   8124c:	dc000015 	stw	r16,0(sp)
  alt_sgdma_dev* dev;

  dev = (alt_sgdma_dev*) alt_find_dev (name, &alt_sgdma_list);
   81250:	d1600004 	addi	r5,gp,-32768
   81254:	00818300 	call	81830 <alt_find_dev>
   81258:	1021883a 	mov	r16,r2

  if (NULL == dev) {
   8125c:	1000071e 	bne	r2,zero,8127c <alt_avalon_sgdma_open+0x38>

extern int errno;

static ALT_INLINE int* alt_get_errno(void)
{
  return ((alt_errno) ? alt_errno() : &errno);
   81260:	d0a00717 	ldw	r2,-32740(gp)
   81264:	10000226 	beq	r2,zero,81270 <alt_avalon_sgdma_open+0x2c>
   81268:	103ee83a 	callr	r2
   8126c:	00000106 	br	81274 <alt_avalon_sgdma_open+0x30>
   81270:	d0a7cf04 	addi	r2,gp,-24772
    ALT_ERRNO = ENODEV;
   81274:	00c004c4 	movi	r3,19
   81278:	10c00015 	stw	r3,0(r2)
  }

  return dev;
}
   8127c:	8005883a 	mov	r2,r16
   81280:	dfc00117 	ldw	ra,4(sp)
   81284:	dc000017 	ldw	r16,0(sp)
   81288:	dec00204 	addi	sp,sp,8
   8128c:	f800283a 	ret

00081290 <alt_avalon_sgdma_enable_desc_poll>:
 */
void alt_avalon_sgdma_enable_desc_poll(alt_sgdma_dev *dev, alt_u32 frequency)
{
  alt_u32 control;

  control = IORD_ALTERA_AVALON_SGDMA_CONTROL(dev->base);
   81290:	20c00317 	ldw	r3,12(r4)
   81294:	18c00404 	addi	r3,r3,16
   81298:	19000037 	ldwio	r4,0(r3)
  /* Clear descriptor polling frequency */
  control &= ~ALTERA_AVALON_SGDMA_CONTROL_DESC_POLL_FREQ_MSK;
   8129c:	00a00434 	movhi	r2,32784
   812a0:	10bfffc4 	addi	r2,r2,-1
   812a4:	2084703a 	and	r2,r4,r2
  
  control |= ALTERA_AVALON_SGDMA_CONTROL_DESC_POLL_EN_MSK | 
            ((frequency << ALTERA_AVALON_SGDMA_CONTROL_DESC_POLL_FREQ_OFST) & 
            ALTERA_AVALON_SGDMA_CONTROL_DESC_POLL_FREQ_MSK);
  IOWR_ALTERA_AVALON_SGDMA_CONTROL(dev->base, control);
   812a8:	280a953a 	slli	r5,r5,20
   812ac:	295ffc2c 	andhi	r5,r5,32752
   812b0:	29400134 	orhi	r5,r5,4
   812b4:	288ab03a 	or	r5,r5,r2
   812b8:	19400035 	stwio	r5,0(r3)
   812bc:	f800283a 	ret

000812c0 <alt_avalon_sgdma_disable_desc_poll>:
 */
void alt_avalon_sgdma_disable_desc_poll(alt_sgdma_dev *dev)
{
  alt_u32 control;

  control = IORD_ALTERA_AVALON_SGDMA_CONTROL(dev->base);
   812c0:	20800317 	ldw	r2,12(r4)
   812c4:	10800404 	addi	r2,r2,16
   812c8:	11000037 	ldwio	r4,0(r2)
  control &= ~ALTERA_AVALON_SGDMA_CONTROL_DESC_POLL_EN_MSK;

  IOWR_ALTERA_AVALON_SGDMA_CONTROL(dev->base, control);
   812cc:	00ffff34 	movhi	r3,65532
   812d0:	18ffffc4 	addi	r3,r3,-1
   812d4:	20c6703a 	and	r3,r4,r3
   812d8:	10c00035 	stwio	r3,0(r2)
   812dc:	f800283a 	ret

000812e0 <alt_avalon_sgdma_construct_descriptor_burst>:
  int                   read_fixed,
  int                   write_fixed_or_sop,
  int                   read_burst,
  int                   write_burst,
  alt_u8                atlantic_channel)
{
   812e0:	deffff04 	addi	sp,sp,-4
   812e4:	dfc00015 	stw	ra,0(sp)
   812e8:	da000717 	ldw	r8,28(sp)
   * The SGDMA controller from continuing to process the chain. This is
   * done as a single IO write to bypass cache, without flushing
   * the entire descriptor, since only the 8-bit descriptor status must
   * be flushed.
   */
  IOWR_8DIRECT(&next->control, 0,
   812ec:	288007c3 	ldbu	r2,31(r5)
   812f0:	10801fcc 	andi	r2,r2,127
   812f4:	288007e5 	stbio	r2,31(r5)
    (next->control & ~ALTERA_AVALON_SGDMA_DESCRIPTOR_CONTROL_OWNED_BY_HW_MSK));

  desc->read_addr                = read_addr;
   812f8:	21800005 	stb	r6,0(r4)
   812fc:	3004d23a 	srli	r2,r6,8
   81300:	20800045 	stb	r2,1(r4)
   81304:	3004d43a 	srli	r2,r6,16
   81308:	20800085 	stb	r2,2(r4)
   8130c:	300cd63a 	srli	r6,r6,24
   81310:	218000c5 	stb	r6,3(r4)
  desc->write_addr               = write_addr;
   81314:	21c00205 	stb	r7,8(r4)
   81318:	3804d23a 	srli	r2,r7,8
   8131c:	20800245 	stb	r2,9(r4)
   81320:	3804d43a 	srli	r2,r7,16
   81324:	20800285 	stb	r2,10(r4)
   81328:	380ed63a 	srli	r7,r7,24
   8132c:	21c002c5 	stb	r7,11(r4)
  desc->next                     = (alt_u32 *) next;
   81330:	21400405 	stb	r5,16(r4)
   81334:	2804d23a 	srli	r2,r5,8
   81338:	20800445 	stb	r2,17(r4)
   8133c:	2804d43a 	srli	r2,r5,16
   81340:	20800485 	stb	r2,18(r4)
   81344:	280ad63a 	srli	r5,r5,24
   81348:	214004c5 	stb	r5,19(r4)
  desc->read_addr_pad            = 0x0;
   8134c:	20000105 	stb	zero,4(r4)
   81350:	20000145 	stb	zero,5(r4)
   81354:	20000185 	stb	zero,6(r4)
   81358:	200001c5 	stb	zero,7(r4)
  desc->write_addr_pad           = 0x0;
   8135c:	20000305 	stb	zero,12(r4)
   81360:	20000345 	stb	zero,13(r4)
   81364:	20000385 	stb	zero,14(r4)
   81368:	200003c5 	stb	zero,15(r4)
  desc->next_pad                 = 0x0;
   8136c:	20000505 	stb	zero,20(r4)
   81370:	20000545 	stb	zero,21(r4)
   81374:	20000585 	stb	zero,22(r4)
   81378:	200005c5 	stb	zero,23(r4)
  desc->bytes_to_transfer        = length_or_eop;
   8137c:	d880010b 	ldhu	r2,4(sp)
   81380:	20800605 	stb	r2,24(r4)
   81384:	1004d23a 	srli	r2,r2,8
   81388:	20800645 	stb	r2,25(r4)
  desc->actual_bytes_transferred = 0;
   8138c:	20000705 	stb	zero,28(r4)
   81390:	20000745 	stb	zero,29(r4)
  desc->status                   = 0x0;
   81394:	20000785 	stb	zero,30(r4)

  /* SGDMA burst not currently supported */
  desc->read_burst               = read_burst;
   81398:	d8800517 	ldw	r2,20(sp)
   8139c:	20800685 	stb	r2,26(r4)
  desc->write_burst              = write_burst;
   813a0:	d8800617 	ldw	r2,24(sp)
   813a4:	208006c5 	stb	r2,27(r4)
   * Note that this step is performed after all other descriptor information
   * has been filled out so that, if the controller already happens to be
   * pointing at this descriptor, it will not run (via the "owned by hardware"
   * bit) until all other descriptor information has been set up.
   */
  desc->control = (
   813a8:	d8800217 	ldw	r2,8(sp)
   813ac:	1004c03a 	cmpne	r2,r2,zero
   813b0:	10bfe004 	addi	r2,r2,-128
   813b4:	d8c00317 	ldw	r3,12(sp)
   813b8:	1806c03a 	cmpne	r3,r3,zero
   813bc:	1806907a 	slli	r3,r3,1
   813c0:	10c4b03a 	or	r2,r2,r3
   813c4:	d8c00417 	ldw	r3,16(sp)
   813c8:	1806c03a 	cmpne	r3,r3,zero
   813cc:	180690ba 	slli	r3,r3,2
   813d0:	10c4b03a 	or	r2,r2,r3
   813d4:	40c03fcc 	andi	r3,r8,255
   813d8:	18000326 	beq	r3,zero,813e8 <alt_avalon_sgdma_construct_descriptor_burst+0x108>
   813dc:	420003cc 	andi	r8,r8,15
   813e0:	401090fa 	slli	r8,r8,3
   813e4:	00000106 	br	813ec <alt_avalon_sgdma_construct_descriptor_burst+0x10c>
   813e8:	0011883a 	mov	r8,zero
   813ec:	1204b03a 	or	r2,r2,r8
   813f0:	208007c5 	stb	r2,31(r4)
  /*
   * Flush completed buffer out of cache. This is done rather than
   * individual cache-bypassed writes to take advantage of any
   * burst-capabilities in the memory we're writing to.
   */
  alt_dcache_flush(desc, sizeof(alt_sgdma_descriptor));
   813f4:	01400804 	movi	r5,32
   813f8:	00817ac0 	call	817ac <alt_dcache_flush>
}
   813fc:	dfc00017 	ldw	ra,0(sp)
   81400:	dec00104 	addi	sp,sp,4
   81404:	f800283a 	ret

00081408 <alt_avalon_sgdma_construct_mem_to_mem_desc_burst>:
  alt_u16               length,
  int                   read_fixed,
  int                   write_fixed,
  int                   read_burst,
  int                   write_burst)
{
   81408:	defff804 	addi	sp,sp,-32
   8140c:	dfc00715 	stw	ra,28(sp)
  alt_avalon_sgdma_construct_descriptor_burst(
   81410:	d8000615 	stw	zero,24(sp)
   81414:	d8800c17 	ldw	r2,48(sp)
   81418:	d8800515 	stw	r2,20(sp)
   8141c:	d8800b17 	ldw	r2,44(sp)
   81420:	d8800415 	stw	r2,16(sp)
   81424:	d8800a17 	ldw	r2,40(sp)
   81428:	d8800315 	stw	r2,12(sp)
   8142c:	d8800917 	ldw	r2,36(sp)
   81430:	d8800215 	stw	r2,8(sp)
   81434:	d8000115 	stw	zero,4(sp)
   81438:	d880080b 	ldhu	r2,32(sp)
   8143c:	d8800015 	stw	r2,0(sp)
   81440:	00812e00 	call	812e0 <alt_avalon_sgdma_construct_descriptor_burst>
    read_fixed,
    write_fixed,
    read_burst,
    write_burst,
    (alt_u8) 0x0);  // Atlantic channel: N/A in mem-to-mem mode
}
   81444:	dfc00717 	ldw	ra,28(sp)
   81448:	dec00804 	addi	sp,sp,32
   8144c:	f800283a 	ret

00081450 <alt_avalon_sgdma_construct_mem_to_mem_desc>:
  alt_u32              *read_addr,
  alt_u32              *write_addr,
  alt_u16               length,
  int                   read_fixed,
  int                   write_fixed)
{
   81450:	defffa04 	addi	sp,sp,-24
   81454:	dfc00515 	stw	ra,20(sp)
  alt_avalon_sgdma_construct_mem_to_mem_desc_burst(desc, next, read_addr, 
   81458:	d8000415 	stw	zero,16(sp)
   8145c:	d8000315 	stw	zero,12(sp)
   81460:	d8800817 	ldw	r2,32(sp)
   81464:	d8800215 	stw	r2,8(sp)
   81468:	d8800717 	ldw	r2,28(sp)
   8146c:	d8800115 	stw	r2,4(sp)
   81470:	d880060b 	ldhu	r2,24(sp)
   81474:	d8800015 	stw	r2,0(sp)
   81478:	00814080 	call	81408 <alt_avalon_sgdma_construct_mem_to_mem_desc_burst>
    write_addr, length, read_fixed, write_fixed, 0, 0);
}
   8147c:	dfc00517 	ldw	ra,20(sp)
   81480:	dec00604 	addi	sp,sp,24
   81484:	f800283a 	ret

00081488 <alt_avalon_sgdma_construct_stream_to_mem_desc_burst>:
  alt_sgdma_descriptor *next,
  alt_u32              *write_addr,
  alt_u16               length_or_eop,
  int                   write_fixed,
  int                   write_burst)
{
   81488:	defff804 	addi	sp,sp,-32
   8148c:	dfc00715 	stw	ra,28(sp)
  alt_avalon_sgdma_construct_descriptor_burst(
   81490:	d8000615 	stw	zero,24(sp)
   81494:	d8800917 	ldw	r2,36(sp)
   81498:	d8800515 	stw	r2,20(sp)
   8149c:	d8000415 	stw	zero,16(sp)
   814a0:	d8800817 	ldw	r2,32(sp)
   814a4:	d8800315 	stw	r2,12(sp)
   814a8:	d8000215 	stw	zero,8(sp)
   814ac:	d8000115 	stw	zero,4(sp)
   814b0:	39ffffcc 	andi	r7,r7,65535
   814b4:	d9c00015 	stw	r7,0(sp)
   814b8:	300f883a 	mov	r7,r6
   814bc:	000d883a 	mov	r6,zero
   814c0:	00812e00 	call	812e0 <alt_avalon_sgdma_construct_descriptor_burst>
    0x0,            // Read fixed: N/A in stream-to-mem mode
    write_fixed,
    0,              // Read_burst : N/A in stream-to-mem mode
    write_burst,
    (alt_u8) 0x0);  // Atlantic channel: N/A in stream-to-mem mode
}
   814c4:	dfc00717 	ldw	ra,28(sp)
   814c8:	dec00804 	addi	sp,sp,32
   814cc:	f800283a 	ret

000814d0 <alt_avalon_sgdma_construct_stream_to_mem_desc>:
  alt_sgdma_descriptor *desc,
  alt_sgdma_descriptor *next,
  alt_u32              *write_addr,
  alt_u16               length_or_eop,
  int                   write_fixed)
{
   814d0:	defffd04 	addi	sp,sp,-12
   814d4:	dfc00215 	stw	ra,8(sp)
  alt_avalon_sgdma_construct_stream_to_mem_desc_burst(desc, next, write_addr, 
   814d8:	d8000115 	stw	zero,4(sp)
   814dc:	d8800317 	ldw	r2,12(sp)
   814e0:	d8800015 	stw	r2,0(sp)
   814e4:	39ffffcc 	andi	r7,r7,65535
   814e8:	00814880 	call	81488 <alt_avalon_sgdma_construct_stream_to_mem_desc_burst>
    length_or_eop, write_fixed, 0);
}
   814ec:	dfc00217 	ldw	ra,8(sp)
   814f0:	dec00304 	addi	sp,sp,12
   814f4:	f800283a 	ret

000814f8 <alt_avalon_sgdma_construct_mem_to_stream_desc_burst>:
  int                   read_fixed,
  int                   generate_sop,
  int                   generate_eop,
  int                   read_burst,
  alt_u8                atlantic_channel)
{
   814f8:	defff804 	addi	sp,sp,-32
   814fc:	dfc00715 	stw	ra,28(sp)
  alt_avalon_sgdma_construct_descriptor_burst(
   81500:	d8800c03 	ldbu	r2,48(sp)
   81504:	d8800615 	stw	r2,24(sp)
   81508:	d8000515 	stw	zero,20(sp)
   8150c:	d8800b17 	ldw	r2,44(sp)
   81510:	d8800415 	stw	r2,16(sp)
   81514:	d8800917 	ldw	r2,36(sp)
   81518:	d8800315 	stw	r2,12(sp)
   8151c:	d8800817 	ldw	r2,32(sp)
   81520:	d8800215 	stw	r2,8(sp)
   81524:	d8800a17 	ldw	r2,40(sp)
   81528:	d8800115 	stw	r2,4(sp)
   8152c:	39ffffcc 	andi	r7,r7,65535
   81530:	d9c00015 	stw	r7,0(sp)
   81534:	000f883a 	mov	r7,zero
   81538:	00812e00 	call	812e0 <alt_avalon_sgdma_construct_descriptor_burst>
    read_fixed,
    generate_sop,
    read_burst,
    0,                 // Write_burst : N/A in mem-to-stream mode
    atlantic_channel);
}
   8153c:	dfc00717 	ldw	ra,28(sp)
   81540:	dec00804 	addi	sp,sp,32
   81544:	f800283a 	ret

00081548 <alt_avalon_sgdma_construct_mem_to_stream_desc>:
  alt_u16               length,
  int                   read_fixed,
  int                   generate_sop,
  int                   generate_eop,
  alt_u8                atlantic_channel)
{
   81548:	defffa04 	addi	sp,sp,-24
   8154c:	dfc00515 	stw	ra,20(sp)
  alt_avalon_sgdma_construct_mem_to_stream_desc_burst(desc, next, read_addr, 
   81550:	d8800903 	ldbu	r2,36(sp)
   81554:	d8800415 	stw	r2,16(sp)
   81558:	d8000315 	stw	zero,12(sp)
   8155c:	d8800817 	ldw	r2,32(sp)
   81560:	d8800215 	stw	r2,8(sp)
   81564:	d8800717 	ldw	r2,28(sp)
   81568:	d8800115 	stw	r2,4(sp)
   8156c:	d8800617 	ldw	r2,24(sp)
   81570:	d8800015 	stw	r2,0(sp)
   81574:	39ffffcc 	andi	r7,r7,65535
   81578:	00814f80 	call	814f8 <alt_avalon_sgdma_construct_mem_to_stream_desc_burst>
    length, read_fixed, generate_sop, generate_eop, 0, atlantic_channel);

}
   8157c:	dfc00517 	ldw	ra,20(sp)
   81580:	dec00604 	addi	sp,sp,24
   81584:	f800283a 	ret

00081588 <alt_avalon_sgdma_construct_descriptor>:
  alt_u16               length_or_eop,
  int                   generate_eop,
  int                   read_fixed,
  int                   write_fixed_or_sop,
  alt_u8                atlantic_channel)
{
   81588:	defff804 	addi	sp,sp,-32
   8158c:	dfc00715 	stw	ra,28(sp)
  alt_avalon_sgdma_construct_descriptor_burst(desc, next, read_addr, 
   81590:	d8800c03 	ldbu	r2,48(sp)
   81594:	d8800615 	stw	r2,24(sp)
   81598:	d8000515 	stw	zero,20(sp)
   8159c:	d8000415 	stw	zero,16(sp)
   815a0:	d8800b17 	ldw	r2,44(sp)
   815a4:	d8800315 	stw	r2,12(sp)
   815a8:	d8800a17 	ldw	r2,40(sp)
   815ac:	d8800215 	stw	r2,8(sp)
   815b0:	d8800917 	ldw	r2,36(sp)
   815b4:	d8800115 	stw	r2,4(sp)
   815b8:	d880080b 	ldhu	r2,32(sp)
   815bc:	d8800015 	stw	r2,0(sp)
   815c0:	00812e00 	call	812e0 <alt_avalon_sgdma_construct_descriptor_burst>
    write_addr, length_or_eop, generate_eop, read_fixed, write_fixed_or_sop, 
    0, 0, atlantic_channel);
}
   815c4:	dfc00717 	ldw	ra,28(sp)
   815c8:	dec00804 	addi	sp,sp,32
   815cc:	f800283a 	ret

000815d0 <alt_avalon_sgdma_init>:
 * This routine disables interrupts, future descriptor processing,
 * registers a specific instance of the device with the HAL,
 * and installs an interrupt handler for the device.
 */
void alt_avalon_sgdma_init (alt_sgdma_dev *dev, alt_u32 ic_id, alt_u32 irq)
{
   815d0:	defffb04 	addi	sp,sp,-20
   815d4:	dfc00415 	stw	ra,16(sp)
   815d8:	dc800315 	stw	r18,12(sp)
   815dc:	dc400215 	stw	r17,8(sp)
   815e0:	dc000115 	stw	r16,4(sp)
   815e4:	2021883a 	mov	r16,r4
   815e8:	2823883a 	mov	r17,r5
   815ec:	3025883a 	mov	r18,r6

  /* 
   * Halt any current transactions (reset the device)
   * SW reset is written twice per SGDMA documentation 
   */
  IOWR_ALTERA_AVALON_SGDMA_CONTROL(dev->base,
   815f0:	20c00317 	ldw	r3,12(r4)
   815f4:	00800074 	movhi	r2,1
   815f8:	18800435 	stwio	r2,16(r3)
    ALTERA_AVALON_SGDMA_CONTROL_SOFTWARERESET_MSK);
  IOWR_ALTERA_AVALON_SGDMA_CONTROL(dev->base,
   815fc:	20c00317 	ldw	r3,12(r4)
   81600:	18800435 	stwio	r2,16(r3)

  /*
   * Disable interrupts, halt future descriptor processing,
   * and clear status register content
   */
  IOWR_ALTERA_AVALON_SGDMA_CONTROL(dev->base, 0x0);
   81604:	20800317 	ldw	r2,12(r4)
   81608:	10000435 	stwio	zero,16(r2)
  IOWR_ALTERA_AVALON_SGDMA_STATUS(dev->base, 0xFF);
   8160c:	20800317 	ldw	r2,12(r4)
   81610:	00c03fc4 	movi	r3,255
   81614:	10c00035 	stwio	r3,0(r2)

  /* Register this instance of the SGDMA controller with HAL */
  alt_dev_llist_insert((alt_dev_llist*) dev, &alt_sgdma_list);
   81618:	d1600004 	addi	r5,gp,-32768
   8161c:	00817bc0 	call	817bc <alt_dev_llist_insert>

  /* Install IRQ handler */
#ifdef ALT_ENHANCED_INTERRUPT_API_PRESENT
  alt_ic_isr_register(ic_id, irq, alt_avalon_sgdma_irq, dev, 0x0);
   81620:	d8000015 	stw	zero,0(sp)
   81624:	800f883a 	mov	r7,r16
   81628:	01800234 	movhi	r6,8
   8162c:	31841704 	addi	r6,r6,4188
   81630:	900b883a 	mov	r5,r18
   81634:	8809883a 	mov	r4,r17
   81638:	00818b00 	call	818b0 <alt_ic_isr_register>
#else
  alt_irq_register(irq, dev, alt_avalon_sgdma_irq);
#endif  
}
   8163c:	dfc00417 	ldw	ra,16(sp)
   81640:	dc800317 	ldw	r18,12(sp)
   81644:	dc400217 	ldw	r17,8(sp)
   81648:	dc000117 	ldw	r16,4(sp)
   8164c:	dec00504 	addi	sp,sp,20
   81650:	f800283a 	ret

00081654 <alt_alarm_start>:
                     void* context)
{
  alt_irq_context irq_context;
  alt_u32 current_nticks = 0;
  
  if (alt_ticks_per_second ())
   81654:	d0a7cd17 	ldw	r2,-24780(gp)
   81658:	10001a26 	beq	r2,zero,816c4 <alt_alarm_start+0x70>
  {
    if (alarm)
   8165c:	20001b26 	beq	r4,zero,816cc <alt_alarm_start+0x78>
    {
      alarm->callback = callback;
   81660:	21800315 	stw	r6,12(r4)
      alarm->context  = context;
   81664:	21c00515 	stw	r7,20(r4)
static ALT_INLINE alt_irq_context ALT_ALWAYS_INLINE 
       alt_irq_disable_all (void)
{
  alt_irq_context context;

  NIOS2_READ_STATUS (context);
   81668:	0007303a 	rdctl	r3,status

  NIOS2_WRITE_STATUS (context & ~NIOS2_STATUS_PIE_MSK);
   8166c:	00bfff84 	movi	r2,-2
   81670:	1884703a 	and	r2,r3,r2
   81674:	1001703a 	wrctl	status,r2
 * alt_nticks() returns the elapsed number of system clock ticks since reset.
 */

static ALT_INLINE alt_u32 ALT_ALWAYS_INLINE alt_nticks (void)
{
  return _alt_nticks;
   81678:	d0a7cc17 	ldw	r2,-24784(gp)
 
      irq_context = alt_irq_disable_all ();
      
      current_nticks = alt_nticks();
      
      alarm->time = nticks + current_nticks + 1; 
   8167c:	11800044 	addi	r6,r2,1
   81680:	314b883a 	add	r5,r6,r5
   81684:	21400215 	stw	r5,8(r4)
      /* 
       * If the desired alarm time causes a roll-over, set the rollover
       * flag. This will prevent the subsequent tick event from causing
       * an alarm too early.
       */
      if(alarm->time < current_nticks)
   81688:	2880032e 	bgeu	r5,r2,81698 <alt_alarm_start+0x44>
      {
        alarm->rollover = 1;
   8168c:	00800044 	movi	r2,1
   81690:	20800405 	stb	r2,16(r4)
   81694:	00000106 	br	8169c <alt_alarm_start+0x48>
      }
      else
      {
        alarm->rollover = 0;
   81698:	20000405 	stb	zero,16(r4)
 */

static ALT_INLINE void ALT_ALWAYS_INLINE alt_llist_insert(alt_llist* list, 
                alt_llist* entry)
{
  entry->previous = list;
   8169c:	d0a00904 	addi	r2,gp,-32732
   816a0:	20800115 	stw	r2,4(r4)
  entry->next     = list->next;
   816a4:	11400017 	ldw	r5,0(r2)
   816a8:	21400015 	stw	r5,0(r4)

  list->next->previous = entry;
   816ac:	11400017 	ldw	r5,0(r2)
   816b0:	29000115 	stw	r4,4(r5)
  list->next           = entry;
   816b4:	11000015 	stw	r4,0(r2)
  status &= ~NIOS2_STATUS_PIE_MSK;
  status |= (context & NIOS2_STATUS_PIE_MSK);
  
  NIOS2_WRITE_STATUS (status);
#else
  NIOS2_WRITE_STATUS (context);
   816b8:	1801703a 	wrctl	status,r3
      }
    
      alt_llist_insert (&alt_alarm_list, &alarm->llist);
      alt_irq_enable_all (irq_context);

      return 0;
   816bc:	0005883a 	mov	r2,zero
   816c0:	f800283a 	ret
      return -EINVAL;
    }
  }
  else
  {
    return -ENOTSUP;
   816c4:	00bfde84 	movi	r2,-134
   816c8:	f800283a 	ret

      return 0;
    }
    else
    {
      return -EINVAL;
   816cc:	00bffa84 	movi	r2,-22
  }
  else
  {
    return -ENOTSUP;
  }
}
   816d0:	f800283a 	ret

000816d4 <close>:
 *
 * ALT_CLOSE is mapped onto the close() system call in alt_syscall.h
 */
 
int ALT_CLOSE (int fildes)
{
   816d4:	defffd04 	addi	sp,sp,-12
   816d8:	dfc00215 	stw	ra,8(sp)
   816dc:	dc400115 	stw	r17,4(sp)
   816e0:	dc000015 	stw	r16,0(sp)
   * A common error case is that when the file descriptor was created, the call
   * to open() failed resulting in a negative file descriptor. This is trapped
   * below so that we don't try and process an invalid file descriptor.
   */

  fd = (fildes < 0) ? NULL : &alt_fd_list[fildes];
   816e4:	20002016 	blt	r4,zero,81768 <close+0x94>
   816e8:	2021883a 	mov	r16,r4
   816ec:	01400304 	movi	r5,12
   816f0:	008471c0 	call	8471c <__mulsi3>
   816f4:	04400234 	movhi	r17,8
   816f8:	8c588904 	addi	r17,r17,25124
   816fc:	1463883a 	add	r17,r2,r17

  if (fd)
   81700:	88001926 	beq	r17,zero,81768 <close+0x94>
    /*
     * If the associated file system/device has a close function, call it so 
     * that any necessary cleanup code can run.
     */

    rval = (fd->dev->close) ? fd->dev->close(fd) : 0;
   81704:	01400304 	movi	r5,12
   81708:	8009883a 	mov	r4,r16
   8170c:	008471c0 	call	8471c <__mulsi3>
   81710:	00c00234 	movhi	r3,8
   81714:	18d88904 	addi	r3,r3,25124
   81718:	1885883a 	add	r2,r3,r2
   8171c:	10800017 	ldw	r2,0(r2)
   81720:	10800417 	ldw	r2,16(r2)
   81724:	10001926 	beq	r2,zero,8178c <close+0xb8>
   81728:	8809883a 	mov	r4,r17
   8172c:	103ee83a 	callr	r2
   81730:	1023883a 	mov	r17,r2

    /* Free the file descriptor structure and return. */

    alt_release_fd (fildes);
   81734:	8009883a 	mov	r4,r16
   81738:	0081c940 	call	81c94 <alt_release_fd>
    if (rval < 0)
    {
      ALT_ERRNO = -rval;
      return -1;
    }
    return 0;
   8173c:	0005883a 	mov	r2,zero
    rval = (fd->dev->close) ? fd->dev->close(fd) : 0;

    /* Free the file descriptor structure and return. */

    alt_release_fd (fildes);
    if (rval < 0)
   81740:	8800150e 	bge	r17,zero,81798 <close+0xc4>
   81744:	d0a00717 	ldw	r2,-32740(gp)
   81748:	10000226 	beq	r2,zero,81754 <close+0x80>
   8174c:	103ee83a 	callr	r2
   81750:	00000106 	br	81758 <close+0x84>
   81754:	d0a7cf04 	addi	r2,gp,-24772
    {
      ALT_ERRNO = -rval;
   81758:	0463c83a 	sub	r17,zero,r17
   8175c:	14400015 	stw	r17,0(r2)
      return -1;
   81760:	00bfffc4 	movi	r2,-1
   81764:	00000c06 	br	81798 <close+0xc4>
   81768:	d0a00717 	ldw	r2,-32740(gp)
   8176c:	10000226 	beq	r2,zero,81778 <close+0xa4>
   81770:	103ee83a 	callr	r2
   81774:	00000106 	br	8177c <close+0xa8>
   81778:	d0a7cf04 	addi	r2,gp,-24772
    }
    return 0;
  }
  else
  {
    ALT_ERRNO = EBADFD;
   8177c:	00c01444 	movi	r3,81
   81780:	10c00015 	stw	r3,0(r2)
    return -1;
   81784:	00bfffc4 	movi	r2,-1
   81788:	00000306 	br	81798 <close+0xc4>

    rval = (fd->dev->close) ? fd->dev->close(fd) : 0;

    /* Free the file descriptor structure and return. */

    alt_release_fd (fildes);
   8178c:	8009883a 	mov	r4,r16
   81790:	0081c940 	call	81c94 <alt_release_fd>
    if (rval < 0)
    {
      ALT_ERRNO = -rval;
      return -1;
    }
    return 0;
   81794:	0005883a 	mov	r2,zero
  else
  {
    ALT_ERRNO = EBADFD;
    return -1;
  }
}
   81798:	dfc00217 	ldw	ra,8(sp)
   8179c:	dc400117 	ldw	r17,4(sp)
   817a0:	dc000017 	ldw	r16,0(sp)
   817a4:	dec00304 	addi	sp,sp,12
   817a8:	f800283a 	ret

000817ac <alt_dcache_flush>:
 *
 * Any dirty lines in the data cache are written back to memory.
 */

void alt_dcache_flush (void* start, alt_u32 len)
{
   817ac:	f800283a 	ret

000817b0 <alt_dcache_flush_all>:
/*
 * alt_dcache_flush_all() is called to flush the entire data cache.
 */

void alt_dcache_flush_all (void)
{
   817b0:	f800283a 	ret

000817b4 <alt_dev_null_write>:
 */

static int alt_dev_null_write (alt_fd* fd, const char* ptr, int len)
{
  return len;
}
   817b4:	3005883a 	mov	r2,r6
   817b8:	f800283a 	ret

000817bc <alt_dev_llist_insert>:
{
  /*
   * check that the device exists, and that it has a valid name.
   */

  if (!dev || !dev->name)
   817bc:	20000226 	beq	r4,zero,817c8 <alt_dev_llist_insert+0xc>
   817c0:	20800217 	ldw	r2,8(r4)
   817c4:	10000f1e 	bne	r2,zero,81804 <alt_dev_llist_insert+0x48>
   817c8:	d0a00717 	ldw	r2,-32740(gp)
   817cc:	10000426 	beq	r2,zero,817e0 <alt_dev_llist_insert+0x24>
/*
 *
 */

int alt_dev_llist_insert (alt_dev_llist* dev, alt_llist* list)
{
   817d0:	deffff04 	addi	sp,sp,-4
   817d4:	dfc00015 	stw	ra,0(sp)
   817d8:	103ee83a 	callr	r2
   817dc:	00000506 	br	817f4 <alt_dev_llist_insert+0x38>
   817e0:	d0a7cf04 	addi	r2,gp,-24772
   * check that the device exists, and that it has a valid name.
   */

  if (!dev || !dev->name)
  {
    ALT_ERRNO = EINVAL;
   817e4:	00c00584 	movi	r3,22
   817e8:	10c00015 	stw	r3,0(r2)
    return -EINVAL;
   817ec:	00bffa84 	movi	r2,-22
   */
  
  alt_llist_insert(list, &dev->llist);

  return 0;  
}
   817f0:	f800283a 	ret
   * check that the device exists, and that it has a valid name.
   */

  if (!dev || !dev->name)
  {
    ALT_ERRNO = EINVAL;
   817f4:	00c00584 	movi	r3,22
   817f8:	10c00015 	stw	r3,0(r2)
    return -EINVAL;
   817fc:	00bffa84 	movi	r2,-22
   81800:	00000806 	br	81824 <alt_dev_llist_insert+0x68>
 */

static ALT_INLINE void ALT_ALWAYS_INLINE alt_llist_insert(alt_llist* list, 
                alt_llist* entry)
{
  entry->previous = list;
   81804:	21400115 	stw	r5,4(r4)
  entry->next     = list->next;
   81808:	28800017 	ldw	r2,0(r5)
   8180c:	20800015 	stw	r2,0(r4)

  list->next->previous = entry;
   81810:	28800017 	ldw	r2,0(r5)
   81814:	11000115 	stw	r4,4(r2)
  list->next           = entry;
   81818:	29000015 	stw	r4,0(r5)
   * register the device.
   */
  
  alt_llist_insert(list, &dev->llist);

  return 0;  
   8181c:	0005883a 	mov	r2,zero
   81820:	f800283a 	ret
}
   81824:	dfc00017 	ldw	ra,0(sp)
   81828:	dec00104 	addi	sp,sp,4
   8182c:	f800283a 	ret

00081830 <alt_find_dev>:
 * "name" must be an exact match for the devices registered name for a match to
 * be found.
 */
 
alt_dev* alt_find_dev(const char* name, alt_llist* llist)
{
   81830:	defffb04 	addi	sp,sp,-20
   81834:	dfc00415 	stw	ra,16(sp)
   81838:	dcc00315 	stw	r19,12(sp)
   8183c:	dc800215 	stw	r18,8(sp)
   81840:	dc400115 	stw	r17,4(sp)
   81844:	dc000015 	stw	r16,0(sp)
   81848:	2027883a 	mov	r19,r4
   8184c:	2823883a 	mov	r17,r5
  alt_dev* next = (alt_dev*) llist->next;
   81850:	2c000017 	ldw	r16,0(r5)
  alt_32 len;

  len  = strlen(name) + 1;
   81854:	00824ac0 	call	824ac <strlen>
   81858:	14800044 	addi	r18,r2,1
  /*
   * Check each list entry in turn, until a match is found, or we reach the
   * end of the list (i.e. next winds up pointing back to the list head).
   */ 

  while (next != (alt_dev*) llist)
   8185c:	8c000926 	beq	r17,r16,81884 <alt_find_dev+0x54>
    /* 
     * memcmp() is used here rather than strcmp() in order to reduce the size
     * of the executable.
     */

    if (!memcmp (next->name, name, len))
   81860:	900d883a 	mov	r6,r18
   81864:	980b883a 	mov	r5,r19
   81868:	81000217 	ldw	r4,8(r16)
   8186c:	00820f80 	call	820f8 <memcmp>
   81870:	10000626 	beq	r2,zero,8188c <alt_find_dev+0x5c>
    {
      /* match found */

      return next;
    }
    next = (alt_dev*) next->llist.next;
   81874:	84000017 	ldw	r16,0(r16)
  /*
   * Check each list entry in turn, until a match is found, or we reach the
   * end of the list (i.e. next winds up pointing back to the list head).
   */ 

  while (next != (alt_dev*) llist)
   81878:	8c3ff91e 	bne	r17,r16,81860 <tx_descriptor+0xfff81800>
    next = (alt_dev*) next->llist.next;
  }
  
  /* No match found */
  
  return NULL;
   8187c:	0005883a 	mov	r2,zero
   81880:	00000306 	br	81890 <alt_find_dev+0x60>
   81884:	0005883a 	mov	r2,zero
   81888:	00000106 	br	81890 <alt_find_dev+0x60>
   8188c:	8005883a 	mov	r2,r16
}
   81890:	dfc00417 	ldw	ra,16(sp)
   81894:	dcc00317 	ldw	r19,12(sp)
   81898:	dc800217 	ldw	r18,8(sp)
   8189c:	dc400117 	ldw	r17,4(sp)
   818a0:	dc000017 	ldw	r16,0(sp)
   818a4:	dec00504 	addi	sp,sp,20
   818a8:	f800283a 	ret

000818ac <alt_icache_flush_all>:
/*
 * alt_icache_flush_all() is called to flush the entire instruction cache.
 */

void alt_icache_flush_all (void)
{
   818ac:	f800283a 	ret

000818b0 <alt_ic_isr_register>:
  * @param irq              IRQ number
  * @return                 0 if successful, else error (-1)
  */
int alt_ic_isr_register(alt_u32 ic_id, alt_u32 irq, alt_isr_func isr, 
  void *isr_context, void *flags)
{
   818b0:	defffe04 	addi	sp,sp,-8
   818b4:	dfc00115 	stw	ra,4(sp)
    return alt_iic_isr_register(ic_id, irq, isr, isr_context, flags);
   818b8:	d8800217 	ldw	r2,8(sp)
   818bc:	d8800015 	stw	r2,0(sp)
   818c0:	00819580 	call	81958 <alt_iic_isr_register>
}  
   818c4:	dfc00117 	ldw	ra,4(sp)
   818c8:	dec00204 	addi	sp,sp,8
   818cc:	f800283a 	ret

000818d0 <alt_ic_irq_enable>:
static ALT_INLINE alt_irq_context ALT_ALWAYS_INLINE 
       alt_irq_disable_all (void)
{
  alt_irq_context context;

  NIOS2_READ_STATUS (context);
   818d0:	0009303a 	rdctl	r4,status

  NIOS2_WRITE_STATUS (context & ~NIOS2_STATUS_PIE_MSK);
   818d4:	00bfff84 	movi	r2,-2
   818d8:	2084703a 	and	r2,r4,r2
   818dc:	1001703a 	wrctl	status,r2
  alt_irq_context  status;
  extern volatile alt_u32 alt_irq_active;

  status = alt_irq_disable_all ();

  alt_irq_active |= (1 << id);
   818e0:	d0a7cb17 	ldw	r2,-24788(gp)
   818e4:	00c00044 	movi	r3,1
   818e8:	194a983a 	sll	r5,r3,r5
   818ec:	288ab03a 	or	r5,r5,r2
   818f0:	d167cb15 	stw	r5,-24788(gp)
  NIOS2_WRITE_IENABLE (alt_irq_active);
   818f4:	d0a7cb17 	ldw	r2,-24788(gp)
   818f8:	100170fa 	wrctl	ienable,r2
  status &= ~NIOS2_STATUS_PIE_MSK;
  status |= (context & NIOS2_STATUS_PIE_MSK);
  
  NIOS2_WRITE_STATUS (status);
#else
  NIOS2_WRITE_STATUS (context);
   818fc:	2001703a 	wrctl	status,r4
  * @return                 0 if successful, else error (-1)
  */
int alt_ic_irq_enable (alt_u32 ic_id, alt_u32 irq)
{
    return alt_irq_enable(irq);
}
   81900:	0005883a 	mov	r2,zero
   81904:	f800283a 	ret

00081908 <alt_ic_irq_disable>:
static ALT_INLINE alt_irq_context ALT_ALWAYS_INLINE 
       alt_irq_disable_all (void)
{
  alt_irq_context context;

  NIOS2_READ_STATUS (context);
   81908:	0009303a 	rdctl	r4,status

  NIOS2_WRITE_STATUS (context & ~NIOS2_STATUS_PIE_MSK);
   8190c:	00bfff84 	movi	r2,-2
   81910:	2084703a 	and	r2,r4,r2
   81914:	1001703a 	wrctl	status,r2
  alt_irq_context  status;
  extern volatile alt_u32 alt_irq_active;

  status = alt_irq_disable_all ();

  alt_irq_active &= ~(1 << id);
   81918:	d0a7cb17 	ldw	r2,-24788(gp)
   8191c:	00ffff84 	movi	r3,-2
   81920:	194a183a 	rol	r5,r3,r5
   81924:	288a703a 	and	r5,r5,r2
   81928:	d167cb15 	stw	r5,-24788(gp)
  NIOS2_WRITE_IENABLE (alt_irq_active);
   8192c:	d0a7cb17 	ldw	r2,-24788(gp)
   81930:	100170fa 	wrctl	ienable,r2
  status &= ~NIOS2_STATUS_PIE_MSK;
  status |= (context & NIOS2_STATUS_PIE_MSK);
  
  NIOS2_WRITE_STATUS (status);
#else
  NIOS2_WRITE_STATUS (context);
   81934:	2001703a 	wrctl	status,r4
  * @return                 0 if successful, else error (-1)
  */
int alt_ic_irq_disable(alt_u32 ic_id, alt_u32 irq)
{
    return alt_irq_disable(irq);
}
   81938:	0005883a 	mov	r2,zero
   8193c:	f800283a 	ret

00081940 <alt_ic_irq_enabled>:
  */
alt_u32 alt_ic_irq_enabled(alt_u32 ic_id, alt_u32 irq)
{
    alt_u32 irq_enabled;

    NIOS2_READ_IENABLE(irq_enabled);
   81940:	000730fa 	rdctl	r3,ienable

    return (irq_enabled & (1 << irq)) ? 1: 0;
   81944:	00800044 	movi	r2,1
   81948:	1144983a 	sll	r2,r2,r5
   8194c:	10c4703a 	and	r2,r2,r3
}
   81950:	1004c03a 	cmpne	r2,r2,zero
   81954:	f800283a 	ret

00081958 <alt_iic_isr_register>:
{
  int rc = -EINVAL;  
  int id = irq;             /* IRQ interpreted as the interrupt ID. */
  alt_irq_context status;

  if (id < ALT_NIRQ)
   81958:	008007c4 	movi	r2,31
   8195c:	11401316 	blt	r2,r5,819ac <alt_iic_isr_register+0x54>
  * @param flags            
  * @return                 0 if successful, else error (-1)
  */
int alt_iic_isr_register(alt_u32 ic_id, alt_u32 irq, alt_isr_func isr, 
  void *isr_context, void *flags)
{
   81960:	defffe04 	addi	sp,sp,-8
   81964:	dfc00115 	stw	ra,4(sp)
   81968:	dc000015 	stw	r16,0(sp)
static ALT_INLINE alt_irq_context ALT_ALWAYS_INLINE 
       alt_irq_disable_all (void)
{
  alt_irq_context context;

  NIOS2_READ_STATUS (context);
   8196c:	0021303a 	rdctl	r16,status

  NIOS2_WRITE_STATUS (context & ~NIOS2_STATUS_PIE_MSK);
   81970:	00bfff84 	movi	r2,-2
   81974:	8084703a 	and	r2,r16,r2
   81978:	1001703a 	wrctl	status,r2
     * state.
     */

    status = alt_irq_disable_all();

    alt_irq[id].handler = isr;
   8197c:	280490fa 	slli	r2,r5,3
   81980:	00c00274 	movhi	r3,9
   81984:	18e3db04 	addi	r3,r3,-28820
   81988:	1885883a 	add	r2,r3,r2
   8198c:	11800015 	stw	r6,0(r2)
    alt_irq[id].context = isr_context;
   81990:	11c00115 	stw	r7,4(r2)

    rc = (isr) ? alt_ic_irq_enable(ic_id, id) : alt_ic_irq_disable(ic_id, id);
   81994:	30000226 	beq	r6,zero,819a0 <alt_iic_isr_register+0x48>
   81998:	00818d00 	call	818d0 <alt_ic_irq_enable>
   8199c:	00000106 	br	819a4 <alt_iic_isr_register+0x4c>
   819a0:	00819080 	call	81908 <alt_ic_irq_disable>
  status &= ~NIOS2_STATUS_PIE_MSK;
  status |= (context & NIOS2_STATUS_PIE_MSK);
  
  NIOS2_WRITE_STATUS (status);
#else
  NIOS2_WRITE_STATUS (context);
   819a4:	8001703a 	wrctl	status,r16
   819a8:	00000206 	br	819b4 <alt_iic_isr_register+0x5c>
  * @return                 0 if successful, else error (-1)
  */
int alt_iic_isr_register(alt_u32 ic_id, alt_u32 irq, alt_isr_func isr, 
  void *isr_context, void *flags)
{
  int rc = -EINVAL;  
   819ac:	00bffa84 	movi	r2,-22
   819b0:	f800283a 	ret

    alt_irq_enable_all(status);
  }

  return rc; 
}
   819b4:	dfc00117 	ldw	ra,4(sp)
   819b8:	dc000017 	ldw	r16,0(sp)
   819bc:	dec00204 	addi	sp,sp,8
   819c0:	f800283a 	ret

000819c4 <alt_open_fd>:
 * If the device can not be succesfully opened, then the input file descriptor
 * remains unchanged.
 */

static void alt_open_fd(alt_fd* fd, const char* name, int flags, int mode)
{
   819c4:	defffc04 	addi	sp,sp,-16
   819c8:	dfc00315 	stw	ra,12(sp)
   819cc:	dc800215 	stw	r18,8(sp)
   819d0:	dc400115 	stw	r17,4(sp)
   819d4:	dc000015 	stw	r16,0(sp)
   819d8:	2025883a 	mov	r18,r4
   819dc:	2809883a 	mov	r4,r5
   819e0:	300b883a 	mov	r5,r6
  int old;

  old = open (name, flags, mode);
   819e4:	380d883a 	mov	r6,r7
   819e8:	0081ad80 	call	81ad8 <open>

  if (old >= 0)
   819ec:	10000f16 	blt	r2,zero,81a2c <alt_open_fd+0x68>
   819f0:	1021883a 	mov	r16,r2
  {
    fd->dev      = alt_fd_list[old].dev;
   819f4:	01400304 	movi	r5,12
   819f8:	1009883a 	mov	r4,r2
   819fc:	008471c0 	call	8471c <__mulsi3>
   81a00:	04400234 	movhi	r17,8
   81a04:	8c588904 	addi	r17,r17,25124
   81a08:	88a3883a 	add	r17,r17,r2
   81a0c:	88800017 	ldw	r2,0(r17)
   81a10:	90800015 	stw	r2,0(r18)
    fd->priv     = alt_fd_list[old].priv;
   81a14:	88800117 	ldw	r2,4(r17)
   81a18:	90800115 	stw	r2,4(r18)
    fd->fd_flags = alt_fd_list[old].fd_flags;
   81a1c:	88800217 	ldw	r2,8(r17)
   81a20:	90800215 	stw	r2,8(r18)

    alt_release_fd (old);
   81a24:	8009883a 	mov	r4,r16
   81a28:	0081c940 	call	81c94 <alt_release_fd>
  }
} 
   81a2c:	dfc00317 	ldw	ra,12(sp)
   81a30:	dc800217 	ldw	r18,8(sp)
   81a34:	dc400117 	ldw	r17,4(sp)
   81a38:	dc000017 	ldw	r16,0(sp)
   81a3c:	dec00404 	addi	sp,sp,16
   81a40:	f800283a 	ret

00081a44 <alt_io_redirect>:
 */
 
void alt_io_redirect(const char* stdout_dev, 
                     const char* stdin_dev, 
                     const char* stderr_dev)
{
   81a44:	defffa04 	addi	sp,sp,-24
   81a48:	dfc00515 	stw	ra,20(sp)
   81a4c:	dd000415 	stw	r20,16(sp)
   81a50:	dcc00315 	stw	r19,12(sp)
   81a54:	dc800215 	stw	r18,8(sp)
   81a58:	dc400115 	stw	r17,4(sp)
   81a5c:	dc000015 	stw	r16,0(sp)
   81a60:	2829883a 	mov	r20,r5
   81a64:	3027883a 	mov	r19,r6
  /* Redirect the channels */

  alt_open_fd (&alt_fd_list[STDOUT_FILENO], stdout_dev, O_WRONLY, 0777);
   81a68:	04407fc4 	movi	r17,511
   81a6c:	04800044 	movi	r18,1
   81a70:	04000234 	movhi	r16,8
   81a74:	84188c04 	addi	r16,r16,25136
   81a78:	880f883a 	mov	r7,r17
   81a7c:	900d883a 	mov	r6,r18
   81a80:	200b883a 	mov	r5,r4
   81a84:	8009883a 	mov	r4,r16
   81a88:	00819c40 	call	819c4 <alt_open_fd>
  alt_open_fd (&alt_fd_list[STDIN_FILENO], stdin_dev, O_RDONLY, 0777);
   81a8c:	843ffd04 	addi	r16,r16,-12
   81a90:	880f883a 	mov	r7,r17
   81a94:	000d883a 	mov	r6,zero
   81a98:	a00b883a 	mov	r5,r20
   81a9c:	8009883a 	mov	r4,r16
   81aa0:	00819c40 	call	819c4 <alt_open_fd>
  alt_open_fd (&alt_fd_list[STDERR_FILENO], stderr_dev, O_WRONLY, 0777);
   81aa4:	880f883a 	mov	r7,r17
   81aa8:	900d883a 	mov	r6,r18
   81aac:	980b883a 	mov	r5,r19
   81ab0:	81000604 	addi	r4,r16,24
   81ab4:	00819c40 	call	819c4 <alt_open_fd>
}  
   81ab8:	dfc00517 	ldw	ra,20(sp)
   81abc:	dd000417 	ldw	r20,16(sp)
   81ac0:	dcc00317 	ldw	r19,12(sp)
   81ac4:	dc800217 	ldw	r18,8(sp)
   81ac8:	dc400117 	ldw	r17,4(sp)
   81acc:	dc000017 	ldw	r16,0(sp)
   81ad0:	dec00604 	addi	sp,sp,24
   81ad4:	f800283a 	ret

00081ad8 <open>:
 *
 * ALT_OPEN is mapped onto the open() system call in alt_syscall.h
 */
 
int ALT_OPEN (const char* file, int flags, int mode)
{ 
   81ad8:	defff704 	addi	sp,sp,-36
   81adc:	dfc00815 	stw	ra,32(sp)
   81ae0:	ddc00715 	stw	r23,28(sp)
   81ae4:	dd800615 	stw	r22,24(sp)
   81ae8:	dd400515 	stw	r21,20(sp)
   81aec:	dd000415 	stw	r20,16(sp)
   81af0:	dcc00315 	stw	r19,12(sp)
   81af4:	dc800215 	stw	r18,8(sp)
   81af8:	dc400115 	stw	r17,4(sp)
   81afc:	dc000015 	stw	r16,0(sp)
   81b00:	202b883a 	mov	r21,r4
   81b04:	2829883a 	mov	r20,r5
   81b08:	302d883a 	mov	r22,r6
  /* 
   * Check the device list, to see if a device with a matching name is 
   * registered.
   */
  
  if (!(dev = alt_find_dev (file, &alt_dev_list)))
   81b0c:	d1600304 	addi	r5,gp,-32756
   81b10:	00818300 	call	81830 <alt_find_dev>
   81b14:	10003e1e 	bne	r2,zero,81c10 <open+0x138>
  {
    /* No matching device, so try the filesystem list */

    dev   = alt_find_file (file);
   81b18:	a809883a 	mov	r4,r21
   81b1c:	0081dfc0 	call	81dfc <alt_find_file>
   81b20:	1023883a 	mov	r17,r2

  /* 
   * If a matching device or filesystem is found, allocate a file descriptor. 
   */

  if (dev)
   81b24:	10004b1e 	bne	r2,zero,81c54 <open+0x17c>
      }
    }
  }
  else
  {
    status = -ENODEV;
   81b28:	047ffb44 	movi	r17,-19
 
int ALT_OPEN (const char* file, int flags, int mode)
{ 
  alt_dev* dev;
  alt_fd*  fd;
  int index  = -1;
   81b2c:	043fffc4 	movi	r16,-1
   81b30:	00001506 	br	81b88 <open+0xb0>
   * for exclusive access. If a match is found, generate an error.
   */

  for (i = 0; i <= alt_max_fd; i++)
  {
    if ((alt_fd_list[i].dev == fd->dev) &&
   81b34:	11400017 	ldw	r5,0(r2)
   81b38:	2980031e 	bne	r5,r6,81b48 <open+0x70>
   81b3c:	21400017 	ldw	r5,0(r4)
   81b40:	2800010e 	bge	r5,zero,81b48 <open+0x70>
        (alt_fd_list[i].fd_flags & ALT_FD_EXCL) &&
   81b44:	98800f1e 	bne	r19,r2,81b84 <open+0xac>
  /*
   * Loop through all current file descriptors searching for one that's locked
   * for exclusive access. If a match is found, generate an error.
   */

  for (i = 0; i <= alt_max_fd; i++)
   81b48:	18c00044 	addi	r3,r3,1
   81b4c:	10800304 	addi	r2,r2,12
   81b50:	21000304 	addi	r4,r4,12
   81b54:	90fff72e 	bgeu	r18,r3,81b34 <tx_descriptor+0xfff81ad4>
        /* 
         * If the device or filesystem provides an open() callback function,
         * call it now to perform any device/filesystem specific operations.
         */
    
        status = (dev->open) ? dev->open(fd, file, flags, mode): 0;
   81b58:	88800317 	ldw	r2,12(r17)
   81b5c:	10001526 	beq	r2,zero,81bb4 <open+0xdc>
   81b60:	b00f883a 	mov	r7,r22
   81b64:	a00d883a 	mov	r6,r20
   81b68:	a80b883a 	mov	r5,r21
   81b6c:	9809883a 	mov	r4,r19
   81b70:	103ee83a 	callr	r2
   81b74:	1023883a 	mov	r17,r2
   81b78:	8005883a 	mov	r2,r16
    status = -ENODEV;
  }

  /* Allocation failed, so clean up and return an error */ 

  if (status < 0)
   81b7c:	88003a0e 	bge	r17,zero,81c68 <open+0x190>
   81b80:	00000106 	br	81b88 <open+0xb0>
  {
    if ((alt_fd_list[i].dev == fd->dev) &&
        (alt_fd_list[i].fd_flags & ALT_FD_EXCL) &&
        (&alt_fd_list[i] != fd))
    {
      return -EACCES;
   81b84:	047ffcc4 	movi	r17,-13

  /* Allocation failed, so clean up and return an error */ 

  if (status < 0)
  {
    alt_release_fd (index);  
   81b88:	8009883a 	mov	r4,r16
   81b8c:	0081c940 	call	81c94 <alt_release_fd>
   81b90:	d0a00717 	ldw	r2,-32740(gp)
   81b94:	10000226 	beq	r2,zero,81ba0 <open+0xc8>
   81b98:	103ee83a 	callr	r2
   81b9c:	00000106 	br	81ba4 <open+0xcc>
   81ba0:	d0a7cf04 	addi	r2,gp,-24772
    ALT_ERRNO = -status;
   81ba4:	0463c83a 	sub	r17,zero,r17
   81ba8:	14400015 	stw	r17,0(r2)
    return -1;
   81bac:	00bfffc4 	movi	r2,-1
   81bb0:	00002d06 	br	81c68 <open+0x190>
   81bb4:	8005883a 	mov	r2,r16
   81bb8:	00002b06 	br	81c68 <open+0x190>
   * If a matching device or filesystem is found, allocate a file descriptor. 
   */

  if (dev)
  {
    if ((index = alt_get_fd (dev)) < 0)
   81bbc:	8023883a 	mov	r17,r16
   81bc0:	003ff106 	br	81b88 <tx_descriptor+0xfff81b28>
   81bc4:	8023883a 	mov	r17,r16
   81bc8:	003fef06 	br	81b88 <tx_descriptor+0xfff81b28>
    {
      status = index;
    }
    else
    {
      fd = &alt_fd_list[index];
   81bcc:	01400304 	movi	r5,12
   81bd0:	8009883a 	mov	r4,r16
   81bd4:	008471c0 	call	8471c <__mulsi3>
   81bd8:	05c00234 	movhi	r23,8
   81bdc:	bdd88904 	addi	r23,r23,25124
   81be0:	15e7883a 	add	r19,r2,r23

  /*
   * Mark the file descriptor as belonging to a device.
   */

  fd->fd_flags |= ALT_FD_DEV;
   81be4:	00900034 	movhi	r2,16384
   81be8:	10bfffc4 	addi	r2,r2,-1
   81bec:	a084703a 	and	r2,r20,r2
   81bf0:	10900034 	orhi	r2,r2,16384
   81bf4:	98800215 	stw	r2,8(r19)
  /*
   * Loop through all current file descriptors searching for one that's locked
   * for exclusive access. If a match is found, generate an error.
   */

  for (i = 0; i <= alt_max_fd; i++)
   81bf8:	d4a00217 	ldw	r18,-32760(gp)
  {
    if ((alt_fd_list[i].dev == fd->dev) &&
   81bfc:	99800017 	ldw	r6,0(r19)
   81c00:	b805883a 	mov	r2,r23
   81c04:	b9000204 	addi	r4,r23,8
  /*
   * Loop through all current file descriptors searching for one that's locked
   * for exclusive access. If a match is found, generate an error.
   */

  for (i = 0; i <= alt_max_fd; i++)
   81c08:	0007883a 	mov	r3,zero
   81c0c:	003fc906 	br	81b34 <tx_descriptor+0xfff81ad4>
   81c10:	1023883a 	mov	r17,r2
   * If a matching device or filesystem is found, allocate a file descriptor. 
   */

  if (dev)
  {
    if ((index = alt_get_fd (dev)) < 0)
   81c14:	1009883a 	mov	r4,r2
   81c18:	0081ebc0 	call	81ebc <alt_get_fd>
   81c1c:	1021883a 	mov	r16,r2
   81c20:	103fe616 	blt	r2,zero,81bbc <tx_descriptor+0xfff81b5c>
   81c24:	003fe906 	br	81bcc <tx_descriptor+0xfff81b6c>
    {
      status = index;
    }
    else
    {
      fd = &alt_fd_list[index];
   81c28:	01400304 	movi	r5,12
   81c2c:	8009883a 	mov	r4,r16
   81c30:	008471c0 	call	8471c <__mulsi3>
   81c34:	04c00234 	movhi	r19,8
   81c38:	9cd88904 	addi	r19,r19,25124
   81c3c:	14e7883a 	add	r19,r2,r19
      fd->fd_flags = (flags & ~ALT_FD_FLAGS_MASK);
   81c40:	00900034 	movhi	r2,16384
   81c44:	10bfffc4 	addi	r2,r2,-1
   81c48:	a084703a 	and	r2,r20,r2
   81c4c:	98800215 	stw	r2,8(r19)
   81c50:	003fc106 	br	81b58 <tx_descriptor+0xfff81af8>
   * If a matching device or filesystem is found, allocate a file descriptor. 
   */

  if (dev)
  {
    if ((index = alt_get_fd (dev)) < 0)
   81c54:	1009883a 	mov	r4,r2
   81c58:	0081ebc0 	call	81ebc <alt_get_fd>
   81c5c:	1021883a 	mov	r16,r2
   81c60:	103ff10e 	bge	r2,zero,81c28 <tx_descriptor+0xfff81bc8>
   81c64:	003fd706 	br	81bc4 <tx_descriptor+0xfff81b64>
  }
  
  /* return the reference upon success */

  return index;
}
   81c68:	dfc00817 	ldw	ra,32(sp)
   81c6c:	ddc00717 	ldw	r23,28(sp)
   81c70:	dd800617 	ldw	r22,24(sp)
   81c74:	dd400517 	ldw	r21,20(sp)
   81c78:	dd000417 	ldw	r20,16(sp)
   81c7c:	dcc00317 	ldw	r19,12(sp)
   81c80:	dc800217 	ldw	r18,8(sp)
   81c84:	dc400117 	ldw	r17,4(sp)
   81c88:	dc000017 	ldw	r16,0(sp)
   81c8c:	dec00904 	addi	sp,sp,36
   81c90:	f800283a 	ret

00081c94 <alt_release_fd>:
 * error cannont be released backed to the pool. They are always reserved.
 */

void alt_release_fd (int fd)
{
  if (fd > 2)
   81c94:	00800084 	movi	r2,2
   81c98:	1100140e 	bge	r2,r4,81cec <alt_release_fd+0x58>
 * File descriptors correcponding to standard in, standard out and standard 
 * error cannont be released backed to the pool. They are always reserved.
 */

void alt_release_fd (int fd)
{
   81c9c:	defffd04 	addi	sp,sp,-12
   81ca0:	dfc00215 	stw	ra,8(sp)
   81ca4:	dc400115 	stw	r17,4(sp)
   81ca8:	dc000015 	stw	r16,0(sp)
   81cac:	2021883a 	mov	r16,r4
  if (fd > 2)
  {
    alt_fd_list[fd].fd_flags = 0;
   81cb0:	04400234 	movhi	r17,8
   81cb4:	8c588904 	addi	r17,r17,25124
   81cb8:	01400304 	movi	r5,12
   81cbc:	008471c0 	call	8471c <__mulsi3>
   81cc0:	8885883a 	add	r2,r17,r2
   81cc4:	10000215 	stw	zero,8(r2)
    alt_fd_list[fd].dev      = 0;
   81cc8:	01400304 	movi	r5,12
   81ccc:	8009883a 	mov	r4,r16
   81cd0:	008471c0 	call	8471c <__mulsi3>
   81cd4:	8885883a 	add	r2,r17,r2
   81cd8:	10000015 	stw	zero,0(r2)
  }
}
   81cdc:	dfc00217 	ldw	ra,8(sp)
   81ce0:	dc400117 	ldw	r17,4(sp)
   81ce4:	dc000017 	ldw	r16,0(sp)
   81ce8:	dec00304 	addi	sp,sp,12
   81cec:	f800283a 	ret

00081cf0 <alt_alarm_stop>:
static ALT_INLINE alt_irq_context ALT_ALWAYS_INLINE 
       alt_irq_disable_all (void)
{
  alt_irq_context context;

  NIOS2_READ_STATUS (context);
   81cf0:	0007303a 	rdctl	r3,status

  NIOS2_WRITE_STATUS (context & ~NIOS2_STATUS_PIE_MSK);
   81cf4:	00bfff84 	movi	r2,-2
   81cf8:	1884703a 	and	r2,r3,r2
   81cfc:	1001703a 	wrctl	status,r2
 * input argument is the element to remove.
 */
     
static ALT_INLINE void ALT_ALWAYS_INLINE alt_llist_remove(alt_llist* entry)
{
  entry->next->previous = entry->previous;
   81d00:	20800017 	ldw	r2,0(r4)
   81d04:	21400117 	ldw	r5,4(r4)
   81d08:	11400115 	stw	r5,4(r2)
  entry->previous->next = entry->next;
   81d0c:	20800117 	ldw	r2,4(r4)
   81d10:	21400017 	ldw	r5,0(r4)
   81d14:	11400015 	stw	r5,0(r2)
  /* 
   * Set the entry to point to itself, so that any further calls to
   * alt_llist_remove() are harmless.
   */

  entry->previous = entry;
   81d18:	21000115 	stw	r4,4(r4)
  entry->next     = entry;
   81d1c:	21000015 	stw	r4,0(r4)
  status &= ~NIOS2_STATUS_PIE_MSK;
  status |= (context & NIOS2_STATUS_PIE_MSK);
  
  NIOS2_WRITE_STATUS (status);
#else
  NIOS2_WRITE_STATUS (context);
   81d20:	1801703a 	wrctl	status,r3
   81d24:	f800283a 	ret

00081d28 <alt_tick>:
 * 
 * alt_tick() is expected to run at interrupt level.
 */

void alt_tick (void)
{
   81d28:	defffb04 	addi	sp,sp,-20
   81d2c:	dfc00415 	stw	ra,16(sp)
   81d30:	dcc00315 	stw	r19,12(sp)
   81d34:	dc800215 	stw	r18,8(sp)
   81d38:	dc400115 	stw	r17,4(sp)
   81d3c:	dc000015 	stw	r16,0(sp)
  alt_alarm* next;
  alt_alarm* alarm = (alt_alarm*) alt_alarm_list.next;
   81d40:	d0e00904 	addi	r3,gp,-32732
   81d44:	1c000017 	ldw	r16,0(r3)

  alt_u32    next_callback;

  /* update the tick counter */

  _alt_nticks++;
   81d48:	d0a7cc17 	ldw	r2,-24784(gp)
   81d4c:	10800044 	addi	r2,r2,1
   81d50:	d0a7cc15 	stw	r2,-24784(gp)

  /* process the registered callbacks */

  while (alarm != (alt_alarm*) &alt_alarm_list)
   81d54:	80c02026 	beq	r16,r3,81dd8 <alt_tick+0xb0>
         * flag. This will prevent the subsequent tick event from causing
         * an alarm too early.
         */
        if(alarm->time < _alt_nticks)
        {
          alarm->rollover = 1;
   81d58:	04c00044 	movi	r19,1

  _alt_nticks++;

  /* process the registered callbacks */

  while (alarm != (alt_alarm*) &alt_alarm_list)
   81d5c:	1825883a 	mov	r18,r3
  {
    next = (alt_alarm*) alarm->llist.next;
   81d60:	84400017 	ldw	r17,0(r16)
    /* 
     * Upon the tick-counter rolling over it is safe to clear the 
     * roll-over flag; once the flag is cleared this (or subsequnt)
     * tick events are enabled to generate an alarm event. 
     */
    if ((alarm->rollover) && (_alt_nticks == 0))
   81d64:	80800403 	ldbu	r2,16(r16)
   81d68:	10001526 	beq	r2,zero,81dc0 <alt_tick+0x98>
   81d6c:	d0a7cc17 	ldw	r2,-24784(gp)
   81d70:	1000171e 	bne	r2,zero,81dd0 <alt_tick+0xa8>
    {
      alarm->rollover = 0;
   81d74:	80000405 	stb	zero,16(r16)
   81d78:	00001106 	br	81dc0 <alt_tick+0x98>

      /* deactivate the alarm if the return value is zero */

      if (next_callback == 0)
      {
        alt_alarm_stop (alarm);
   81d7c:	8009883a 	mov	r4,r16
   81d80:	0081cf00 	call	81cf0 <alt_alarm_stop>
   81d84:	00000606 	br	81da0 <alt_tick+0x78>
      }
      else
      {
        alarm->time += next_callback;
   81d88:	80c00217 	ldw	r3,8(r16)
   81d8c:	10c5883a 	add	r2,r2,r3
   81d90:	80800215 	stw	r2,8(r16)
        /* 
         * If the desired alarm time causes a roll-over, set the rollover
         * flag. This will prevent the subsequent tick event from causing
         * an alarm too early.
         */
        if(alarm->time < _alt_nticks)
   81d94:	d0e7cc17 	ldw	r3,-24784(gp)
   81d98:	10c0012e 	bgeu	r2,r3,81da0 <alt_tick+0x78>
        {
          alarm->rollover = 1;
   81d9c:	84c00405 	stb	r19,16(r16)
   81da0:	8821883a 	mov	r16,r17

  _alt_nticks++;

  /* process the registered callbacks */

  while (alarm != (alt_alarm*) &alt_alarm_list)
   81da4:	8cbfee1e 	bne	r17,r18,81d60 <tx_descriptor+0xfff81d00>
   81da8:	00000b06 	br	81dd8 <alt_tick+0xb0>
    }
    
    /* if the alarm period has expired, make the callback */    
    if ((alarm->time <= _alt_nticks) && (alarm->rollover == 0))
    {
      next_callback = alarm->callback (alarm->context);
   81dac:	80800317 	ldw	r2,12(r16)
   81db0:	81000517 	ldw	r4,20(r16)
   81db4:	103ee83a 	callr	r2

      /* deactivate the alarm if the return value is zero */

      if (next_callback == 0)
   81db8:	103ff31e 	bne	r2,zero,81d88 <tx_descriptor+0xfff81d28>
   81dbc:	003fef06 	br	81d7c <tx_descriptor+0xfff81d1c>
    {
      alarm->rollover = 0;
    }
    
    /* if the alarm period has expired, make the callback */    
    if ((alarm->time <= _alt_nticks) && (alarm->rollover == 0))
   81dc0:	d0e7cc17 	ldw	r3,-24784(gp)
   81dc4:	80800217 	ldw	r2,8(r16)
   81dc8:	18bff536 	bltu	r3,r2,81da0 <tx_descriptor+0xfff81d40>
   81dcc:	003ff706 	br	81dac <tx_descriptor+0xfff81d4c>
   81dd0:	d0a7cc17 	ldw	r2,-24784(gp)
   81dd4:	003ff206 	br	81da0 <tx_descriptor+0xfff81d40>
  /* 
   * Update the operating system specific timer facilities.
   */

  ALT_OS_TIME_TICK();
}
   81dd8:	dfc00417 	ldw	ra,16(sp)
   81ddc:	dcc00317 	ldw	r19,12(sp)
   81de0:	dc800217 	ldw	r18,8(sp)
   81de4:	dc400117 	ldw	r17,4(sp)
   81de8:	dc000017 	ldw	r16,0(sp)
   81dec:	dec00504 	addi	sp,sp,20
   81df0:	f800283a 	ret

00081df4 <altera_nios2_gen2_irq_init>:
 * To initialize the internal interrupt controller, just clear the IENABLE
 * register so that all possible IRQs are disabled.
 */
void altera_nios2_gen2_irq_init(void) 
{
    NIOS2_WRITE_IENABLE(0);
   81df4:	000170fa 	wrctl	ienable,zero
   81df8:	f800283a 	ret

00081dfc <alt_find_file>:
 * either '/' or '\0' is the prefix of the filename. For example the filename:
 * "/myfilesystem/junk.txt" would match: "/myfilesystem", but not: "/myfile". 
 */
 
alt_dev* alt_find_file (const char* name)
{
   81dfc:	defffa04 	addi	sp,sp,-24
   81e00:	dfc00515 	stw	ra,20(sp)
   81e04:	dd000415 	stw	r20,16(sp)
   81e08:	dcc00315 	stw	r19,12(sp)
   81e0c:	dc800215 	stw	r18,8(sp)
   81e10:	dc400115 	stw	r17,4(sp)
   81e14:	dc000015 	stw	r16,0(sp)
  alt_dev* next = (alt_dev*) alt_fs_list.next;   
   81e18:	d0a00504 	addi	r2,gp,-32748
   81e1c:	14000017 	ldw	r16,0(r2)
  /*
   * Check each list entry in turn, until a match is found, or we reach the
   * end of the list (i.e. next winds up pointing back to the list head).
   */ 
 
  while (next != (alt_dev*) &alt_fs_list)
   81e20:	80801b26 	beq	r16,r2,81e90 <alt_find_file+0x94>
   81e24:	2027883a 	mov	r19,r4
  {
    len = strlen(next->name);
    
    if (next->name[len-1] == '/')
   81e28:	04800bc4 	movi	r18,47
  /*
   * Check each list entry in turn, until a match is found, or we reach the
   * end of the list (i.e. next winds up pointing back to the list head).
   */ 
 
  while (next != (alt_dev*) &alt_fs_list)
   81e2c:	1029883a 	mov	r20,r2
  {
    len = strlen(next->name);
   81e30:	84400217 	ldw	r17,8(r16)
   81e34:	8809883a 	mov	r4,r17
   81e38:	00824ac0 	call	824ac <strlen>
   81e3c:	1007883a 	mov	r3,r2
    
    if (next->name[len-1] == '/')
   81e40:	8889883a 	add	r4,r17,r2
   81e44:	213fffc7 	ldb	r4,-1(r4)
   81e48:	2480011e 	bne	r4,r18,81e50 <alt_find_file+0x54>
    {
      len -= 1;
   81e4c:	10ffffc4 	addi	r3,r2,-1
    }

    if (((name[len] == '/') || (name[len] == '\0')) && 
   81e50:	180d883a 	mov	r6,r3
   81e54:	98c7883a 	add	r3,r19,r3
   81e58:	18800003 	ldbu	r2,0(r3)
   81e5c:	10c03fcc 	andi	r3,r2,255
   81e60:	18c0201c 	xori	r3,r3,128
   81e64:	18ffe004 	addi	r3,r3,-128
   81e68:	1c800126 	beq	r3,r18,81e70 <alt_find_file+0x74>
   81e6c:	1800041e 	bne	r3,zero,81e80 <alt_find_file+0x84>
        !memcmp (next->name, name, len))
   81e70:	980b883a 	mov	r5,r19
   81e74:	8809883a 	mov	r4,r17
   81e78:	00820f80 	call	820f8 <memcmp>
    if (next->name[len-1] == '/')
    {
      len -= 1;
    }

    if (((name[len] == '/') || (name[len] == '\0')) && 
   81e7c:	10000626 	beq	r2,zero,81e98 <alt_find_file+0x9c>
    {
      /* match found */

      return next;
    }
    next = (alt_dev*) next->llist.next;
   81e80:	84000017 	ldw	r16,0(r16)
  /*
   * Check each list entry in turn, until a match is found, or we reach the
   * end of the list (i.e. next winds up pointing back to the list head).
   */ 
 
  while (next != (alt_dev*) &alt_fs_list)
   81e84:	853fea1e 	bne	r16,r20,81e30 <tx_descriptor+0xfff81dd0>
    next = (alt_dev*) next->llist.next;
  }
  
  /* No match found */
  
  return NULL;     
   81e88:	0005883a 	mov	r2,zero
   81e8c:	00000306 	br	81e9c <alt_find_file+0xa0>
   81e90:	0005883a 	mov	r2,zero
   81e94:	00000106 	br	81e9c <alt_find_file+0xa0>
   81e98:	8005883a 	mov	r2,r16
}
   81e9c:	dfc00517 	ldw	ra,20(sp)
   81ea0:	dd000417 	ldw	r20,16(sp)
   81ea4:	dcc00317 	ldw	r19,12(sp)
   81ea8:	dc800217 	ldw	r18,8(sp)
   81eac:	dc400117 	ldw	r17,4(sp)
   81eb0:	dc000017 	ldw	r16,0(sp)
   81eb4:	dec00604 	addi	sp,sp,24
   81eb8:	f800283a 	ret

00081ebc <alt_get_fd>:
 * the offset of the file descriptor within the file descriptor array). A
 * negative value indicates failure.
 */

int alt_get_fd (alt_dev* dev)
{
   81ebc:	defffd04 	addi	sp,sp,-12
   81ec0:	dfc00215 	stw	ra,8(sp)
   81ec4:	dc400115 	stw	r17,4(sp)
   81ec8:	dc000015 	stw	r16,0(sp)
   * therefore reduce contention on the alt_fd_list_lock semaphore. 
   */

  for (i = 0; i < ALT_MAX_FD; i++)
  {
    if (!alt_fd_list[i].dev)
   81ecc:	00800234 	movhi	r2,8
   81ed0:	10988904 	addi	r2,r2,25124
   81ed4:	10800017 	ldw	r2,0(r2)
   81ed8:	10000726 	beq	r2,zero,81ef8 <alt_get_fd+0x3c>
   81edc:	00800234 	movhi	r2,8
   81ee0:	10988c04 	addi	r2,r2,25136
   * indicates the highest file descriptor ever allocated. This is used to
   * improve efficency when searching the file descriptor list, and 
   * therefore reduce contention on the alt_fd_list_lock semaphore. 
   */

  for (i = 0; i < ALT_MAX_FD; i++)
   81ee4:	04000044 	movi	r16,1
   81ee8:	01400804 	movi	r5,32
  {
    if (!alt_fd_list[i].dev)
   81eec:	10c00017 	ldw	r3,0(r2)
   81ef0:	18000e1e 	bne	r3,zero,81f2c <alt_get_fd+0x70>
   81ef4:	00000106 	br	81efc <alt_get_fd+0x40>
   * indicates the highest file descriptor ever allocated. This is used to
   * improve efficency when searching the file descriptor list, and 
   * therefore reduce contention on the alt_fd_list_lock semaphore. 
   */

  for (i = 0; i < ALT_MAX_FD; i++)
   81ef8:	0021883a 	mov	r16,zero
   81efc:	2023883a 	mov	r17,r4
  {
    if (!alt_fd_list[i].dev)
    {
      alt_fd_list[i].dev = dev;
   81f00:	01400304 	movi	r5,12
   81f04:	8009883a 	mov	r4,r16
   81f08:	008471c0 	call	8471c <__mulsi3>
   81f0c:	00c00234 	movhi	r3,8
   81f10:	18d88904 	addi	r3,r3,25124
   81f14:	1885883a 	add	r2,r3,r2
   81f18:	14400015 	stw	r17,0(r2)
      if (i > alt_max_fd)
   81f1c:	d0a00217 	ldw	r2,-32760(gp)
   81f20:	1400060e 	bge	r2,r16,81f3c <alt_get_fd+0x80>
      {
        alt_max_fd = i;
   81f24:	d4200215 	stw	r16,-32760(gp)
   81f28:	00000406 	br	81f3c <alt_get_fd+0x80>
   * indicates the highest file descriptor ever allocated. This is used to
   * improve efficency when searching the file descriptor list, and 
   * therefore reduce contention on the alt_fd_list_lock semaphore. 
   */

  for (i = 0; i < ALT_MAX_FD; i++)
   81f2c:	84000044 	addi	r16,r16,1
   81f30:	10800304 	addi	r2,r2,12
   81f34:	817fed1e 	bne	r16,r5,81eec <tx_descriptor+0xfff81e8c>
 */

int alt_get_fd (alt_dev* dev)
{
  alt_32 i;
  int rc = -EMFILE;
   81f38:	043ffa04 	movi	r16,-24
   */

  ALT_SEM_POST(alt_fd_list_lock);

  return rc;
}
   81f3c:	8005883a 	mov	r2,r16
   81f40:	dfc00217 	ldw	ra,8(sp)
   81f44:	dc400117 	ldw	r17,4(sp)
   81f48:	dc000017 	ldw	r16,0(sp)
   81f4c:	dec00304 	addi	sp,sp,12
   81f50:	f800283a 	ret

00081f54 <alt_exception_cause_generated_bad_addr>:
 *         0: BADADDR is not valid
 */
int 
alt_exception_cause_generated_bad_addr(alt_exception_cause cause)
{
  switch (cause) {
   81f54:	213ffe84 	addi	r4,r4,-6
   81f58:	008003c4 	movi	r2,15
   81f5c:	11001636 	bltu	r2,r4,81fb8 <alt_exception_cause_generated_bad_addr+0x64>
   81f60:	200890ba 	slli	r4,r4,2
   81f64:	00800234 	movhi	r2,8
   81f68:	1087de04 	addi	r2,r2,8056
   81f6c:	2089883a 	add	r4,r4,r2
   81f70:	20800017 	ldw	r2,0(r4)
   81f74:	1000683a 	jmp	r2
   81f78:	00081fc0 	call	81fc <__alt_mem_main_memory-0x77e04>
   81f7c:	00081fc0 	call	81fc <__alt_mem_main_memory-0x77e04>
   81f80:	00081fb8 	rdprs	zero,zero,8318
   81f84:	00081fb8 	rdprs	zero,zero,8318
   81f88:	00081fb8 	rdprs	zero,zero,8318
   81f8c:	00081fc0 	call	81fc <__alt_mem_main_memory-0x77e04>
   81f90:	00081fb8 	rdprs	zero,zero,8318
   81f94:	00081fb8 	rdprs	zero,zero,8318
   81f98:	00081fc0 	call	81fc <__alt_mem_main_memory-0x77e04>
   81f9c:	00081fc0 	call	81fc <__alt_mem_main_memory-0x77e04>
   81fa0:	00081fb8 	rdprs	zero,zero,8318
   81fa4:	00081fc0 	call	81fc <__alt_mem_main_memory-0x77e04>
   81fa8:	00081fb8 	rdprs	zero,zero,8318
   81fac:	00081fb8 	rdprs	zero,zero,8318
   81fb0:	00081fb8 	rdprs	zero,zero,8318
   81fb4:	00081fc0 	call	81fc <__alt_mem_main_memory-0x77e04>
  case NIOS2_EXCEPTION_ECC_DATA_ERR:
    return 1;

  case NIOS2_EXCEPTION_TLB_MISS:
  case NIOS2_EXCEPTION_ECC_TLB_ERR:
    return 0;
   81fb8:	0005883a 	mov	r2,zero
   81fbc:	f800283a 	ret
  case NIOS2_EXCEPTION_MISALIGNED_TARGET_PC:
  case NIOS2_EXCEPTION_TLB_READ_PERM_VIOLATION:
  case NIOS2_EXCEPTION_TLB_WRITE_PERM_VIOLATION:
  case NIOS2_EXCEPTION_MPU_DATA_REGION_VIOLATION:
  case NIOS2_EXCEPTION_ECC_DATA_ERR:
    return 1;
   81fc0:	00800044 	movi	r2,1
    return 0;

  default:
    return 0;
  }
}
   81fc4:	f800283a 	ret

00081fc8 <exit>:
   81fc8:	defffe04 	addi	sp,sp,-8
   81fcc:	000b883a 	mov	r5,zero
   81fd0:	dc000015 	stw	r16,0(sp)
   81fd4:	dfc00115 	stw	ra,4(sp)
   81fd8:	2021883a 	mov	r16,r4
   81fdc:	00827f00 	call	827f0 <__call_exitprocs>
   81fe0:	00800234 	movhi	r2,8
   81fe4:	109b0904 	addi	r2,r2,27684
   81fe8:	11000017 	ldw	r4,0(r2)
   81fec:	20800f17 	ldw	r2,60(r4)
   81ff0:	10000126 	beq	r2,zero,81ff8 <exit+0x30>
   81ff4:	103ee83a 	callr	r2
   81ff8:	8009883a 	mov	r4,r16
   81ffc:	00847440 	call	84744 <_exit>

00082000 <_getc_r>:
   82000:	defffd04 	addi	sp,sp,-12
   82004:	dc000115 	stw	r16,4(sp)
   82008:	dfc00215 	stw	ra,8(sp)
   8200c:	2021883a 	mov	r16,r4
   82010:	20000226 	beq	r4,zero,8201c <_getc_r+0x1c>
   82014:	20800e17 	ldw	r2,56(r4)
   82018:	10000c26 	beq	r2,zero,8204c <_getc_r+0x4c>
   8201c:	28800117 	ldw	r2,4(r5)
   82020:	10bfffc4 	addi	r2,r2,-1
   82024:	28800115 	stw	r2,4(r5)
   82028:	10000c16 	blt	r2,zero,8205c <_getc_r+0x5c>
   8202c:	28800017 	ldw	r2,0(r5)
   82030:	10c00044 	addi	r3,r2,1
   82034:	28c00015 	stw	r3,0(r5)
   82038:	10800003 	ldbu	r2,0(r2)
   8203c:	dfc00217 	ldw	ra,8(sp)
   82040:	dc000117 	ldw	r16,4(sp)
   82044:	dec00304 	addi	sp,sp,12
   82048:	f800283a 	ret
   8204c:	d9400015 	stw	r5,0(sp)
   82050:	0082f780 	call	82f78 <__sinit>
   82054:	d9400017 	ldw	r5,0(sp)
   82058:	003ff006 	br	8201c <tx_descriptor+0xfff81fbc>
   8205c:	8009883a 	mov	r4,r16
   82060:	dfc00217 	ldw	ra,8(sp)
   82064:	dc000117 	ldw	r16,4(sp)
   82068:	dec00304 	addi	sp,sp,12
   8206c:	00824241 	jmpi	82424 <__srget_r>

00082070 <getc>:
   82070:	00800234 	movhi	r2,8
   82074:	defffd04 	addi	sp,sp,-12
   82078:	109b0a04 	addi	r2,r2,27688
   8207c:	dc400115 	stw	r17,4(sp)
   82080:	14400017 	ldw	r17,0(r2)
   82084:	dc000015 	stw	r16,0(sp)
   82088:	dfc00215 	stw	ra,8(sp)
   8208c:	2021883a 	mov	r16,r4
   82090:	88000226 	beq	r17,zero,8209c <getc+0x2c>
   82094:	88800e17 	ldw	r2,56(r17)
   82098:	10000d26 	beq	r2,zero,820d0 <getc+0x60>
   8209c:	80800117 	ldw	r2,4(r16)
   820a0:	10bfffc4 	addi	r2,r2,-1
   820a4:	80800115 	stw	r2,4(r16)
   820a8:	10000c16 	blt	r2,zero,820dc <getc+0x6c>
   820ac:	80800017 	ldw	r2,0(r16)
   820b0:	10c00044 	addi	r3,r2,1
   820b4:	80c00015 	stw	r3,0(r16)
   820b8:	10800003 	ldbu	r2,0(r2)
   820bc:	dfc00217 	ldw	ra,8(sp)
   820c0:	dc400117 	ldw	r17,4(sp)
   820c4:	dc000017 	ldw	r16,0(sp)
   820c8:	dec00304 	addi	sp,sp,12
   820cc:	f800283a 	ret
   820d0:	8809883a 	mov	r4,r17
   820d4:	0082f780 	call	82f78 <__sinit>
   820d8:	003ff006 	br	8209c <tx_descriptor+0xfff8203c>
   820dc:	800b883a 	mov	r5,r16
   820e0:	8809883a 	mov	r4,r17
   820e4:	dfc00217 	ldw	ra,8(sp)
   820e8:	dc400117 	ldw	r17,4(sp)
   820ec:	dc000017 	ldw	r16,0(sp)
   820f0:	dec00304 	addi	sp,sp,12
   820f4:	00824241 	jmpi	82424 <__srget_r>

000820f8 <memcmp>:
   820f8:	01c000c4 	movi	r7,3
   820fc:	3980192e 	bgeu	r7,r6,82164 <memcmp+0x6c>
   82100:	2144b03a 	or	r2,r4,r5
   82104:	11c4703a 	and	r2,r2,r7
   82108:	10000f26 	beq	r2,zero,82148 <memcmp+0x50>
   8210c:	20800003 	ldbu	r2,0(r4)
   82110:	28c00003 	ldbu	r3,0(r5)
   82114:	10c0151e 	bne	r2,r3,8216c <memcmp+0x74>
   82118:	31bfff84 	addi	r6,r6,-2
   8211c:	01ffffc4 	movi	r7,-1
   82120:	00000406 	br	82134 <memcmp+0x3c>
   82124:	20800003 	ldbu	r2,0(r4)
   82128:	28c00003 	ldbu	r3,0(r5)
   8212c:	31bfffc4 	addi	r6,r6,-1
   82130:	10c00e1e 	bne	r2,r3,8216c <memcmp+0x74>
   82134:	21000044 	addi	r4,r4,1
   82138:	29400044 	addi	r5,r5,1
   8213c:	31fff91e 	bne	r6,r7,82124 <tx_descriptor+0xfff820c4>
   82140:	0005883a 	mov	r2,zero
   82144:	f800283a 	ret
   82148:	20c00017 	ldw	r3,0(r4)
   8214c:	28800017 	ldw	r2,0(r5)
   82150:	18bfee1e 	bne	r3,r2,8210c <tx_descriptor+0xfff820ac>
   82154:	31bfff04 	addi	r6,r6,-4
   82158:	21000104 	addi	r4,r4,4
   8215c:	29400104 	addi	r5,r5,4
   82160:	39bff936 	bltu	r7,r6,82148 <tx_descriptor+0xfff820e8>
   82164:	303fe91e 	bne	r6,zero,8210c <tx_descriptor+0xfff820ac>
   82168:	003ff506 	br	82140 <tx_descriptor+0xfff820e0>
   8216c:	10c5c83a 	sub	r2,r2,r3
   82170:	f800283a 	ret

00082174 <memcpy>:
   82174:	defffd04 	addi	sp,sp,-12
   82178:	dfc00215 	stw	ra,8(sp)
   8217c:	dc400115 	stw	r17,4(sp)
   82180:	dc000015 	stw	r16,0(sp)
   82184:	00c003c4 	movi	r3,15
   82188:	2005883a 	mov	r2,r4
   8218c:	1980452e 	bgeu	r3,r6,822a4 <memcpy+0x130>
   82190:	2906b03a 	or	r3,r5,r4
   82194:	18c000cc 	andi	r3,r3,3
   82198:	1800441e 	bne	r3,zero,822ac <memcpy+0x138>
   8219c:	347ffc04 	addi	r17,r6,-16
   821a0:	8822d13a 	srli	r17,r17,4
   821a4:	28c00104 	addi	r3,r5,4
   821a8:	23400104 	addi	r13,r4,4
   821ac:	8820913a 	slli	r16,r17,4
   821b0:	2b000204 	addi	r12,r5,8
   821b4:	22c00204 	addi	r11,r4,8
   821b8:	84000504 	addi	r16,r16,20
   821bc:	2a800304 	addi	r10,r5,12
   821c0:	22400304 	addi	r9,r4,12
   821c4:	2c21883a 	add	r16,r5,r16
   821c8:	2811883a 	mov	r8,r5
   821cc:	200f883a 	mov	r7,r4
   821d0:	41000017 	ldw	r4,0(r8)
   821d4:	1fc00017 	ldw	ra,0(r3)
   821d8:	63c00017 	ldw	r15,0(r12)
   821dc:	39000015 	stw	r4,0(r7)
   821e0:	53800017 	ldw	r14,0(r10)
   821e4:	6fc00015 	stw	ra,0(r13)
   821e8:	5bc00015 	stw	r15,0(r11)
   821ec:	4b800015 	stw	r14,0(r9)
   821f0:	18c00404 	addi	r3,r3,16
   821f4:	39c00404 	addi	r7,r7,16
   821f8:	42000404 	addi	r8,r8,16
   821fc:	6b400404 	addi	r13,r13,16
   82200:	63000404 	addi	r12,r12,16
   82204:	5ac00404 	addi	r11,r11,16
   82208:	52800404 	addi	r10,r10,16
   8220c:	4a400404 	addi	r9,r9,16
   82210:	1c3fef1e 	bne	r3,r16,821d0 <tx_descriptor+0xfff82170>
   82214:	89c00044 	addi	r7,r17,1
   82218:	380e913a 	slli	r7,r7,4
   8221c:	310003cc 	andi	r4,r6,15
   82220:	02c000c4 	movi	r11,3
   82224:	11c7883a 	add	r3,r2,r7
   82228:	29cb883a 	add	r5,r5,r7
   8222c:	5900212e 	bgeu	r11,r4,822b4 <memcpy+0x140>
   82230:	1813883a 	mov	r9,r3
   82234:	2811883a 	mov	r8,r5
   82238:	200f883a 	mov	r7,r4
   8223c:	42800017 	ldw	r10,0(r8)
   82240:	4a400104 	addi	r9,r9,4
   82244:	39ffff04 	addi	r7,r7,-4
   82248:	4abfff15 	stw	r10,-4(r9)
   8224c:	42000104 	addi	r8,r8,4
   82250:	59fffa36 	bltu	r11,r7,8223c <tx_descriptor+0xfff821dc>
   82254:	213fff04 	addi	r4,r4,-4
   82258:	2008d0ba 	srli	r4,r4,2
   8225c:	318000cc 	andi	r6,r6,3
   82260:	21000044 	addi	r4,r4,1
   82264:	2109883a 	add	r4,r4,r4
   82268:	2109883a 	add	r4,r4,r4
   8226c:	1907883a 	add	r3,r3,r4
   82270:	290b883a 	add	r5,r5,r4
   82274:	30000626 	beq	r6,zero,82290 <memcpy+0x11c>
   82278:	198d883a 	add	r6,r3,r6
   8227c:	29c00003 	ldbu	r7,0(r5)
   82280:	18c00044 	addi	r3,r3,1
   82284:	29400044 	addi	r5,r5,1
   82288:	19ffffc5 	stb	r7,-1(r3)
   8228c:	19bffb1e 	bne	r3,r6,8227c <tx_descriptor+0xfff8221c>
   82290:	dfc00217 	ldw	ra,8(sp)
   82294:	dc400117 	ldw	r17,4(sp)
   82298:	dc000017 	ldw	r16,0(sp)
   8229c:	dec00304 	addi	sp,sp,12
   822a0:	f800283a 	ret
   822a4:	2007883a 	mov	r3,r4
   822a8:	003ff206 	br	82274 <tx_descriptor+0xfff82214>
   822ac:	2007883a 	mov	r3,r4
   822b0:	003ff106 	br	82278 <tx_descriptor+0xfff82218>
   822b4:	200d883a 	mov	r6,r4
   822b8:	003fee06 	br	82274 <tx_descriptor+0xfff82214>

000822bc <_putc_r>:
   822bc:	defffc04 	addi	sp,sp,-16
   822c0:	dc000215 	stw	r16,8(sp)
   822c4:	dfc00315 	stw	ra,12(sp)
   822c8:	2021883a 	mov	r16,r4
   822cc:	20000226 	beq	r4,zero,822d8 <_putc_r+0x1c>
   822d0:	20800e17 	ldw	r2,56(r4)
   822d4:	10001b26 	beq	r2,zero,82344 <_putc_r+0x88>
   822d8:	30800217 	ldw	r2,8(r6)
   822dc:	10bfffc4 	addi	r2,r2,-1
   822e0:	30800215 	stw	r2,8(r6)
   822e4:	10000a16 	blt	r2,zero,82310 <_putc_r+0x54>
   822e8:	30800017 	ldw	r2,0(r6)
   822ec:	11400005 	stb	r5,0(r2)
   822f0:	30800017 	ldw	r2,0(r6)
   822f4:	10c00044 	addi	r3,r2,1
   822f8:	30c00015 	stw	r3,0(r6)
   822fc:	10800003 	ldbu	r2,0(r2)
   82300:	dfc00317 	ldw	ra,12(sp)
   82304:	dc000217 	ldw	r16,8(sp)
   82308:	dec00404 	addi	sp,sp,16
   8230c:	f800283a 	ret
   82310:	30c00617 	ldw	r3,24(r6)
   82314:	10c00616 	blt	r2,r3,82330 <_putc_r+0x74>
   82318:	30800017 	ldw	r2,0(r6)
   8231c:	00c00284 	movi	r3,10
   82320:	11400005 	stb	r5,0(r2)
   82324:	30800017 	ldw	r2,0(r6)
   82328:	11400003 	ldbu	r5,0(r2)
   8232c:	28fff11e 	bne	r5,r3,822f4 <tx_descriptor+0xfff82294>
   82330:	8009883a 	mov	r4,r16
   82334:	dfc00317 	ldw	ra,12(sp)
   82338:	dc000217 	ldw	r16,8(sp)
   8233c:	dec00404 	addi	sp,sp,16
   82340:	00825441 	jmpi	82544 <__swbuf_r>
   82344:	d9400015 	stw	r5,0(sp)
   82348:	d9800115 	stw	r6,4(sp)
   8234c:	0082f780 	call	82f78 <__sinit>
   82350:	d9800117 	ldw	r6,4(sp)
   82354:	d9400017 	ldw	r5,0(sp)
   82358:	003fdf06 	br	822d8 <tx_descriptor+0xfff82278>

0008235c <putc>:
   8235c:	00800234 	movhi	r2,8
   82360:	defffc04 	addi	sp,sp,-16
   82364:	109b0a04 	addi	r2,r2,27688
   82368:	dc000115 	stw	r16,4(sp)
   8236c:	14000017 	ldw	r16,0(r2)
   82370:	dc400215 	stw	r17,8(sp)
   82374:	dfc00315 	stw	ra,12(sp)
   82378:	2023883a 	mov	r17,r4
   8237c:	80000226 	beq	r16,zero,82388 <putc+0x2c>
   82380:	80800e17 	ldw	r2,56(r16)
   82384:	10001a26 	beq	r2,zero,823f0 <putc+0x94>
   82388:	28800217 	ldw	r2,8(r5)
   8238c:	10bfffc4 	addi	r2,r2,-1
   82390:	28800215 	stw	r2,8(r5)
   82394:	10000b16 	blt	r2,zero,823c4 <putc+0x68>
   82398:	28800017 	ldw	r2,0(r5)
   8239c:	14400005 	stb	r17,0(r2)
   823a0:	28800017 	ldw	r2,0(r5)
   823a4:	10c00044 	addi	r3,r2,1
   823a8:	28c00015 	stw	r3,0(r5)
   823ac:	10800003 	ldbu	r2,0(r2)
   823b0:	dfc00317 	ldw	ra,12(sp)
   823b4:	dc400217 	ldw	r17,8(sp)
   823b8:	dc000117 	ldw	r16,4(sp)
   823bc:	dec00404 	addi	sp,sp,16
   823c0:	f800283a 	ret
   823c4:	28c00617 	ldw	r3,24(r5)
   823c8:	10c00e16 	blt	r2,r3,82404 <putc+0xa8>
   823cc:	28800017 	ldw	r2,0(r5)
   823d0:	01000284 	movi	r4,10
   823d4:	14400005 	stb	r17,0(r2)
   823d8:	28800017 	ldw	r2,0(r5)
   823dc:	10c00003 	ldbu	r3,0(r2)
   823e0:	193ff01e 	bne	r3,r4,823a4 <tx_descriptor+0xfff82344>
   823e4:	280d883a 	mov	r6,r5
   823e8:	180b883a 	mov	r5,r3
   823ec:	00000706 	br	8240c <putc+0xb0>
   823f0:	8009883a 	mov	r4,r16
   823f4:	d9400015 	stw	r5,0(sp)
   823f8:	0082f780 	call	82f78 <__sinit>
   823fc:	d9400017 	ldw	r5,0(sp)
   82400:	003fe106 	br	82388 <tx_descriptor+0xfff82328>
   82404:	280d883a 	mov	r6,r5
   82408:	880b883a 	mov	r5,r17
   8240c:	8009883a 	mov	r4,r16
   82410:	dfc00317 	ldw	ra,12(sp)
   82414:	dc400217 	ldw	r17,8(sp)
   82418:	dc000117 	ldw	r16,4(sp)
   8241c:	dec00404 	addi	sp,sp,16
   82420:	00825441 	jmpi	82544 <__swbuf_r>

00082424 <__srget_r>:
   82424:	defffd04 	addi	sp,sp,-12
   82428:	dc400115 	stw	r17,4(sp)
   8242c:	dc000015 	stw	r16,0(sp)
   82430:	dfc00215 	stw	ra,8(sp)
   82434:	2023883a 	mov	r17,r4
   82438:	2821883a 	mov	r16,r5
   8243c:	20000226 	beq	r4,zero,82448 <__srget_r+0x24>
   82440:	20800e17 	ldw	r2,56(r4)
   82444:	10001026 	beq	r2,zero,82488 <__srget_r+0x64>
   82448:	800b883a 	mov	r5,r16
   8244c:	8809883a 	mov	r4,r17
   82450:	00840900 	call	84090 <__srefill_r>
   82454:	10000e1e 	bne	r2,zero,82490 <__srget_r+0x6c>
   82458:	80c00017 	ldw	r3,0(r16)
   8245c:	80800117 	ldw	r2,4(r16)
   82460:	19000044 	addi	r4,r3,1
   82464:	10bfffc4 	addi	r2,r2,-1
   82468:	80800115 	stw	r2,4(r16)
   8246c:	81000015 	stw	r4,0(r16)
   82470:	18800003 	ldbu	r2,0(r3)
   82474:	dfc00217 	ldw	ra,8(sp)
   82478:	dc400117 	ldw	r17,4(sp)
   8247c:	dc000017 	ldw	r16,0(sp)
   82480:	dec00304 	addi	sp,sp,12
   82484:	f800283a 	ret
   82488:	0082f780 	call	82f78 <__sinit>
   8248c:	003fee06 	br	82448 <tx_descriptor+0xfff823e8>
   82490:	00bfffc4 	movi	r2,-1
   82494:	003ff706 	br	82474 <tx_descriptor+0xfff82414>

00082498 <__srget>:
   82498:	00800234 	movhi	r2,8
   8249c:	109b0a04 	addi	r2,r2,27688
   824a0:	200b883a 	mov	r5,r4
   824a4:	11000017 	ldw	r4,0(r2)
   824a8:	00824241 	jmpi	82424 <__srget_r>

000824ac <strlen>:
   824ac:	208000cc 	andi	r2,r4,3
   824b0:	10002026 	beq	r2,zero,82534 <strlen+0x88>
   824b4:	20800007 	ldb	r2,0(r4)
   824b8:	10002026 	beq	r2,zero,8253c <strlen+0x90>
   824bc:	2005883a 	mov	r2,r4
   824c0:	00000206 	br	824cc <strlen+0x20>
   824c4:	10c00007 	ldb	r3,0(r2)
   824c8:	18001826 	beq	r3,zero,8252c <strlen+0x80>
   824cc:	10800044 	addi	r2,r2,1
   824d0:	10c000cc 	andi	r3,r2,3
   824d4:	183ffb1e 	bne	r3,zero,824c4 <tx_descriptor+0xfff82464>
   824d8:	10c00017 	ldw	r3,0(r2)
   824dc:	01ffbff4 	movhi	r7,65279
   824e0:	39ffbfc4 	addi	r7,r7,-257
   824e4:	00ca303a 	nor	r5,zero,r3
   824e8:	01a02074 	movhi	r6,32897
   824ec:	19c7883a 	add	r3,r3,r7
   824f0:	31a02004 	addi	r6,r6,-32640
   824f4:	1946703a 	and	r3,r3,r5
   824f8:	1986703a 	and	r3,r3,r6
   824fc:	1800091e 	bne	r3,zero,82524 <strlen+0x78>
   82500:	10800104 	addi	r2,r2,4
   82504:	10c00017 	ldw	r3,0(r2)
   82508:	19cb883a 	add	r5,r3,r7
   8250c:	00c6303a 	nor	r3,zero,r3
   82510:	28c6703a 	and	r3,r5,r3
   82514:	1986703a 	and	r3,r3,r6
   82518:	183ff926 	beq	r3,zero,82500 <tx_descriptor+0xfff824a0>
   8251c:	00000106 	br	82524 <strlen+0x78>
   82520:	10800044 	addi	r2,r2,1
   82524:	10c00007 	ldb	r3,0(r2)
   82528:	183ffd1e 	bne	r3,zero,82520 <tx_descriptor+0xfff824c0>
   8252c:	1105c83a 	sub	r2,r2,r4
   82530:	f800283a 	ret
   82534:	2005883a 	mov	r2,r4
   82538:	003fe706 	br	824d8 <tx_descriptor+0xfff82478>
   8253c:	0005883a 	mov	r2,zero
   82540:	f800283a 	ret

00082544 <__swbuf_r>:
   82544:	defffb04 	addi	sp,sp,-20
   82548:	dcc00315 	stw	r19,12(sp)
   8254c:	dc800215 	stw	r18,8(sp)
   82550:	dc000015 	stw	r16,0(sp)
   82554:	dfc00415 	stw	ra,16(sp)
   82558:	dc400115 	stw	r17,4(sp)
   8255c:	2025883a 	mov	r18,r4
   82560:	2827883a 	mov	r19,r5
   82564:	3021883a 	mov	r16,r6
   82568:	20000226 	beq	r4,zero,82574 <__swbuf_r+0x30>
   8256c:	20800e17 	ldw	r2,56(r4)
   82570:	10004226 	beq	r2,zero,8267c <__swbuf_r+0x138>
   82574:	80800617 	ldw	r2,24(r16)
   82578:	8100030b 	ldhu	r4,12(r16)
   8257c:	80800215 	stw	r2,8(r16)
   82580:	2080020c 	andi	r2,r4,8
   82584:	10003626 	beq	r2,zero,82660 <__swbuf_r+0x11c>
   82588:	80c00417 	ldw	r3,16(r16)
   8258c:	18003426 	beq	r3,zero,82660 <__swbuf_r+0x11c>
   82590:	2088000c 	andi	r2,r4,8192
   82594:	9c403fcc 	andi	r17,r19,255
   82598:	10001a26 	beq	r2,zero,82604 <__swbuf_r+0xc0>
   8259c:	80800017 	ldw	r2,0(r16)
   825a0:	81000517 	ldw	r4,20(r16)
   825a4:	10c7c83a 	sub	r3,r2,r3
   825a8:	1900200e 	bge	r3,r4,8262c <__swbuf_r+0xe8>
   825ac:	18c00044 	addi	r3,r3,1
   825b0:	81000217 	ldw	r4,8(r16)
   825b4:	11400044 	addi	r5,r2,1
   825b8:	81400015 	stw	r5,0(r16)
   825bc:	213fffc4 	addi	r4,r4,-1
   825c0:	81000215 	stw	r4,8(r16)
   825c4:	14c00005 	stb	r19,0(r2)
   825c8:	80800517 	ldw	r2,20(r16)
   825cc:	10c01e26 	beq	r2,r3,82648 <__swbuf_r+0x104>
   825d0:	8080030b 	ldhu	r2,12(r16)
   825d4:	1080004c 	andi	r2,r2,1
   825d8:	10000226 	beq	r2,zero,825e4 <__swbuf_r+0xa0>
   825dc:	00800284 	movi	r2,10
   825e0:	88801926 	beq	r17,r2,82648 <__swbuf_r+0x104>
   825e4:	8805883a 	mov	r2,r17
   825e8:	dfc00417 	ldw	ra,16(sp)
   825ec:	dcc00317 	ldw	r19,12(sp)
   825f0:	dc800217 	ldw	r18,8(sp)
   825f4:	dc400117 	ldw	r17,4(sp)
   825f8:	dc000017 	ldw	r16,0(sp)
   825fc:	dec00504 	addi	sp,sp,20
   82600:	f800283a 	ret
   82604:	81401917 	ldw	r5,100(r16)
   82608:	00b7ffc4 	movi	r2,-8193
   8260c:	21080014 	ori	r4,r4,8192
   82610:	2884703a 	and	r2,r5,r2
   82614:	80801915 	stw	r2,100(r16)
   82618:	80800017 	ldw	r2,0(r16)
   8261c:	8100030d 	sth	r4,12(r16)
   82620:	81000517 	ldw	r4,20(r16)
   82624:	10c7c83a 	sub	r3,r2,r3
   82628:	193fe016 	blt	r3,r4,825ac <tx_descriptor+0xfff8254c>
   8262c:	800b883a 	mov	r5,r16
   82630:	9009883a 	mov	r4,r18
   82634:	0082b8c0 	call	82b8c <_fflush_r>
   82638:	1000071e 	bne	r2,zero,82658 <__swbuf_r+0x114>
   8263c:	80800017 	ldw	r2,0(r16)
   82640:	00c00044 	movi	r3,1
   82644:	003fda06 	br	825b0 <tx_descriptor+0xfff82550>
   82648:	800b883a 	mov	r5,r16
   8264c:	9009883a 	mov	r4,r18
   82650:	0082b8c0 	call	82b8c <_fflush_r>
   82654:	103fe326 	beq	r2,zero,825e4 <tx_descriptor+0xfff82584>
   82658:	00bfffc4 	movi	r2,-1
   8265c:	003fe206 	br	825e8 <tx_descriptor+0xfff82588>
   82660:	800b883a 	mov	r5,r16
   82664:	9009883a 	mov	r4,r18
   82668:	008269c0 	call	8269c <__swsetup_r>
   8266c:	103ffa1e 	bne	r2,zero,82658 <tx_descriptor+0xfff825f8>
   82670:	8100030b 	ldhu	r4,12(r16)
   82674:	80c00417 	ldw	r3,16(r16)
   82678:	003fc506 	br	82590 <tx_descriptor+0xfff82530>
   8267c:	0082f780 	call	82f78 <__sinit>
   82680:	003fbc06 	br	82574 <tx_descriptor+0xfff82514>

00082684 <__swbuf>:
   82684:	00800234 	movhi	r2,8
   82688:	109b0a04 	addi	r2,r2,27688
   8268c:	280d883a 	mov	r6,r5
   82690:	200b883a 	mov	r5,r4
   82694:	11000017 	ldw	r4,0(r2)
   82698:	00825441 	jmpi	82544 <__swbuf_r>

0008269c <__swsetup_r>:
   8269c:	00800234 	movhi	r2,8
   826a0:	defffd04 	addi	sp,sp,-12
   826a4:	109b0a04 	addi	r2,r2,27688
   826a8:	dc400115 	stw	r17,4(sp)
   826ac:	2023883a 	mov	r17,r4
   826b0:	11000017 	ldw	r4,0(r2)
   826b4:	dc000015 	stw	r16,0(sp)
   826b8:	dfc00215 	stw	ra,8(sp)
   826bc:	2821883a 	mov	r16,r5
   826c0:	20000226 	beq	r4,zero,826cc <__swsetup_r+0x30>
   826c4:	20800e17 	ldw	r2,56(r4)
   826c8:	10003126 	beq	r2,zero,82790 <__swsetup_r+0xf4>
   826cc:	8080030b 	ldhu	r2,12(r16)
   826d0:	10c0020c 	andi	r3,r2,8
   826d4:	1009883a 	mov	r4,r2
   826d8:	18000f26 	beq	r3,zero,82718 <__swsetup_r+0x7c>
   826dc:	80c00417 	ldw	r3,16(r16)
   826e0:	18001526 	beq	r3,zero,82738 <__swsetup_r+0x9c>
   826e4:	1100004c 	andi	r4,r2,1
   826e8:	20001c1e 	bne	r4,zero,8275c <__swsetup_r+0xc0>
   826ec:	1080008c 	andi	r2,r2,2
   826f0:	1000291e 	bne	r2,zero,82798 <__swsetup_r+0xfc>
   826f4:	80800517 	ldw	r2,20(r16)
   826f8:	80800215 	stw	r2,8(r16)
   826fc:	18001c26 	beq	r3,zero,82770 <__swsetup_r+0xd4>
   82700:	0005883a 	mov	r2,zero
   82704:	dfc00217 	ldw	ra,8(sp)
   82708:	dc400117 	ldw	r17,4(sp)
   8270c:	dc000017 	ldw	r16,0(sp)
   82710:	dec00304 	addi	sp,sp,12
   82714:	f800283a 	ret
   82718:	2080040c 	andi	r2,r4,16
   8271c:	10002e26 	beq	r2,zero,827d8 <__swsetup_r+0x13c>
   82720:	2080010c 	andi	r2,r4,4
   82724:	10001e1e 	bne	r2,zero,827a0 <__swsetup_r+0x104>
   82728:	80c00417 	ldw	r3,16(r16)
   8272c:	20800214 	ori	r2,r4,8
   82730:	8080030d 	sth	r2,12(r16)
   82734:	183feb1e 	bne	r3,zero,826e4 <tx_descriptor+0xfff82684>
   82738:	1100a00c 	andi	r4,r2,640
   8273c:	01408004 	movi	r5,512
   82740:	217fe826 	beq	r4,r5,826e4 <tx_descriptor+0xfff82684>
   82744:	800b883a 	mov	r5,r16
   82748:	8809883a 	mov	r4,r17
   8274c:	00835840 	call	83584 <__smakebuf_r>
   82750:	8080030b 	ldhu	r2,12(r16)
   82754:	80c00417 	ldw	r3,16(r16)
   82758:	003fe206 	br	826e4 <tx_descriptor+0xfff82684>
   8275c:	80800517 	ldw	r2,20(r16)
   82760:	80000215 	stw	zero,8(r16)
   82764:	0085c83a 	sub	r2,zero,r2
   82768:	80800615 	stw	r2,24(r16)
   8276c:	183fe41e 	bne	r3,zero,82700 <tx_descriptor+0xfff826a0>
   82770:	80c0030b 	ldhu	r3,12(r16)
   82774:	0005883a 	mov	r2,zero
   82778:	1900200c 	andi	r4,r3,128
   8277c:	203fe126 	beq	r4,zero,82704 <tx_descriptor+0xfff826a4>
   82780:	18c01014 	ori	r3,r3,64
   82784:	80c0030d 	sth	r3,12(r16)
   82788:	00bfffc4 	movi	r2,-1
   8278c:	003fdd06 	br	82704 <tx_descriptor+0xfff826a4>
   82790:	0082f780 	call	82f78 <__sinit>
   82794:	003fcd06 	br	826cc <tx_descriptor+0xfff8266c>
   82798:	0005883a 	mov	r2,zero
   8279c:	003fd606 	br	826f8 <tx_descriptor+0xfff82698>
   827a0:	81400c17 	ldw	r5,48(r16)
   827a4:	28000626 	beq	r5,zero,827c0 <__swsetup_r+0x124>
   827a8:	80801004 	addi	r2,r16,64
   827ac:	28800326 	beq	r5,r2,827bc <__swsetup_r+0x120>
   827b0:	8809883a 	mov	r4,r17
   827b4:	00830ec0 	call	830ec <_free_r>
   827b8:	8100030b 	ldhu	r4,12(r16)
   827bc:	80000c15 	stw	zero,48(r16)
   827c0:	80c00417 	ldw	r3,16(r16)
   827c4:	00bff6c4 	movi	r2,-37
   827c8:	1108703a 	and	r4,r2,r4
   827cc:	80000115 	stw	zero,4(r16)
   827d0:	80c00015 	stw	r3,0(r16)
   827d4:	003fd506 	br	8272c <tx_descriptor+0xfff826cc>
   827d8:	00800244 	movi	r2,9
   827dc:	88800015 	stw	r2,0(r17)
   827e0:	20801014 	ori	r2,r4,64
   827e4:	8080030d 	sth	r2,12(r16)
   827e8:	00bfffc4 	movi	r2,-1
   827ec:	003fc506 	br	82704 <tx_descriptor+0xfff826a4>

000827f0 <__call_exitprocs>:
   827f0:	defff504 	addi	sp,sp,-44
   827f4:	df000915 	stw	fp,36(sp)
   827f8:	dd400615 	stw	r21,24(sp)
   827fc:	dc800315 	stw	r18,12(sp)
   82800:	dfc00a15 	stw	ra,40(sp)
   82804:	ddc00815 	stw	r23,32(sp)
   82808:	dd800715 	stw	r22,28(sp)
   8280c:	dd000515 	stw	r20,20(sp)
   82810:	dcc00415 	stw	r19,16(sp)
   82814:	dc400215 	stw	r17,8(sp)
   82818:	dc000115 	stw	r16,4(sp)
   8281c:	d9000015 	stw	r4,0(sp)
   82820:	2839883a 	mov	fp,r5
   82824:	04800044 	movi	r18,1
   82828:	057fffc4 	movi	r21,-1
   8282c:	00800234 	movhi	r2,8
   82830:	109b0904 	addi	r2,r2,27684
   82834:	12000017 	ldw	r8,0(r2)
   82838:	45005217 	ldw	r20,328(r8)
   8283c:	44c05204 	addi	r19,r8,328
   82840:	a0001c26 	beq	r20,zero,828b4 <__call_exitprocs+0xc4>
   82844:	a0800117 	ldw	r2,4(r20)
   82848:	15ffffc4 	addi	r23,r2,-1
   8284c:	b8000d16 	blt	r23,zero,82884 <__call_exitprocs+0x94>
   82850:	14000044 	addi	r16,r2,1
   82854:	8421883a 	add	r16,r16,r16
   82858:	8421883a 	add	r16,r16,r16
   8285c:	84402004 	addi	r17,r16,128
   82860:	a463883a 	add	r17,r20,r17
   82864:	a421883a 	add	r16,r20,r16
   82868:	e0001e26 	beq	fp,zero,828e4 <__call_exitprocs+0xf4>
   8286c:	80804017 	ldw	r2,256(r16)
   82870:	e0801c26 	beq	fp,r2,828e4 <__call_exitprocs+0xf4>
   82874:	bdffffc4 	addi	r23,r23,-1
   82878:	843fff04 	addi	r16,r16,-4
   8287c:	8c7fff04 	addi	r17,r17,-4
   82880:	bd7ff91e 	bne	r23,r21,82868 <tx_descriptor+0xfff82808>
   82884:	00800034 	movhi	r2,0
   82888:	10800004 	addi	r2,r2,0
   8288c:	10000926 	beq	r2,zero,828b4 <__call_exitprocs+0xc4>
   82890:	a0800117 	ldw	r2,4(r20)
   82894:	1000301e 	bne	r2,zero,82958 <__call_exitprocs+0x168>
   82898:	a0800017 	ldw	r2,0(r20)
   8289c:	10003226 	beq	r2,zero,82968 <__call_exitprocs+0x178>
   828a0:	a009883a 	mov	r4,r20
   828a4:	98800015 	stw	r2,0(r19)
   828a8:	00000000 	call	0 <__alt_mem_main_memory-0x80000>
   828ac:	9d000017 	ldw	r20,0(r19)
   828b0:	a03fe41e 	bne	r20,zero,82844 <tx_descriptor+0xfff827e4>
   828b4:	dfc00a17 	ldw	ra,40(sp)
   828b8:	df000917 	ldw	fp,36(sp)
   828bc:	ddc00817 	ldw	r23,32(sp)
   828c0:	dd800717 	ldw	r22,28(sp)
   828c4:	dd400617 	ldw	r21,24(sp)
   828c8:	dd000517 	ldw	r20,20(sp)
   828cc:	dcc00417 	ldw	r19,16(sp)
   828d0:	dc800317 	ldw	r18,12(sp)
   828d4:	dc400217 	ldw	r17,8(sp)
   828d8:	dc000117 	ldw	r16,4(sp)
   828dc:	dec00b04 	addi	sp,sp,44
   828e0:	f800283a 	ret
   828e4:	a0800117 	ldw	r2,4(r20)
   828e8:	80c00017 	ldw	r3,0(r16)
   828ec:	10bfffc4 	addi	r2,r2,-1
   828f0:	15c01426 	beq	r2,r23,82944 <__call_exitprocs+0x154>
   828f4:	80000015 	stw	zero,0(r16)
   828f8:	183fde26 	beq	r3,zero,82874 <tx_descriptor+0xfff82814>
   828fc:	95c8983a 	sll	r4,r18,r23
   82900:	a0806217 	ldw	r2,392(r20)
   82904:	a5800117 	ldw	r22,4(r20)
   82908:	2084703a 	and	r2,r4,r2
   8290c:	10000b26 	beq	r2,zero,8293c <__call_exitprocs+0x14c>
   82910:	a0806317 	ldw	r2,396(r20)
   82914:	2088703a 	and	r4,r4,r2
   82918:	20000c1e 	bne	r4,zero,8294c <__call_exitprocs+0x15c>
   8291c:	89400017 	ldw	r5,0(r17)
   82920:	d9000017 	ldw	r4,0(sp)
   82924:	183ee83a 	callr	r3
   82928:	a0800117 	ldw	r2,4(r20)
   8292c:	15bfbf1e 	bne	r2,r22,8282c <tx_descriptor+0xfff827cc>
   82930:	98800017 	ldw	r2,0(r19)
   82934:	153fcf26 	beq	r2,r20,82874 <tx_descriptor+0xfff82814>
   82938:	003fbc06 	br	8282c <tx_descriptor+0xfff827cc>
   8293c:	183ee83a 	callr	r3
   82940:	003ff906 	br	82928 <tx_descriptor+0xfff828c8>
   82944:	a5c00115 	stw	r23,4(r20)
   82948:	003feb06 	br	828f8 <tx_descriptor+0xfff82898>
   8294c:	89000017 	ldw	r4,0(r17)
   82950:	183ee83a 	callr	r3
   82954:	003ff406 	br	82928 <tx_descriptor+0xfff828c8>
   82958:	a0800017 	ldw	r2,0(r20)
   8295c:	a027883a 	mov	r19,r20
   82960:	1029883a 	mov	r20,r2
   82964:	003fb606 	br	82840 <tx_descriptor+0xfff827e0>
   82968:	0005883a 	mov	r2,zero
   8296c:	003ffb06 	br	8295c <tx_descriptor+0xfff828fc>

00082970 <__sflush_r>:
   82970:	2880030b 	ldhu	r2,12(r5)
   82974:	defffb04 	addi	sp,sp,-20
   82978:	dcc00315 	stw	r19,12(sp)
   8297c:	dc400115 	stw	r17,4(sp)
   82980:	dfc00415 	stw	ra,16(sp)
   82984:	dc800215 	stw	r18,8(sp)
   82988:	dc000015 	stw	r16,0(sp)
   8298c:	10c0020c 	andi	r3,r2,8
   82990:	2823883a 	mov	r17,r5
   82994:	2027883a 	mov	r19,r4
   82998:	1800311e 	bne	r3,zero,82a60 <__sflush_r+0xf0>
   8299c:	28c00117 	ldw	r3,4(r5)
   829a0:	10820014 	ori	r2,r2,2048
   829a4:	2880030d 	sth	r2,12(r5)
   829a8:	00c04b0e 	bge	zero,r3,82ad8 <__sflush_r+0x168>
   829ac:	8a000a17 	ldw	r8,40(r17)
   829b0:	40002326 	beq	r8,zero,82a40 <__sflush_r+0xd0>
   829b4:	9c000017 	ldw	r16,0(r19)
   829b8:	10c4000c 	andi	r3,r2,4096
   829bc:	98000015 	stw	zero,0(r19)
   829c0:	18004826 	beq	r3,zero,82ae4 <__sflush_r+0x174>
   829c4:	89801417 	ldw	r6,80(r17)
   829c8:	10c0010c 	andi	r3,r2,4
   829cc:	18000626 	beq	r3,zero,829e8 <__sflush_r+0x78>
   829d0:	88c00117 	ldw	r3,4(r17)
   829d4:	88800c17 	ldw	r2,48(r17)
   829d8:	30cdc83a 	sub	r6,r6,r3
   829dc:	10000226 	beq	r2,zero,829e8 <__sflush_r+0x78>
   829e0:	88800f17 	ldw	r2,60(r17)
   829e4:	308dc83a 	sub	r6,r6,r2
   829e8:	89400717 	ldw	r5,28(r17)
   829ec:	000f883a 	mov	r7,zero
   829f0:	9809883a 	mov	r4,r19
   829f4:	403ee83a 	callr	r8
   829f8:	00ffffc4 	movi	r3,-1
   829fc:	10c04426 	beq	r2,r3,82b10 <__sflush_r+0x1a0>
   82a00:	88c0030b 	ldhu	r3,12(r17)
   82a04:	89000417 	ldw	r4,16(r17)
   82a08:	88000115 	stw	zero,4(r17)
   82a0c:	197dffcc 	andi	r5,r3,63487
   82a10:	8940030d 	sth	r5,12(r17)
   82a14:	89000015 	stw	r4,0(r17)
   82a18:	18c4000c 	andi	r3,r3,4096
   82a1c:	18002c1e 	bne	r3,zero,82ad0 <__sflush_r+0x160>
   82a20:	89400c17 	ldw	r5,48(r17)
   82a24:	9c000015 	stw	r16,0(r19)
   82a28:	28000526 	beq	r5,zero,82a40 <__sflush_r+0xd0>
   82a2c:	88801004 	addi	r2,r17,64
   82a30:	28800226 	beq	r5,r2,82a3c <__sflush_r+0xcc>
   82a34:	9809883a 	mov	r4,r19
   82a38:	00830ec0 	call	830ec <_free_r>
   82a3c:	88000c15 	stw	zero,48(r17)
   82a40:	0005883a 	mov	r2,zero
   82a44:	dfc00417 	ldw	ra,16(sp)
   82a48:	dcc00317 	ldw	r19,12(sp)
   82a4c:	dc800217 	ldw	r18,8(sp)
   82a50:	dc400117 	ldw	r17,4(sp)
   82a54:	dc000017 	ldw	r16,0(sp)
   82a58:	dec00504 	addi	sp,sp,20
   82a5c:	f800283a 	ret
   82a60:	2c800417 	ldw	r18,16(r5)
   82a64:	903ff626 	beq	r18,zero,82a40 <tx_descriptor+0xfff829e0>
   82a68:	2c000017 	ldw	r16,0(r5)
   82a6c:	108000cc 	andi	r2,r2,3
   82a70:	2c800015 	stw	r18,0(r5)
   82a74:	84a1c83a 	sub	r16,r16,r18
   82a78:	1000131e 	bne	r2,zero,82ac8 <__sflush_r+0x158>
   82a7c:	28800517 	ldw	r2,20(r5)
   82a80:	88800215 	stw	r2,8(r17)
   82a84:	04000316 	blt	zero,r16,82a94 <__sflush_r+0x124>
   82a88:	003fed06 	br	82a40 <tx_descriptor+0xfff829e0>
   82a8c:	90a5883a 	add	r18,r18,r2
   82a90:	043feb0e 	bge	zero,r16,82a40 <tx_descriptor+0xfff829e0>
   82a94:	88800917 	ldw	r2,36(r17)
   82a98:	89400717 	ldw	r5,28(r17)
   82a9c:	800f883a 	mov	r7,r16
   82aa0:	900d883a 	mov	r6,r18
   82aa4:	9809883a 	mov	r4,r19
   82aa8:	103ee83a 	callr	r2
   82aac:	80a1c83a 	sub	r16,r16,r2
   82ab0:	00bff616 	blt	zero,r2,82a8c <tx_descriptor+0xfff82a2c>
   82ab4:	88c0030b 	ldhu	r3,12(r17)
   82ab8:	00bfffc4 	movi	r2,-1
   82abc:	18c01014 	ori	r3,r3,64
   82ac0:	88c0030d 	sth	r3,12(r17)
   82ac4:	003fdf06 	br	82a44 <tx_descriptor+0xfff829e4>
   82ac8:	0005883a 	mov	r2,zero
   82acc:	003fec06 	br	82a80 <tx_descriptor+0xfff82a20>
   82ad0:	88801415 	stw	r2,80(r17)
   82ad4:	003fd206 	br	82a20 <tx_descriptor+0xfff829c0>
   82ad8:	28c00f17 	ldw	r3,60(r5)
   82adc:	00ffb316 	blt	zero,r3,829ac <tx_descriptor+0xfff8294c>
   82ae0:	003fd706 	br	82a40 <tx_descriptor+0xfff829e0>
   82ae4:	89400717 	ldw	r5,28(r17)
   82ae8:	000d883a 	mov	r6,zero
   82aec:	01c00044 	movi	r7,1
   82af0:	9809883a 	mov	r4,r19
   82af4:	403ee83a 	callr	r8
   82af8:	100d883a 	mov	r6,r2
   82afc:	00bfffc4 	movi	r2,-1
   82b00:	30801426 	beq	r6,r2,82b54 <__sflush_r+0x1e4>
   82b04:	8880030b 	ldhu	r2,12(r17)
   82b08:	8a000a17 	ldw	r8,40(r17)
   82b0c:	003fae06 	br	829c8 <tx_descriptor+0xfff82968>
   82b10:	98c00017 	ldw	r3,0(r19)
   82b14:	183fba26 	beq	r3,zero,82a00 <tx_descriptor+0xfff829a0>
   82b18:	01000744 	movi	r4,29
   82b1c:	19000626 	beq	r3,r4,82b38 <__sflush_r+0x1c8>
   82b20:	01000584 	movi	r4,22
   82b24:	19000426 	beq	r3,r4,82b38 <__sflush_r+0x1c8>
   82b28:	88c0030b 	ldhu	r3,12(r17)
   82b2c:	18c01014 	ori	r3,r3,64
   82b30:	88c0030d 	sth	r3,12(r17)
   82b34:	003fc306 	br	82a44 <tx_descriptor+0xfff829e4>
   82b38:	8880030b 	ldhu	r2,12(r17)
   82b3c:	88c00417 	ldw	r3,16(r17)
   82b40:	88000115 	stw	zero,4(r17)
   82b44:	10bdffcc 	andi	r2,r2,63487
   82b48:	8880030d 	sth	r2,12(r17)
   82b4c:	88c00015 	stw	r3,0(r17)
   82b50:	003fb306 	br	82a20 <tx_descriptor+0xfff829c0>
   82b54:	98800017 	ldw	r2,0(r19)
   82b58:	103fea26 	beq	r2,zero,82b04 <tx_descriptor+0xfff82aa4>
   82b5c:	00c00744 	movi	r3,29
   82b60:	10c00226 	beq	r2,r3,82b6c <__sflush_r+0x1fc>
   82b64:	00c00584 	movi	r3,22
   82b68:	10c0031e 	bne	r2,r3,82b78 <__sflush_r+0x208>
   82b6c:	9c000015 	stw	r16,0(r19)
   82b70:	0005883a 	mov	r2,zero
   82b74:	003fb306 	br	82a44 <tx_descriptor+0xfff829e4>
   82b78:	88c0030b 	ldhu	r3,12(r17)
   82b7c:	3005883a 	mov	r2,r6
   82b80:	18c01014 	ori	r3,r3,64
   82b84:	88c0030d 	sth	r3,12(r17)
   82b88:	003fae06 	br	82a44 <tx_descriptor+0xfff829e4>

00082b8c <_fflush_r>:
   82b8c:	defffd04 	addi	sp,sp,-12
   82b90:	dc000115 	stw	r16,4(sp)
   82b94:	dfc00215 	stw	ra,8(sp)
   82b98:	2021883a 	mov	r16,r4
   82b9c:	20000226 	beq	r4,zero,82ba8 <_fflush_r+0x1c>
   82ba0:	20800e17 	ldw	r2,56(r4)
   82ba4:	10000c26 	beq	r2,zero,82bd8 <_fflush_r+0x4c>
   82ba8:	2880030f 	ldh	r2,12(r5)
   82bac:	1000051e 	bne	r2,zero,82bc4 <_fflush_r+0x38>
   82bb0:	0005883a 	mov	r2,zero
   82bb4:	dfc00217 	ldw	ra,8(sp)
   82bb8:	dc000117 	ldw	r16,4(sp)
   82bbc:	dec00304 	addi	sp,sp,12
   82bc0:	f800283a 	ret
   82bc4:	8009883a 	mov	r4,r16
   82bc8:	dfc00217 	ldw	ra,8(sp)
   82bcc:	dc000117 	ldw	r16,4(sp)
   82bd0:	dec00304 	addi	sp,sp,12
   82bd4:	00829701 	jmpi	82970 <__sflush_r>
   82bd8:	d9400015 	stw	r5,0(sp)
   82bdc:	0082f780 	call	82f78 <__sinit>
   82be0:	d9400017 	ldw	r5,0(sp)
   82be4:	003ff006 	br	82ba8 <tx_descriptor+0xfff82b48>

00082be8 <fflush>:
   82be8:	20000526 	beq	r4,zero,82c00 <fflush+0x18>
   82bec:	00800234 	movhi	r2,8
   82bf0:	109b0a04 	addi	r2,r2,27688
   82bf4:	200b883a 	mov	r5,r4
   82bf8:	11000017 	ldw	r4,0(r2)
   82bfc:	0082b8c1 	jmpi	82b8c <_fflush_r>
   82c00:	00800234 	movhi	r2,8
   82c04:	109b0904 	addi	r2,r2,27684
   82c08:	11000017 	ldw	r4,0(r2)
   82c0c:	01400234 	movhi	r5,8
   82c10:	294ae304 	addi	r5,r5,11148
   82c14:	00834c01 	jmpi	834c0 <_fwalk_reent>

00082c18 <__fp_unlock>:
   82c18:	0005883a 	mov	r2,zero
   82c1c:	f800283a 	ret

00082c20 <_cleanup_r>:
   82c20:	01400234 	movhi	r5,8
   82c24:	29512a04 	addi	r5,r5,17576
   82c28:	00834c01 	jmpi	834c0 <_fwalk_reent>

00082c2c <__sinit.part.1>:
   82c2c:	defff704 	addi	sp,sp,-36
   82c30:	00c00234 	movhi	r3,8
   82c34:	dfc00815 	stw	ra,32(sp)
   82c38:	ddc00715 	stw	r23,28(sp)
   82c3c:	dd800615 	stw	r22,24(sp)
   82c40:	dd400515 	stw	r21,20(sp)
   82c44:	dd000415 	stw	r20,16(sp)
   82c48:	dcc00315 	stw	r19,12(sp)
   82c4c:	dc800215 	stw	r18,8(sp)
   82c50:	dc400115 	stw	r17,4(sp)
   82c54:	dc000015 	stw	r16,0(sp)
   82c58:	18cb0804 	addi	r3,r3,11296
   82c5c:	24000117 	ldw	r16,4(r4)
   82c60:	20c00f15 	stw	r3,60(r4)
   82c64:	2080bb04 	addi	r2,r4,748
   82c68:	00c000c4 	movi	r3,3
   82c6c:	20c0b915 	stw	r3,740(r4)
   82c70:	2080ba15 	stw	r2,744(r4)
   82c74:	2000b815 	stw	zero,736(r4)
   82c78:	05c00204 	movi	r23,8
   82c7c:	00800104 	movi	r2,4
   82c80:	2025883a 	mov	r18,r4
   82c84:	b80d883a 	mov	r6,r23
   82c88:	81001704 	addi	r4,r16,92
   82c8c:	000b883a 	mov	r5,zero
   82c90:	80000015 	stw	zero,0(r16)
   82c94:	80000115 	stw	zero,4(r16)
   82c98:	80000215 	stw	zero,8(r16)
   82c9c:	8080030d 	sth	r2,12(r16)
   82ca0:	80001915 	stw	zero,100(r16)
   82ca4:	8000038d 	sth	zero,14(r16)
   82ca8:	80000415 	stw	zero,16(r16)
   82cac:	80000515 	stw	zero,20(r16)
   82cb0:	80000615 	stw	zero,24(r16)
   82cb4:	0083f4c0 	call	83f4c <memset>
   82cb8:	05800234 	movhi	r22,8
   82cbc:	94400217 	ldw	r17,8(r18)
   82cc0:	05400234 	movhi	r21,8
   82cc4:	05000234 	movhi	r20,8
   82cc8:	04c00234 	movhi	r19,8
   82ccc:	b590ae04 	addi	r22,r22,17080
   82cd0:	ad50c504 	addi	r21,r21,17172
   82cd4:	a510e404 	addi	r20,r20,17296
   82cd8:	9cd0fb04 	addi	r19,r19,17388
   82cdc:	85800815 	stw	r22,32(r16)
   82ce0:	85400915 	stw	r21,36(r16)
   82ce4:	85000a15 	stw	r20,40(r16)
   82ce8:	84c00b15 	stw	r19,44(r16)
   82cec:	84000715 	stw	r16,28(r16)
   82cf0:	00800284 	movi	r2,10
   82cf4:	8880030d 	sth	r2,12(r17)
   82cf8:	00800044 	movi	r2,1
   82cfc:	b80d883a 	mov	r6,r23
   82d00:	89001704 	addi	r4,r17,92
   82d04:	000b883a 	mov	r5,zero
   82d08:	88000015 	stw	zero,0(r17)
   82d0c:	88000115 	stw	zero,4(r17)
   82d10:	88000215 	stw	zero,8(r17)
   82d14:	88001915 	stw	zero,100(r17)
   82d18:	8880038d 	sth	r2,14(r17)
   82d1c:	88000415 	stw	zero,16(r17)
   82d20:	88000515 	stw	zero,20(r17)
   82d24:	88000615 	stw	zero,24(r17)
   82d28:	0083f4c0 	call	83f4c <memset>
   82d2c:	94000317 	ldw	r16,12(r18)
   82d30:	00800484 	movi	r2,18
   82d34:	8c400715 	stw	r17,28(r17)
   82d38:	8d800815 	stw	r22,32(r17)
   82d3c:	8d400915 	stw	r21,36(r17)
   82d40:	8d000a15 	stw	r20,40(r17)
   82d44:	8cc00b15 	stw	r19,44(r17)
   82d48:	8080030d 	sth	r2,12(r16)
   82d4c:	00800084 	movi	r2,2
   82d50:	80000015 	stw	zero,0(r16)
   82d54:	80000115 	stw	zero,4(r16)
   82d58:	80000215 	stw	zero,8(r16)
   82d5c:	80001915 	stw	zero,100(r16)
   82d60:	8080038d 	sth	r2,14(r16)
   82d64:	80000415 	stw	zero,16(r16)
   82d68:	80000515 	stw	zero,20(r16)
   82d6c:	80000615 	stw	zero,24(r16)
   82d70:	b80d883a 	mov	r6,r23
   82d74:	000b883a 	mov	r5,zero
   82d78:	81001704 	addi	r4,r16,92
   82d7c:	0083f4c0 	call	83f4c <memset>
   82d80:	00800044 	movi	r2,1
   82d84:	84000715 	stw	r16,28(r16)
   82d88:	85800815 	stw	r22,32(r16)
   82d8c:	85400915 	stw	r21,36(r16)
   82d90:	85000a15 	stw	r20,40(r16)
   82d94:	84c00b15 	stw	r19,44(r16)
   82d98:	90800e15 	stw	r2,56(r18)
   82d9c:	dfc00817 	ldw	ra,32(sp)
   82da0:	ddc00717 	ldw	r23,28(sp)
   82da4:	dd800617 	ldw	r22,24(sp)
   82da8:	dd400517 	ldw	r21,20(sp)
   82dac:	dd000417 	ldw	r20,16(sp)
   82db0:	dcc00317 	ldw	r19,12(sp)
   82db4:	dc800217 	ldw	r18,8(sp)
   82db8:	dc400117 	ldw	r17,4(sp)
   82dbc:	dc000017 	ldw	r16,0(sp)
   82dc0:	dec00904 	addi	sp,sp,36
   82dc4:	f800283a 	ret

00082dc8 <__fp_lock>:
   82dc8:	0005883a 	mov	r2,zero
   82dcc:	f800283a 	ret

00082dd0 <__sfmoreglue>:
   82dd0:	defffc04 	addi	sp,sp,-16
   82dd4:	dc800215 	stw	r18,8(sp)
   82dd8:	2825883a 	mov	r18,r5
   82ddc:	dc000015 	stw	r16,0(sp)
   82de0:	01401a04 	movi	r5,104
   82de4:	2021883a 	mov	r16,r4
   82de8:	913fffc4 	addi	r4,r18,-1
   82dec:	dfc00315 	stw	ra,12(sp)
   82df0:	dc400115 	stw	r17,4(sp)
   82df4:	008471c0 	call	8471c <__mulsi3>
   82df8:	8009883a 	mov	r4,r16
   82dfc:	11401d04 	addi	r5,r2,116
   82e00:	1023883a 	mov	r17,r2
   82e04:	00837400 	call	83740 <_malloc_r>
   82e08:	1021883a 	mov	r16,r2
   82e0c:	10000726 	beq	r2,zero,82e2c <__sfmoreglue+0x5c>
   82e10:	11000304 	addi	r4,r2,12
   82e14:	10000015 	stw	zero,0(r2)
   82e18:	14800115 	stw	r18,4(r2)
   82e1c:	11000215 	stw	r4,8(r2)
   82e20:	89801a04 	addi	r6,r17,104
   82e24:	000b883a 	mov	r5,zero
   82e28:	0083f4c0 	call	83f4c <memset>
   82e2c:	8005883a 	mov	r2,r16
   82e30:	dfc00317 	ldw	ra,12(sp)
   82e34:	dc800217 	ldw	r18,8(sp)
   82e38:	dc400117 	ldw	r17,4(sp)
   82e3c:	dc000017 	ldw	r16,0(sp)
   82e40:	dec00404 	addi	sp,sp,16
   82e44:	f800283a 	ret

00082e48 <__sfp>:
   82e48:	defffb04 	addi	sp,sp,-20
   82e4c:	dc000015 	stw	r16,0(sp)
   82e50:	04000234 	movhi	r16,8
   82e54:	841b0904 	addi	r16,r16,27684
   82e58:	dcc00315 	stw	r19,12(sp)
   82e5c:	2027883a 	mov	r19,r4
   82e60:	81000017 	ldw	r4,0(r16)
   82e64:	dfc00415 	stw	ra,16(sp)
   82e68:	dc800215 	stw	r18,8(sp)
   82e6c:	20800e17 	ldw	r2,56(r4)
   82e70:	dc400115 	stw	r17,4(sp)
   82e74:	1000021e 	bne	r2,zero,82e80 <__sfp+0x38>
   82e78:	0082c2c0 	call	82c2c <__sinit.part.1>
   82e7c:	81000017 	ldw	r4,0(r16)
   82e80:	2480b804 	addi	r18,r4,736
   82e84:	047fffc4 	movi	r17,-1
   82e88:	91000117 	ldw	r4,4(r18)
   82e8c:	94000217 	ldw	r16,8(r18)
   82e90:	213fffc4 	addi	r4,r4,-1
   82e94:	20000a16 	blt	r4,zero,82ec0 <__sfp+0x78>
   82e98:	8080030f 	ldh	r2,12(r16)
   82e9c:	10000c26 	beq	r2,zero,82ed0 <__sfp+0x88>
   82ea0:	80c01d04 	addi	r3,r16,116
   82ea4:	00000206 	br	82eb0 <__sfp+0x68>
   82ea8:	18bfe60f 	ldh	r2,-104(r3)
   82eac:	10000826 	beq	r2,zero,82ed0 <__sfp+0x88>
   82eb0:	213fffc4 	addi	r4,r4,-1
   82eb4:	1c3ffd04 	addi	r16,r3,-12
   82eb8:	18c01a04 	addi	r3,r3,104
   82ebc:	247ffa1e 	bne	r4,r17,82ea8 <tx_descriptor+0xfff82e48>
   82ec0:	90800017 	ldw	r2,0(r18)
   82ec4:	10001d26 	beq	r2,zero,82f3c <__sfp+0xf4>
   82ec8:	1025883a 	mov	r18,r2
   82ecc:	003fee06 	br	82e88 <tx_descriptor+0xfff82e28>
   82ed0:	00bfffc4 	movi	r2,-1
   82ed4:	8080038d 	sth	r2,14(r16)
   82ed8:	00800044 	movi	r2,1
   82edc:	8080030d 	sth	r2,12(r16)
   82ee0:	80001915 	stw	zero,100(r16)
   82ee4:	80000015 	stw	zero,0(r16)
   82ee8:	80000215 	stw	zero,8(r16)
   82eec:	80000115 	stw	zero,4(r16)
   82ef0:	80000415 	stw	zero,16(r16)
   82ef4:	80000515 	stw	zero,20(r16)
   82ef8:	80000615 	stw	zero,24(r16)
   82efc:	01800204 	movi	r6,8
   82f00:	000b883a 	mov	r5,zero
   82f04:	81001704 	addi	r4,r16,92
   82f08:	0083f4c0 	call	83f4c <memset>
   82f0c:	8005883a 	mov	r2,r16
   82f10:	80000c15 	stw	zero,48(r16)
   82f14:	80000d15 	stw	zero,52(r16)
   82f18:	80001115 	stw	zero,68(r16)
   82f1c:	80001215 	stw	zero,72(r16)
   82f20:	dfc00417 	ldw	ra,16(sp)
   82f24:	dcc00317 	ldw	r19,12(sp)
   82f28:	dc800217 	ldw	r18,8(sp)
   82f2c:	dc400117 	ldw	r17,4(sp)
   82f30:	dc000017 	ldw	r16,0(sp)
   82f34:	dec00504 	addi	sp,sp,20
   82f38:	f800283a 	ret
   82f3c:	01400104 	movi	r5,4
   82f40:	9809883a 	mov	r4,r19
   82f44:	0082dd00 	call	82dd0 <__sfmoreglue>
   82f48:	90800015 	stw	r2,0(r18)
   82f4c:	103fde1e 	bne	r2,zero,82ec8 <tx_descriptor+0xfff82e68>
   82f50:	00800304 	movi	r2,12
   82f54:	98800015 	stw	r2,0(r19)
   82f58:	0005883a 	mov	r2,zero
   82f5c:	003ff006 	br	82f20 <tx_descriptor+0xfff82ec0>

00082f60 <_cleanup>:
   82f60:	00800234 	movhi	r2,8
   82f64:	109b0904 	addi	r2,r2,27684
   82f68:	11000017 	ldw	r4,0(r2)
   82f6c:	01400234 	movhi	r5,8
   82f70:	29512a04 	addi	r5,r5,17576
   82f74:	00834c01 	jmpi	834c0 <_fwalk_reent>

00082f78 <__sinit>:
   82f78:	20800e17 	ldw	r2,56(r4)
   82f7c:	10000126 	beq	r2,zero,82f84 <__sinit+0xc>
   82f80:	f800283a 	ret
   82f84:	0082c2c1 	jmpi	82c2c <__sinit.part.1>

00082f88 <__sfp_lock_acquire>:
   82f88:	f800283a 	ret

00082f8c <__sfp_lock_release>:
   82f8c:	f800283a 	ret

00082f90 <__sinit_lock_acquire>:
   82f90:	f800283a 	ret

00082f94 <__sinit_lock_release>:
   82f94:	f800283a 	ret

00082f98 <__fp_lock_all>:
   82f98:	00800234 	movhi	r2,8
   82f9c:	109b0a04 	addi	r2,r2,27688
   82fa0:	11000017 	ldw	r4,0(r2)
   82fa4:	01400234 	movhi	r5,8
   82fa8:	294b7204 	addi	r5,r5,11720
   82fac:	00833fc1 	jmpi	833fc <_fwalk>

00082fb0 <__fp_unlock_all>:
   82fb0:	00800234 	movhi	r2,8
   82fb4:	109b0a04 	addi	r2,r2,27688
   82fb8:	11000017 	ldw	r4,0(r2)
   82fbc:	01400234 	movhi	r5,8
   82fc0:	294b0604 	addi	r5,r5,11288
   82fc4:	00833fc1 	jmpi	833fc <_fwalk>

00082fc8 <_malloc_trim_r>:
   82fc8:	defffb04 	addi	sp,sp,-20
   82fcc:	dcc00315 	stw	r19,12(sp)
   82fd0:	04c00234 	movhi	r19,8
   82fd4:	dc800215 	stw	r18,8(sp)
   82fd8:	dc400115 	stw	r17,4(sp)
   82fdc:	dc000015 	stw	r16,0(sp)
   82fe0:	dfc00415 	stw	ra,16(sp)
   82fe4:	2821883a 	mov	r16,r5
   82fe8:	9cd9fc04 	addi	r19,r19,26608
   82fec:	2025883a 	mov	r18,r4
   82ff0:	00849840 	call	84984 <__malloc_lock>
   82ff4:	98800217 	ldw	r2,8(r19)
   82ff8:	14400117 	ldw	r17,4(r2)
   82ffc:	00bfff04 	movi	r2,-4
   83000:	88a2703a 	and	r17,r17,r2
   83004:	8c21c83a 	sub	r16,r17,r16
   83008:	8403fbc4 	addi	r16,r16,4079
   8300c:	8020d33a 	srli	r16,r16,12
   83010:	0083ffc4 	movi	r2,4095
   83014:	843fffc4 	addi	r16,r16,-1
   83018:	8020933a 	slli	r16,r16,12
   8301c:	1400060e 	bge	r2,r16,83038 <_malloc_trim_r+0x70>
   83020:	000b883a 	mov	r5,zero
   83024:	9009883a 	mov	r4,r18
   83028:	00842640 	call	84264 <_sbrk_r>
   8302c:	98c00217 	ldw	r3,8(r19)
   83030:	1c47883a 	add	r3,r3,r17
   83034:	10c00a26 	beq	r2,r3,83060 <_malloc_trim_r+0x98>
   83038:	9009883a 	mov	r4,r18
   8303c:	00849880 	call	84988 <__malloc_unlock>
   83040:	0005883a 	mov	r2,zero
   83044:	dfc00417 	ldw	ra,16(sp)
   83048:	dcc00317 	ldw	r19,12(sp)
   8304c:	dc800217 	ldw	r18,8(sp)
   83050:	dc400117 	ldw	r17,4(sp)
   83054:	dc000017 	ldw	r16,0(sp)
   83058:	dec00504 	addi	sp,sp,20
   8305c:	f800283a 	ret
   83060:	040bc83a 	sub	r5,zero,r16
   83064:	9009883a 	mov	r4,r18
   83068:	00842640 	call	84264 <_sbrk_r>
   8306c:	00ffffc4 	movi	r3,-1
   83070:	10c00d26 	beq	r2,r3,830a8 <_malloc_trim_r+0xe0>
   83074:	00c00274 	movhi	r3,9
   83078:	18e3d104 	addi	r3,r3,-28860
   8307c:	18800017 	ldw	r2,0(r3)
   83080:	99000217 	ldw	r4,8(r19)
   83084:	8c23c83a 	sub	r17,r17,r16
   83088:	8c400054 	ori	r17,r17,1
   8308c:	1421c83a 	sub	r16,r2,r16
   83090:	24400115 	stw	r17,4(r4)
   83094:	9009883a 	mov	r4,r18
   83098:	1c000015 	stw	r16,0(r3)
   8309c:	00849880 	call	84988 <__malloc_unlock>
   830a0:	00800044 	movi	r2,1
   830a4:	003fe706 	br	83044 <tx_descriptor+0xfff82fe4>
   830a8:	000b883a 	mov	r5,zero
   830ac:	9009883a 	mov	r4,r18
   830b0:	00842640 	call	84264 <_sbrk_r>
   830b4:	99000217 	ldw	r4,8(r19)
   830b8:	014003c4 	movi	r5,15
   830bc:	1107c83a 	sub	r3,r2,r4
   830c0:	28ffdd0e 	bge	r5,r3,83038 <tx_descriptor+0xfff82fd8>
   830c4:	01400234 	movhi	r5,8
   830c8:	295b0b04 	addi	r5,r5,27692
   830cc:	29400017 	ldw	r5,0(r5)
   830d0:	18c00054 	ori	r3,r3,1
   830d4:	20c00115 	stw	r3,4(r4)
   830d8:	00c00274 	movhi	r3,9
   830dc:	1145c83a 	sub	r2,r2,r5
   830e0:	18e3d104 	addi	r3,r3,-28860
   830e4:	18800015 	stw	r2,0(r3)
   830e8:	003fd306 	br	83038 <tx_descriptor+0xfff82fd8>

000830ec <_free_r>:
   830ec:	28004126 	beq	r5,zero,831f4 <_free_r+0x108>
   830f0:	defffd04 	addi	sp,sp,-12
   830f4:	dc400115 	stw	r17,4(sp)
   830f8:	dc000015 	stw	r16,0(sp)
   830fc:	2023883a 	mov	r17,r4
   83100:	2821883a 	mov	r16,r5
   83104:	dfc00215 	stw	ra,8(sp)
   83108:	00849840 	call	84984 <__malloc_lock>
   8310c:	81ffff17 	ldw	r7,-4(r16)
   83110:	00bfff84 	movi	r2,-2
   83114:	01000234 	movhi	r4,8
   83118:	81bffe04 	addi	r6,r16,-8
   8311c:	3884703a 	and	r2,r7,r2
   83120:	2119fc04 	addi	r4,r4,26608
   83124:	308b883a 	add	r5,r6,r2
   83128:	2a400117 	ldw	r9,4(r5)
   8312c:	22000217 	ldw	r8,8(r4)
   83130:	00ffff04 	movi	r3,-4
   83134:	48c6703a 	and	r3,r9,r3
   83138:	2a005726 	beq	r5,r8,83298 <_free_r+0x1ac>
   8313c:	28c00115 	stw	r3,4(r5)
   83140:	39c0004c 	andi	r7,r7,1
   83144:	3800091e 	bne	r7,zero,8316c <_free_r+0x80>
   83148:	823ffe17 	ldw	r8,-8(r16)
   8314c:	22400204 	addi	r9,r4,8
   83150:	320dc83a 	sub	r6,r6,r8
   83154:	31c00217 	ldw	r7,8(r6)
   83158:	1205883a 	add	r2,r2,r8
   8315c:	3a406526 	beq	r7,r9,832f4 <_free_r+0x208>
   83160:	32000317 	ldw	r8,12(r6)
   83164:	3a000315 	stw	r8,12(r7)
   83168:	41c00215 	stw	r7,8(r8)
   8316c:	28cf883a 	add	r7,r5,r3
   83170:	39c00117 	ldw	r7,4(r7)
   83174:	39c0004c 	andi	r7,r7,1
   83178:	38003a26 	beq	r7,zero,83264 <_free_r+0x178>
   8317c:	10c00054 	ori	r3,r2,1
   83180:	30c00115 	stw	r3,4(r6)
   83184:	3087883a 	add	r3,r6,r2
   83188:	18800015 	stw	r2,0(r3)
   8318c:	00c07fc4 	movi	r3,511
   83190:	18801936 	bltu	r3,r2,831f8 <_free_r+0x10c>
   83194:	1004d0fa 	srli	r2,r2,3
   83198:	01c00044 	movi	r7,1
   8319c:	21400117 	ldw	r5,4(r4)
   831a0:	10c00044 	addi	r3,r2,1
   831a4:	18c7883a 	add	r3,r3,r3
   831a8:	1005d0ba 	srai	r2,r2,2
   831ac:	18c7883a 	add	r3,r3,r3
   831b0:	18c7883a 	add	r3,r3,r3
   831b4:	1907883a 	add	r3,r3,r4
   831b8:	3884983a 	sll	r2,r7,r2
   831bc:	19c00017 	ldw	r7,0(r3)
   831c0:	1a3ffe04 	addi	r8,r3,-8
   831c4:	1144b03a 	or	r2,r2,r5
   831c8:	32000315 	stw	r8,12(r6)
   831cc:	31c00215 	stw	r7,8(r6)
   831d0:	20800115 	stw	r2,4(r4)
   831d4:	19800015 	stw	r6,0(r3)
   831d8:	39800315 	stw	r6,12(r7)
   831dc:	8809883a 	mov	r4,r17
   831e0:	dfc00217 	ldw	ra,8(sp)
   831e4:	dc400117 	ldw	r17,4(sp)
   831e8:	dc000017 	ldw	r16,0(sp)
   831ec:	dec00304 	addi	sp,sp,12
   831f0:	00849881 	jmpi	84988 <__malloc_unlock>
   831f4:	f800283a 	ret
   831f8:	100ad27a 	srli	r5,r2,9
   831fc:	00c00104 	movi	r3,4
   83200:	19404a36 	bltu	r3,r5,8332c <_free_r+0x240>
   83204:	100ad1ba 	srli	r5,r2,6
   83208:	28c00e44 	addi	r3,r5,57
   8320c:	18c7883a 	add	r3,r3,r3
   83210:	29400e04 	addi	r5,r5,56
   83214:	18c7883a 	add	r3,r3,r3
   83218:	18c7883a 	add	r3,r3,r3
   8321c:	1909883a 	add	r4,r3,r4
   83220:	20c00017 	ldw	r3,0(r4)
   83224:	01c00234 	movhi	r7,8
   83228:	213ffe04 	addi	r4,r4,-8
   8322c:	39d9fc04 	addi	r7,r7,26608
   83230:	20c04426 	beq	r4,r3,83344 <_free_r+0x258>
   83234:	01ffff04 	movi	r7,-4
   83238:	19400117 	ldw	r5,4(r3)
   8323c:	29ca703a 	and	r5,r5,r7
   83240:	1140022e 	bgeu	r2,r5,8324c <_free_r+0x160>
   83244:	18c00217 	ldw	r3,8(r3)
   83248:	20fffb1e 	bne	r4,r3,83238 <tx_descriptor+0xfff831d8>
   8324c:	19000317 	ldw	r4,12(r3)
   83250:	31000315 	stw	r4,12(r6)
   83254:	30c00215 	stw	r3,8(r6)
   83258:	21800215 	stw	r6,8(r4)
   8325c:	19800315 	stw	r6,12(r3)
   83260:	003fde06 	br	831dc <tx_descriptor+0xfff8317c>
   83264:	29c00217 	ldw	r7,8(r5)
   83268:	10c5883a 	add	r2,r2,r3
   8326c:	00c00234 	movhi	r3,8
   83270:	18d9fe04 	addi	r3,r3,26616
   83274:	38c03b26 	beq	r7,r3,83364 <_free_r+0x278>
   83278:	2a000317 	ldw	r8,12(r5)
   8327c:	11400054 	ori	r5,r2,1
   83280:	3087883a 	add	r3,r6,r2
   83284:	3a000315 	stw	r8,12(r7)
   83288:	41c00215 	stw	r7,8(r8)
   8328c:	31400115 	stw	r5,4(r6)
   83290:	18800015 	stw	r2,0(r3)
   83294:	003fbd06 	br	8318c <tx_descriptor+0xfff8312c>
   83298:	39c0004c 	andi	r7,r7,1
   8329c:	10c5883a 	add	r2,r2,r3
   832a0:	3800071e 	bne	r7,zero,832c0 <_free_r+0x1d4>
   832a4:	81fffe17 	ldw	r7,-8(r16)
   832a8:	31cdc83a 	sub	r6,r6,r7
   832ac:	30c00317 	ldw	r3,12(r6)
   832b0:	31400217 	ldw	r5,8(r6)
   832b4:	11c5883a 	add	r2,r2,r7
   832b8:	28c00315 	stw	r3,12(r5)
   832bc:	19400215 	stw	r5,8(r3)
   832c0:	10c00054 	ori	r3,r2,1
   832c4:	30c00115 	stw	r3,4(r6)
   832c8:	00c00234 	movhi	r3,8
   832cc:	18db0c04 	addi	r3,r3,27696
   832d0:	18c00017 	ldw	r3,0(r3)
   832d4:	21800215 	stw	r6,8(r4)
   832d8:	10ffc036 	bltu	r2,r3,831dc <tx_descriptor+0xfff8317c>
   832dc:	00800274 	movhi	r2,9
   832e0:	10a2d004 	addi	r2,r2,-29888
   832e4:	11400017 	ldw	r5,0(r2)
   832e8:	8809883a 	mov	r4,r17
   832ec:	0082fc80 	call	82fc8 <_malloc_trim_r>
   832f0:	003fba06 	br	831dc <tx_descriptor+0xfff8317c>
   832f4:	28c9883a 	add	r4,r5,r3
   832f8:	21000117 	ldw	r4,4(r4)
   832fc:	2100004c 	andi	r4,r4,1
   83300:	2000391e 	bne	r4,zero,833e8 <_free_r+0x2fc>
   83304:	29c00217 	ldw	r7,8(r5)
   83308:	29000317 	ldw	r4,12(r5)
   8330c:	1885883a 	add	r2,r3,r2
   83310:	10c00054 	ori	r3,r2,1
   83314:	39000315 	stw	r4,12(r7)
   83318:	21c00215 	stw	r7,8(r4)
   8331c:	30c00115 	stw	r3,4(r6)
   83320:	308d883a 	add	r6,r6,r2
   83324:	30800015 	stw	r2,0(r6)
   83328:	003fac06 	br	831dc <tx_descriptor+0xfff8317c>
   8332c:	00c00504 	movi	r3,20
   83330:	19401536 	bltu	r3,r5,83388 <_free_r+0x29c>
   83334:	28c01704 	addi	r3,r5,92
   83338:	18c7883a 	add	r3,r3,r3
   8333c:	294016c4 	addi	r5,r5,91
   83340:	003fb406 	br	83214 <tx_descriptor+0xfff831b4>
   83344:	280bd0ba 	srai	r5,r5,2
   83348:	00c00044 	movi	r3,1
   8334c:	38800117 	ldw	r2,4(r7)
   83350:	194a983a 	sll	r5,r3,r5
   83354:	2007883a 	mov	r3,r4
   83358:	2884b03a 	or	r2,r5,r2
   8335c:	38800115 	stw	r2,4(r7)
   83360:	003fbb06 	br	83250 <tx_descriptor+0xfff831f0>
   83364:	21800515 	stw	r6,20(r4)
   83368:	21800415 	stw	r6,16(r4)
   8336c:	10c00054 	ori	r3,r2,1
   83370:	31c00315 	stw	r7,12(r6)
   83374:	31c00215 	stw	r7,8(r6)
   83378:	30c00115 	stw	r3,4(r6)
   8337c:	308d883a 	add	r6,r6,r2
   83380:	30800015 	stw	r2,0(r6)
   83384:	003f9506 	br	831dc <tx_descriptor+0xfff8317c>
   83388:	00c01504 	movi	r3,84
   8338c:	19400536 	bltu	r3,r5,833a4 <_free_r+0x2b8>
   83390:	100ad33a 	srli	r5,r2,12
   83394:	28c01bc4 	addi	r3,r5,111
   83398:	18c7883a 	add	r3,r3,r3
   8339c:	29401b84 	addi	r5,r5,110
   833a0:	003f9c06 	br	83214 <tx_descriptor+0xfff831b4>
   833a4:	00c05504 	movi	r3,340
   833a8:	19400536 	bltu	r3,r5,833c0 <_free_r+0x2d4>
   833ac:	100ad3fa 	srli	r5,r2,15
   833b0:	28c01e04 	addi	r3,r5,120
   833b4:	18c7883a 	add	r3,r3,r3
   833b8:	29401dc4 	addi	r5,r5,119
   833bc:	003f9506 	br	83214 <tx_descriptor+0xfff831b4>
   833c0:	00c15504 	movi	r3,1364
   833c4:	19400536 	bltu	r3,r5,833dc <_free_r+0x2f0>
   833c8:	100ad4ba 	srli	r5,r2,18
   833cc:	28c01f44 	addi	r3,r5,125
   833d0:	18c7883a 	add	r3,r3,r3
   833d4:	29401f04 	addi	r5,r5,124
   833d8:	003f8e06 	br	83214 <tx_descriptor+0xfff831b4>
   833dc:	00c03f84 	movi	r3,254
   833e0:	01401f84 	movi	r5,126
   833e4:	003f8b06 	br	83214 <tx_descriptor+0xfff831b4>
   833e8:	10c00054 	ori	r3,r2,1
   833ec:	30c00115 	stw	r3,4(r6)
   833f0:	308d883a 	add	r6,r6,r2
   833f4:	30800015 	stw	r2,0(r6)
   833f8:	003f7806 	br	831dc <tx_descriptor+0xfff8317c>

000833fc <_fwalk>:
   833fc:	defff704 	addi	sp,sp,-36
   83400:	dd000415 	stw	r20,16(sp)
   83404:	dfc00815 	stw	ra,32(sp)
   83408:	ddc00715 	stw	r23,28(sp)
   8340c:	dd800615 	stw	r22,24(sp)
   83410:	dd400515 	stw	r21,20(sp)
   83414:	dcc00315 	stw	r19,12(sp)
   83418:	dc800215 	stw	r18,8(sp)
   8341c:	dc400115 	stw	r17,4(sp)
   83420:	dc000015 	stw	r16,0(sp)
   83424:	2500b804 	addi	r20,r4,736
   83428:	a0002326 	beq	r20,zero,834b8 <_fwalk+0xbc>
   8342c:	282b883a 	mov	r21,r5
   83430:	002f883a 	mov	r23,zero
   83434:	05800044 	movi	r22,1
   83438:	04ffffc4 	movi	r19,-1
   8343c:	a4400117 	ldw	r17,4(r20)
   83440:	a4800217 	ldw	r18,8(r20)
   83444:	8c7fffc4 	addi	r17,r17,-1
   83448:	88000d16 	blt	r17,zero,83480 <_fwalk+0x84>
   8344c:	94000304 	addi	r16,r18,12
   83450:	94800384 	addi	r18,r18,14
   83454:	8080000b 	ldhu	r2,0(r16)
   83458:	8c7fffc4 	addi	r17,r17,-1
   8345c:	813ffd04 	addi	r4,r16,-12
   83460:	b080042e 	bgeu	r22,r2,83474 <_fwalk+0x78>
   83464:	9080000f 	ldh	r2,0(r18)
   83468:	14c00226 	beq	r2,r19,83474 <_fwalk+0x78>
   8346c:	a83ee83a 	callr	r21
   83470:	b8aeb03a 	or	r23,r23,r2
   83474:	84001a04 	addi	r16,r16,104
   83478:	94801a04 	addi	r18,r18,104
   8347c:	8cfff51e 	bne	r17,r19,83454 <tx_descriptor+0xfff833f4>
   83480:	a5000017 	ldw	r20,0(r20)
   83484:	a03fed1e 	bne	r20,zero,8343c <tx_descriptor+0xfff833dc>
   83488:	b805883a 	mov	r2,r23
   8348c:	dfc00817 	ldw	ra,32(sp)
   83490:	ddc00717 	ldw	r23,28(sp)
   83494:	dd800617 	ldw	r22,24(sp)
   83498:	dd400517 	ldw	r21,20(sp)
   8349c:	dd000417 	ldw	r20,16(sp)
   834a0:	dcc00317 	ldw	r19,12(sp)
   834a4:	dc800217 	ldw	r18,8(sp)
   834a8:	dc400117 	ldw	r17,4(sp)
   834ac:	dc000017 	ldw	r16,0(sp)
   834b0:	dec00904 	addi	sp,sp,36
   834b4:	f800283a 	ret
   834b8:	002f883a 	mov	r23,zero
   834bc:	003ff206 	br	83488 <tx_descriptor+0xfff83428>

000834c0 <_fwalk_reent>:
   834c0:	defff704 	addi	sp,sp,-36
   834c4:	dd000415 	stw	r20,16(sp)
   834c8:	dfc00815 	stw	ra,32(sp)
   834cc:	ddc00715 	stw	r23,28(sp)
   834d0:	dd800615 	stw	r22,24(sp)
   834d4:	dd400515 	stw	r21,20(sp)
   834d8:	dcc00315 	stw	r19,12(sp)
   834dc:	dc800215 	stw	r18,8(sp)
   834e0:	dc400115 	stw	r17,4(sp)
   834e4:	dc000015 	stw	r16,0(sp)
   834e8:	2500b804 	addi	r20,r4,736
   834ec:	a0002326 	beq	r20,zero,8357c <_fwalk_reent+0xbc>
   834f0:	282b883a 	mov	r21,r5
   834f4:	2027883a 	mov	r19,r4
   834f8:	002f883a 	mov	r23,zero
   834fc:	05800044 	movi	r22,1
   83500:	04bfffc4 	movi	r18,-1
   83504:	a4400117 	ldw	r17,4(r20)
   83508:	a4000217 	ldw	r16,8(r20)
   8350c:	8c7fffc4 	addi	r17,r17,-1
   83510:	88000c16 	blt	r17,zero,83544 <_fwalk_reent+0x84>
   83514:	84000304 	addi	r16,r16,12
   83518:	8080000b 	ldhu	r2,0(r16)
   8351c:	8c7fffc4 	addi	r17,r17,-1
   83520:	817ffd04 	addi	r5,r16,-12
   83524:	b080052e 	bgeu	r22,r2,8353c <_fwalk_reent+0x7c>
   83528:	8080008f 	ldh	r2,2(r16)
   8352c:	9809883a 	mov	r4,r19
   83530:	14800226 	beq	r2,r18,8353c <_fwalk_reent+0x7c>
   83534:	a83ee83a 	callr	r21
   83538:	b8aeb03a 	or	r23,r23,r2
   8353c:	84001a04 	addi	r16,r16,104
   83540:	8cbff51e 	bne	r17,r18,83518 <tx_descriptor+0xfff834b8>
   83544:	a5000017 	ldw	r20,0(r20)
   83548:	a03fee1e 	bne	r20,zero,83504 <tx_descriptor+0xfff834a4>
   8354c:	b805883a 	mov	r2,r23
   83550:	dfc00817 	ldw	ra,32(sp)
   83554:	ddc00717 	ldw	r23,28(sp)
   83558:	dd800617 	ldw	r22,24(sp)
   8355c:	dd400517 	ldw	r21,20(sp)
   83560:	dd000417 	ldw	r20,16(sp)
   83564:	dcc00317 	ldw	r19,12(sp)
   83568:	dc800217 	ldw	r18,8(sp)
   8356c:	dc400117 	ldw	r17,4(sp)
   83570:	dc000017 	ldw	r16,0(sp)
   83574:	dec00904 	addi	sp,sp,36
   83578:	f800283a 	ret
   8357c:	002f883a 	mov	r23,zero
   83580:	003ff206 	br	8354c <tx_descriptor+0xfff834ec>

00083584 <__smakebuf_r>:
   83584:	2880030b 	ldhu	r2,12(r5)
   83588:	10c0008c 	andi	r3,r2,2
   8358c:	1800411e 	bne	r3,zero,83694 <__smakebuf_r+0x110>
   83590:	deffec04 	addi	sp,sp,-80
   83594:	dc000f15 	stw	r16,60(sp)
   83598:	2821883a 	mov	r16,r5
   8359c:	2940038f 	ldh	r5,14(r5)
   835a0:	dc401015 	stw	r17,64(sp)
   835a4:	dfc01315 	stw	ra,76(sp)
   835a8:	dcc01215 	stw	r19,72(sp)
   835ac:	dc801115 	stw	r18,68(sp)
   835b0:	2023883a 	mov	r17,r4
   835b4:	28001c16 	blt	r5,zero,83628 <__smakebuf_r+0xa4>
   835b8:	d80d883a 	mov	r6,sp
   835bc:	00845ac0 	call	845ac <_fstat_r>
   835c0:	10001816 	blt	r2,zero,83624 <__smakebuf_r+0xa0>
   835c4:	d8800117 	ldw	r2,4(sp)
   835c8:	00e00014 	movui	r3,32768
   835cc:	10bc000c 	andi	r2,r2,61440
   835d0:	14c80020 	cmpeqi	r19,r2,8192
   835d4:	10c03726 	beq	r2,r3,836b4 <__smakebuf_r+0x130>
   835d8:	80c0030b 	ldhu	r3,12(r16)
   835dc:	18c20014 	ori	r3,r3,2048
   835e0:	80c0030d 	sth	r3,12(r16)
   835e4:	00c80004 	movi	r3,8192
   835e8:	10c0521e 	bne	r2,r3,83734 <__smakebuf_r+0x1b0>
   835ec:	8140038f 	ldh	r5,14(r16)
   835f0:	8809883a 	mov	r4,r17
   835f4:	00846080 	call	84608 <_isatty_r>
   835f8:	10004c26 	beq	r2,zero,8372c <__smakebuf_r+0x1a8>
   835fc:	8080030b 	ldhu	r2,12(r16)
   83600:	80c010c4 	addi	r3,r16,67
   83604:	80c00015 	stw	r3,0(r16)
   83608:	10800054 	ori	r2,r2,1
   8360c:	8080030d 	sth	r2,12(r16)
   83610:	00800044 	movi	r2,1
   83614:	80c00415 	stw	r3,16(r16)
   83618:	80800515 	stw	r2,20(r16)
   8361c:	04810004 	movi	r18,1024
   83620:	00000706 	br	83640 <__smakebuf_r+0xbc>
   83624:	8080030b 	ldhu	r2,12(r16)
   83628:	10c0200c 	andi	r3,r2,128
   8362c:	18001f1e 	bne	r3,zero,836ac <__smakebuf_r+0x128>
   83630:	04810004 	movi	r18,1024
   83634:	10820014 	ori	r2,r2,2048
   83638:	8080030d 	sth	r2,12(r16)
   8363c:	0027883a 	mov	r19,zero
   83640:	900b883a 	mov	r5,r18
   83644:	8809883a 	mov	r4,r17
   83648:	00837400 	call	83740 <_malloc_r>
   8364c:	10002c26 	beq	r2,zero,83700 <__smakebuf_r+0x17c>
   83650:	80c0030b 	ldhu	r3,12(r16)
   83654:	01000234 	movhi	r4,8
   83658:	210b0804 	addi	r4,r4,11296
   8365c:	89000f15 	stw	r4,60(r17)
   83660:	18c02014 	ori	r3,r3,128
   83664:	80c0030d 	sth	r3,12(r16)
   83668:	80800015 	stw	r2,0(r16)
   8366c:	80800415 	stw	r2,16(r16)
   83670:	84800515 	stw	r18,20(r16)
   83674:	98001a1e 	bne	r19,zero,836e0 <__smakebuf_r+0x15c>
   83678:	dfc01317 	ldw	ra,76(sp)
   8367c:	dcc01217 	ldw	r19,72(sp)
   83680:	dc801117 	ldw	r18,68(sp)
   83684:	dc401017 	ldw	r17,64(sp)
   83688:	dc000f17 	ldw	r16,60(sp)
   8368c:	dec01404 	addi	sp,sp,80
   83690:	f800283a 	ret
   83694:	288010c4 	addi	r2,r5,67
   83698:	28800015 	stw	r2,0(r5)
   8369c:	28800415 	stw	r2,16(r5)
   836a0:	00800044 	movi	r2,1
   836a4:	28800515 	stw	r2,20(r5)
   836a8:	f800283a 	ret
   836ac:	04801004 	movi	r18,64
   836b0:	003fe006 	br	83634 <tx_descriptor+0xfff835d4>
   836b4:	81000a17 	ldw	r4,40(r16)
   836b8:	00c00234 	movhi	r3,8
   836bc:	18d0e404 	addi	r3,r3,17296
   836c0:	20ffc51e 	bne	r4,r3,835d8 <tx_descriptor+0xfff83578>
   836c4:	8080030b 	ldhu	r2,12(r16)
   836c8:	04810004 	movi	r18,1024
   836cc:	84801315 	stw	r18,76(r16)
   836d0:	1484b03a 	or	r2,r2,r18
   836d4:	8080030d 	sth	r2,12(r16)
   836d8:	0027883a 	mov	r19,zero
   836dc:	003fd806 	br	83640 <tx_descriptor+0xfff835e0>
   836e0:	8140038f 	ldh	r5,14(r16)
   836e4:	8809883a 	mov	r4,r17
   836e8:	00846080 	call	84608 <_isatty_r>
   836ec:	103fe226 	beq	r2,zero,83678 <tx_descriptor+0xfff83618>
   836f0:	8080030b 	ldhu	r2,12(r16)
   836f4:	10800054 	ori	r2,r2,1
   836f8:	8080030d 	sth	r2,12(r16)
   836fc:	003fde06 	br	83678 <tx_descriptor+0xfff83618>
   83700:	8080030b 	ldhu	r2,12(r16)
   83704:	10c0800c 	andi	r3,r2,512
   83708:	183fdb1e 	bne	r3,zero,83678 <tx_descriptor+0xfff83618>
   8370c:	10800094 	ori	r2,r2,2
   83710:	80c010c4 	addi	r3,r16,67
   83714:	8080030d 	sth	r2,12(r16)
   83718:	00800044 	movi	r2,1
   8371c:	80c00015 	stw	r3,0(r16)
   83720:	80c00415 	stw	r3,16(r16)
   83724:	80800515 	stw	r2,20(r16)
   83728:	003fd306 	br	83678 <tx_descriptor+0xfff83618>
   8372c:	04810004 	movi	r18,1024
   83730:	003fc306 	br	83640 <tx_descriptor+0xfff835e0>
   83734:	0027883a 	mov	r19,zero
   83738:	04810004 	movi	r18,1024
   8373c:	003fc006 	br	83640 <tx_descriptor+0xfff835e0>

00083740 <_malloc_r>:
   83740:	defff504 	addi	sp,sp,-44
   83744:	dc800315 	stw	r18,12(sp)
   83748:	dfc00a15 	stw	ra,40(sp)
   8374c:	df000915 	stw	fp,36(sp)
   83750:	ddc00815 	stw	r23,32(sp)
   83754:	dd800715 	stw	r22,28(sp)
   83758:	dd400615 	stw	r21,24(sp)
   8375c:	dd000515 	stw	r20,20(sp)
   83760:	dcc00415 	stw	r19,16(sp)
   83764:	dc400215 	stw	r17,8(sp)
   83768:	dc000115 	stw	r16,4(sp)
   8376c:	288002c4 	addi	r2,r5,11
   83770:	00c00584 	movi	r3,22
   83774:	2025883a 	mov	r18,r4
   83778:	18807f2e 	bgeu	r3,r2,83978 <_malloc_r+0x238>
   8377c:	047ffe04 	movi	r17,-8
   83780:	1462703a 	and	r17,r2,r17
   83784:	8800a316 	blt	r17,zero,83a14 <_malloc_r+0x2d4>
   83788:	8940a236 	bltu	r17,r5,83a14 <_malloc_r+0x2d4>
   8378c:	00849840 	call	84984 <__malloc_lock>
   83790:	00807dc4 	movi	r2,503
   83794:	1441e92e 	bgeu	r2,r17,83f3c <_malloc_r+0x7fc>
   83798:	8804d27a 	srli	r2,r17,9
   8379c:	1000a126 	beq	r2,zero,83a24 <_malloc_r+0x2e4>
   837a0:	00c00104 	movi	r3,4
   837a4:	18811e36 	bltu	r3,r2,83c20 <_malloc_r+0x4e0>
   837a8:	8804d1ba 	srli	r2,r17,6
   837ac:	12000e44 	addi	r8,r2,57
   837b0:	11c00e04 	addi	r7,r2,56
   837b4:	4209883a 	add	r4,r8,r8
   837b8:	04c00234 	movhi	r19,8
   837bc:	2109883a 	add	r4,r4,r4
   837c0:	9cd9fc04 	addi	r19,r19,26608
   837c4:	2109883a 	add	r4,r4,r4
   837c8:	9909883a 	add	r4,r19,r4
   837cc:	24000117 	ldw	r16,4(r4)
   837d0:	213ffe04 	addi	r4,r4,-8
   837d4:	24009726 	beq	r4,r16,83a34 <_malloc_r+0x2f4>
   837d8:	80800117 	ldw	r2,4(r16)
   837dc:	01bfff04 	movi	r6,-4
   837e0:	014003c4 	movi	r5,15
   837e4:	1184703a 	and	r2,r2,r6
   837e8:	1447c83a 	sub	r3,r2,r17
   837ec:	28c00716 	blt	r5,r3,8380c <_malloc_r+0xcc>
   837f0:	1800920e 	bge	r3,zero,83a3c <_malloc_r+0x2fc>
   837f4:	84000317 	ldw	r16,12(r16)
   837f8:	24008e26 	beq	r4,r16,83a34 <_malloc_r+0x2f4>
   837fc:	80800117 	ldw	r2,4(r16)
   83800:	1184703a 	and	r2,r2,r6
   83804:	1447c83a 	sub	r3,r2,r17
   83808:	28fff90e 	bge	r5,r3,837f0 <tx_descriptor+0xfff83790>
   8380c:	3809883a 	mov	r4,r7
   83810:	01800234 	movhi	r6,8
   83814:	9c000417 	ldw	r16,16(r19)
   83818:	3199fc04 	addi	r6,r6,26608
   8381c:	32000204 	addi	r8,r6,8
   83820:	82013426 	beq	r16,r8,83cf4 <_malloc_r+0x5b4>
   83824:	80c00117 	ldw	r3,4(r16)
   83828:	00bfff04 	movi	r2,-4
   8382c:	188e703a 	and	r7,r3,r2
   83830:	3c45c83a 	sub	r2,r7,r17
   83834:	00c003c4 	movi	r3,15
   83838:	18811f16 	blt	r3,r2,83cb8 <_malloc_r+0x578>
   8383c:	32000515 	stw	r8,20(r6)
   83840:	32000415 	stw	r8,16(r6)
   83844:	10007f0e 	bge	r2,zero,83a44 <_malloc_r+0x304>
   83848:	00807fc4 	movi	r2,511
   8384c:	11c0fd36 	bltu	r2,r7,83c44 <_malloc_r+0x504>
   83850:	3806d0fa 	srli	r3,r7,3
   83854:	01c00044 	movi	r7,1
   83858:	30800117 	ldw	r2,4(r6)
   8385c:	19400044 	addi	r5,r3,1
   83860:	294b883a 	add	r5,r5,r5
   83864:	1807d0ba 	srai	r3,r3,2
   83868:	294b883a 	add	r5,r5,r5
   8386c:	294b883a 	add	r5,r5,r5
   83870:	298b883a 	add	r5,r5,r6
   83874:	38c6983a 	sll	r3,r7,r3
   83878:	29c00017 	ldw	r7,0(r5)
   8387c:	2a7ffe04 	addi	r9,r5,-8
   83880:	1886b03a 	or	r3,r3,r2
   83884:	82400315 	stw	r9,12(r16)
   83888:	81c00215 	stw	r7,8(r16)
   8388c:	30c00115 	stw	r3,4(r6)
   83890:	2c000015 	stw	r16,0(r5)
   83894:	3c000315 	stw	r16,12(r7)
   83898:	2005d0ba 	srai	r2,r4,2
   8389c:	01400044 	movi	r5,1
   838a0:	288a983a 	sll	r5,r5,r2
   838a4:	19406f36 	bltu	r3,r5,83a64 <_malloc_r+0x324>
   838a8:	28c4703a 	and	r2,r5,r3
   838ac:	10000a1e 	bne	r2,zero,838d8 <_malloc_r+0x198>
   838b0:	00bfff04 	movi	r2,-4
   838b4:	294b883a 	add	r5,r5,r5
   838b8:	2088703a 	and	r4,r4,r2
   838bc:	28c4703a 	and	r2,r5,r3
   838c0:	21000104 	addi	r4,r4,4
   838c4:	1000041e 	bne	r2,zero,838d8 <_malloc_r+0x198>
   838c8:	294b883a 	add	r5,r5,r5
   838cc:	28c4703a 	and	r2,r5,r3
   838d0:	21000104 	addi	r4,r4,4
   838d4:	103ffc26 	beq	r2,zero,838c8 <tx_descriptor+0xfff83868>
   838d8:	02bfff04 	movi	r10,-4
   838dc:	024003c4 	movi	r9,15
   838e0:	21800044 	addi	r6,r4,1
   838e4:	318d883a 	add	r6,r6,r6
   838e8:	318d883a 	add	r6,r6,r6
   838ec:	318d883a 	add	r6,r6,r6
   838f0:	998d883a 	add	r6,r19,r6
   838f4:	333ffe04 	addi	r12,r6,-8
   838f8:	2017883a 	mov	r11,r4
   838fc:	31800104 	addi	r6,r6,4
   83900:	34000017 	ldw	r16,0(r6)
   83904:	31fffd04 	addi	r7,r6,-12
   83908:	81c0041e 	bne	r16,r7,8391c <_malloc_r+0x1dc>
   8390c:	0000fb06 	br	83cfc <_malloc_r+0x5bc>
   83910:	1801030e 	bge	r3,zero,83d20 <_malloc_r+0x5e0>
   83914:	84000317 	ldw	r16,12(r16)
   83918:	81c0f826 	beq	r16,r7,83cfc <_malloc_r+0x5bc>
   8391c:	80800117 	ldw	r2,4(r16)
   83920:	1284703a 	and	r2,r2,r10
   83924:	1447c83a 	sub	r3,r2,r17
   83928:	48fff90e 	bge	r9,r3,83910 <tx_descriptor+0xfff838b0>
   8392c:	80800317 	ldw	r2,12(r16)
   83930:	81000217 	ldw	r4,8(r16)
   83934:	89400054 	ori	r5,r17,1
   83938:	81400115 	stw	r5,4(r16)
   8393c:	20800315 	stw	r2,12(r4)
   83940:	11000215 	stw	r4,8(r2)
   83944:	8463883a 	add	r17,r16,r17
   83948:	9c400515 	stw	r17,20(r19)
   8394c:	9c400415 	stw	r17,16(r19)
   83950:	18800054 	ori	r2,r3,1
   83954:	88800115 	stw	r2,4(r17)
   83958:	8a000315 	stw	r8,12(r17)
   8395c:	8a000215 	stw	r8,8(r17)
   83960:	88e3883a 	add	r17,r17,r3
   83964:	88c00015 	stw	r3,0(r17)
   83968:	9009883a 	mov	r4,r18
   8396c:	00849880 	call	84988 <__malloc_unlock>
   83970:	80800204 	addi	r2,r16,8
   83974:	00001b06 	br	839e4 <_malloc_r+0x2a4>
   83978:	04400404 	movi	r17,16
   8397c:	89402536 	bltu	r17,r5,83a14 <_malloc_r+0x2d4>
   83980:	00849840 	call	84984 <__malloc_lock>
   83984:	00800184 	movi	r2,6
   83988:	01000084 	movi	r4,2
   8398c:	04c00234 	movhi	r19,8
   83990:	1085883a 	add	r2,r2,r2
   83994:	9cd9fc04 	addi	r19,r19,26608
   83998:	1085883a 	add	r2,r2,r2
   8399c:	9885883a 	add	r2,r19,r2
   839a0:	14000117 	ldw	r16,4(r2)
   839a4:	10fffe04 	addi	r3,r2,-8
   839a8:	80c0d926 	beq	r16,r3,83d10 <_malloc_r+0x5d0>
   839ac:	80c00117 	ldw	r3,4(r16)
   839b0:	81000317 	ldw	r4,12(r16)
   839b4:	00bfff04 	movi	r2,-4
   839b8:	1884703a 	and	r2,r3,r2
   839bc:	81400217 	ldw	r5,8(r16)
   839c0:	8085883a 	add	r2,r16,r2
   839c4:	10c00117 	ldw	r3,4(r2)
   839c8:	29000315 	stw	r4,12(r5)
   839cc:	21400215 	stw	r5,8(r4)
   839d0:	18c00054 	ori	r3,r3,1
   839d4:	10c00115 	stw	r3,4(r2)
   839d8:	9009883a 	mov	r4,r18
   839dc:	00849880 	call	84988 <__malloc_unlock>
   839e0:	80800204 	addi	r2,r16,8
   839e4:	dfc00a17 	ldw	ra,40(sp)
   839e8:	df000917 	ldw	fp,36(sp)
   839ec:	ddc00817 	ldw	r23,32(sp)
   839f0:	dd800717 	ldw	r22,28(sp)
   839f4:	dd400617 	ldw	r21,24(sp)
   839f8:	dd000517 	ldw	r20,20(sp)
   839fc:	dcc00417 	ldw	r19,16(sp)
   83a00:	dc800317 	ldw	r18,12(sp)
   83a04:	dc400217 	ldw	r17,8(sp)
   83a08:	dc000117 	ldw	r16,4(sp)
   83a0c:	dec00b04 	addi	sp,sp,44
   83a10:	f800283a 	ret
   83a14:	00800304 	movi	r2,12
   83a18:	90800015 	stw	r2,0(r18)
   83a1c:	0005883a 	mov	r2,zero
   83a20:	003ff006 	br	839e4 <tx_descriptor+0xfff83984>
   83a24:	01002004 	movi	r4,128
   83a28:	02001004 	movi	r8,64
   83a2c:	01c00fc4 	movi	r7,63
   83a30:	003f6106 	br	837b8 <tx_descriptor+0xfff83758>
   83a34:	4009883a 	mov	r4,r8
   83a38:	003f7506 	br	83810 <tx_descriptor+0xfff837b0>
   83a3c:	81000317 	ldw	r4,12(r16)
   83a40:	003fde06 	br	839bc <tx_descriptor+0xfff8395c>
   83a44:	81c5883a 	add	r2,r16,r7
   83a48:	11400117 	ldw	r5,4(r2)
   83a4c:	9009883a 	mov	r4,r18
   83a50:	29400054 	ori	r5,r5,1
   83a54:	11400115 	stw	r5,4(r2)
   83a58:	00849880 	call	84988 <__malloc_unlock>
   83a5c:	80800204 	addi	r2,r16,8
   83a60:	003fe006 	br	839e4 <tx_descriptor+0xfff83984>
   83a64:	9c000217 	ldw	r16,8(r19)
   83a68:	00bfff04 	movi	r2,-4
   83a6c:	85800117 	ldw	r22,4(r16)
   83a70:	b0ac703a 	and	r22,r22,r2
   83a74:	b4400336 	bltu	r22,r17,83a84 <_malloc_r+0x344>
   83a78:	b445c83a 	sub	r2,r22,r17
   83a7c:	00c003c4 	movi	r3,15
   83a80:	18805d16 	blt	r3,r2,83bf8 <_malloc_r+0x4b8>
   83a84:	05c00234 	movhi	r23,8
   83a88:	00800274 	movhi	r2,9
   83a8c:	10a2d004 	addi	r2,r2,-29888
   83a90:	bddb0b04 	addi	r23,r23,27692
   83a94:	15400017 	ldw	r21,0(r2)
   83a98:	b8c00017 	ldw	r3,0(r23)
   83a9c:	00bfffc4 	movi	r2,-1
   83aa0:	858d883a 	add	r6,r16,r22
   83aa4:	8d6b883a 	add	r21,r17,r21
   83aa8:	1880ea26 	beq	r3,r2,83e54 <_malloc_r+0x714>
   83aac:	ad4403c4 	addi	r21,r21,4111
   83ab0:	00bc0004 	movi	r2,-4096
   83ab4:	a8aa703a 	and	r21,r21,r2
   83ab8:	a80b883a 	mov	r5,r21
   83abc:	9009883a 	mov	r4,r18
   83ac0:	d9800015 	stw	r6,0(sp)
   83ac4:	00842640 	call	84264 <_sbrk_r>
   83ac8:	1029883a 	mov	r20,r2
   83acc:	00bfffc4 	movi	r2,-1
   83ad0:	d9800017 	ldw	r6,0(sp)
   83ad4:	a080e826 	beq	r20,r2,83e78 <_malloc_r+0x738>
   83ad8:	a180a636 	bltu	r20,r6,83d74 <_malloc_r+0x634>
   83adc:	07000274 	movhi	fp,9
   83ae0:	e723d104 	addi	fp,fp,-28860
   83ae4:	e0800017 	ldw	r2,0(fp)
   83ae8:	a887883a 	add	r3,r21,r2
   83aec:	e0c00015 	stw	r3,0(fp)
   83af0:	3500e626 	beq	r6,r20,83e8c <_malloc_r+0x74c>
   83af4:	b9000017 	ldw	r4,0(r23)
   83af8:	00bfffc4 	movi	r2,-1
   83afc:	2080ee26 	beq	r4,r2,83eb8 <_malloc_r+0x778>
   83b00:	a185c83a 	sub	r2,r20,r6
   83b04:	10c5883a 	add	r2,r2,r3
   83b08:	e0800015 	stw	r2,0(fp)
   83b0c:	a0c001cc 	andi	r3,r20,7
   83b10:	1800bc26 	beq	r3,zero,83e04 <_malloc_r+0x6c4>
   83b14:	a0e9c83a 	sub	r20,r20,r3
   83b18:	00840204 	movi	r2,4104
   83b1c:	a5000204 	addi	r20,r20,8
   83b20:	10c7c83a 	sub	r3,r2,r3
   83b24:	a545883a 	add	r2,r20,r21
   83b28:	1083ffcc 	andi	r2,r2,4095
   83b2c:	18abc83a 	sub	r21,r3,r2
   83b30:	a80b883a 	mov	r5,r21
   83b34:	9009883a 	mov	r4,r18
   83b38:	00842640 	call	84264 <_sbrk_r>
   83b3c:	00ffffc4 	movi	r3,-1
   83b40:	10c0e126 	beq	r2,r3,83ec8 <_malloc_r+0x788>
   83b44:	1505c83a 	sub	r2,r2,r20
   83b48:	1545883a 	add	r2,r2,r21
   83b4c:	10800054 	ori	r2,r2,1
   83b50:	e0c00017 	ldw	r3,0(fp)
   83b54:	9d000215 	stw	r20,8(r19)
   83b58:	a0800115 	stw	r2,4(r20)
   83b5c:	a8c7883a 	add	r3,r21,r3
   83b60:	e0c00015 	stw	r3,0(fp)
   83b64:	84c00e26 	beq	r16,r19,83ba0 <_malloc_r+0x460>
   83b68:	018003c4 	movi	r6,15
   83b6c:	3580a72e 	bgeu	r6,r22,83e0c <_malloc_r+0x6cc>
   83b70:	81400117 	ldw	r5,4(r16)
   83b74:	013ffe04 	movi	r4,-8
   83b78:	b0bffd04 	addi	r2,r22,-12
   83b7c:	1104703a 	and	r2,r2,r4
   83b80:	2900004c 	andi	r4,r5,1
   83b84:	2088b03a 	or	r4,r4,r2
   83b88:	81000115 	stw	r4,4(r16)
   83b8c:	01400144 	movi	r5,5
   83b90:	8089883a 	add	r4,r16,r2
   83b94:	21400115 	stw	r5,4(r4)
   83b98:	21400215 	stw	r5,8(r4)
   83b9c:	3080cd36 	bltu	r6,r2,83ed4 <_malloc_r+0x794>
   83ba0:	00800274 	movhi	r2,9
   83ba4:	10a2cf04 	addi	r2,r2,-29892
   83ba8:	11000017 	ldw	r4,0(r2)
   83bac:	20c0012e 	bgeu	r4,r3,83bb4 <_malloc_r+0x474>
   83bb0:	10c00015 	stw	r3,0(r2)
   83bb4:	00800274 	movhi	r2,9
   83bb8:	10a2ce04 	addi	r2,r2,-29896
   83bbc:	11000017 	ldw	r4,0(r2)
   83bc0:	9c000217 	ldw	r16,8(r19)
   83bc4:	20c0012e 	bgeu	r4,r3,83bcc <_malloc_r+0x48c>
   83bc8:	10c00015 	stw	r3,0(r2)
   83bcc:	80c00117 	ldw	r3,4(r16)
   83bd0:	00bfff04 	movi	r2,-4
   83bd4:	1886703a 	and	r3,r3,r2
   83bd8:	1c45c83a 	sub	r2,r3,r17
   83bdc:	1c400236 	bltu	r3,r17,83be8 <_malloc_r+0x4a8>
   83be0:	00c003c4 	movi	r3,15
   83be4:	18800416 	blt	r3,r2,83bf8 <_malloc_r+0x4b8>
   83be8:	9009883a 	mov	r4,r18
   83bec:	00849880 	call	84988 <__malloc_unlock>
   83bf0:	0005883a 	mov	r2,zero
   83bf4:	003f7b06 	br	839e4 <tx_descriptor+0xfff83984>
   83bf8:	88c00054 	ori	r3,r17,1
   83bfc:	80c00115 	stw	r3,4(r16)
   83c00:	8463883a 	add	r17,r16,r17
   83c04:	10800054 	ori	r2,r2,1
   83c08:	9c400215 	stw	r17,8(r19)
   83c0c:	88800115 	stw	r2,4(r17)
   83c10:	9009883a 	mov	r4,r18
   83c14:	00849880 	call	84988 <__malloc_unlock>
   83c18:	80800204 	addi	r2,r16,8
   83c1c:	003f7106 	br	839e4 <tx_descriptor+0xfff83984>
   83c20:	00c00504 	movi	r3,20
   83c24:	18804a2e 	bgeu	r3,r2,83d50 <_malloc_r+0x610>
   83c28:	00c01504 	movi	r3,84
   83c2c:	18806e36 	bltu	r3,r2,83de8 <_malloc_r+0x6a8>
   83c30:	8804d33a 	srli	r2,r17,12
   83c34:	12001bc4 	addi	r8,r2,111
   83c38:	11c01b84 	addi	r7,r2,110
   83c3c:	4209883a 	add	r4,r8,r8
   83c40:	003edd06 	br	837b8 <tx_descriptor+0xfff83758>
   83c44:	3804d27a 	srli	r2,r7,9
   83c48:	00c00104 	movi	r3,4
   83c4c:	1880442e 	bgeu	r3,r2,83d60 <_malloc_r+0x620>
   83c50:	00c00504 	movi	r3,20
   83c54:	18808136 	bltu	r3,r2,83e5c <_malloc_r+0x71c>
   83c58:	11401704 	addi	r5,r2,92
   83c5c:	10c016c4 	addi	r3,r2,91
   83c60:	294b883a 	add	r5,r5,r5
   83c64:	294b883a 	add	r5,r5,r5
   83c68:	294b883a 	add	r5,r5,r5
   83c6c:	994b883a 	add	r5,r19,r5
   83c70:	28800017 	ldw	r2,0(r5)
   83c74:	01800234 	movhi	r6,8
   83c78:	297ffe04 	addi	r5,r5,-8
   83c7c:	3199fc04 	addi	r6,r6,26608
   83c80:	28806526 	beq	r5,r2,83e18 <_malloc_r+0x6d8>
   83c84:	01bfff04 	movi	r6,-4
   83c88:	10c00117 	ldw	r3,4(r2)
   83c8c:	1986703a 	and	r3,r3,r6
   83c90:	38c0022e 	bgeu	r7,r3,83c9c <_malloc_r+0x55c>
   83c94:	10800217 	ldw	r2,8(r2)
   83c98:	28bffb1e 	bne	r5,r2,83c88 <tx_descriptor+0xfff83c28>
   83c9c:	11400317 	ldw	r5,12(r2)
   83ca0:	98c00117 	ldw	r3,4(r19)
   83ca4:	81400315 	stw	r5,12(r16)
   83ca8:	80800215 	stw	r2,8(r16)
   83cac:	2c000215 	stw	r16,8(r5)
   83cb0:	14000315 	stw	r16,12(r2)
   83cb4:	003ef806 	br	83898 <tx_descriptor+0xfff83838>
   83cb8:	88c00054 	ori	r3,r17,1
   83cbc:	80c00115 	stw	r3,4(r16)
   83cc0:	8463883a 	add	r17,r16,r17
   83cc4:	34400515 	stw	r17,20(r6)
   83cc8:	34400415 	stw	r17,16(r6)
   83ccc:	10c00054 	ori	r3,r2,1
   83cd0:	8a000315 	stw	r8,12(r17)
   83cd4:	8a000215 	stw	r8,8(r17)
   83cd8:	88c00115 	stw	r3,4(r17)
   83cdc:	88a3883a 	add	r17,r17,r2
   83ce0:	88800015 	stw	r2,0(r17)
   83ce4:	9009883a 	mov	r4,r18
   83ce8:	00849880 	call	84988 <__malloc_unlock>
   83cec:	80800204 	addi	r2,r16,8
   83cf0:	003f3c06 	br	839e4 <tx_descriptor+0xfff83984>
   83cf4:	30c00117 	ldw	r3,4(r6)
   83cf8:	003ee706 	br	83898 <tx_descriptor+0xfff83838>
   83cfc:	5ac00044 	addi	r11,r11,1
   83d00:	588000cc 	andi	r2,r11,3
   83d04:	31800204 	addi	r6,r6,8
   83d08:	103efd1e 	bne	r2,zero,83900 <tx_descriptor+0xfff838a0>
   83d0c:	00002406 	br	83da0 <_malloc_r+0x660>
   83d10:	14000317 	ldw	r16,12(r2)
   83d14:	143f251e 	bne	r2,r16,839ac <tx_descriptor+0xfff8394c>
   83d18:	21000084 	addi	r4,r4,2
   83d1c:	003ebc06 	br	83810 <tx_descriptor+0xfff837b0>
   83d20:	8085883a 	add	r2,r16,r2
   83d24:	10c00117 	ldw	r3,4(r2)
   83d28:	81000317 	ldw	r4,12(r16)
   83d2c:	81400217 	ldw	r5,8(r16)
   83d30:	18c00054 	ori	r3,r3,1
   83d34:	10c00115 	stw	r3,4(r2)
   83d38:	29000315 	stw	r4,12(r5)
   83d3c:	21400215 	stw	r5,8(r4)
   83d40:	9009883a 	mov	r4,r18
   83d44:	00849880 	call	84988 <__malloc_unlock>
   83d48:	80800204 	addi	r2,r16,8
   83d4c:	003f2506 	br	839e4 <tx_descriptor+0xfff83984>
   83d50:	12001704 	addi	r8,r2,92
   83d54:	11c016c4 	addi	r7,r2,91
   83d58:	4209883a 	add	r4,r8,r8
   83d5c:	003e9606 	br	837b8 <tx_descriptor+0xfff83758>
   83d60:	3804d1ba 	srli	r2,r7,6
   83d64:	11400e44 	addi	r5,r2,57
   83d68:	10c00e04 	addi	r3,r2,56
   83d6c:	294b883a 	add	r5,r5,r5
   83d70:	003fbc06 	br	83c64 <tx_descriptor+0xfff83c04>
   83d74:	84ff5926 	beq	r16,r19,83adc <tx_descriptor+0xfff83a7c>
   83d78:	00800234 	movhi	r2,8
   83d7c:	1099fc04 	addi	r2,r2,26608
   83d80:	14000217 	ldw	r16,8(r2)
   83d84:	00bfff04 	movi	r2,-4
   83d88:	80c00117 	ldw	r3,4(r16)
   83d8c:	1886703a 	and	r3,r3,r2
   83d90:	003f9106 	br	83bd8 <tx_descriptor+0xfff83b78>
   83d94:	60800217 	ldw	r2,8(r12)
   83d98:	213fffc4 	addi	r4,r4,-1
   83d9c:	1300651e 	bne	r2,r12,83f34 <_malloc_r+0x7f4>
   83da0:	208000cc 	andi	r2,r4,3
   83da4:	633ffe04 	addi	r12,r12,-8
   83da8:	103ffa1e 	bne	r2,zero,83d94 <tx_descriptor+0xfff83d34>
   83dac:	98800117 	ldw	r2,4(r19)
   83db0:	0146303a 	nor	r3,zero,r5
   83db4:	1884703a 	and	r2,r3,r2
   83db8:	98800115 	stw	r2,4(r19)
   83dbc:	294b883a 	add	r5,r5,r5
   83dc0:	117f2836 	bltu	r2,r5,83a64 <tx_descriptor+0xfff83a04>
   83dc4:	283f2726 	beq	r5,zero,83a64 <tx_descriptor+0xfff83a04>
   83dc8:	2886703a 	and	r3,r5,r2
   83dcc:	5809883a 	mov	r4,r11
   83dd0:	183ec31e 	bne	r3,zero,838e0 <tx_descriptor+0xfff83880>
   83dd4:	294b883a 	add	r5,r5,r5
   83dd8:	2886703a 	and	r3,r5,r2
   83ddc:	21000104 	addi	r4,r4,4
   83de0:	183ffc26 	beq	r3,zero,83dd4 <tx_descriptor+0xfff83d74>
   83de4:	003ebe06 	br	838e0 <tx_descriptor+0xfff83880>
   83de8:	00c05504 	movi	r3,340
   83dec:	18801236 	bltu	r3,r2,83e38 <_malloc_r+0x6f8>
   83df0:	8804d3fa 	srli	r2,r17,15
   83df4:	12001e04 	addi	r8,r2,120
   83df8:	11c01dc4 	addi	r7,r2,119
   83dfc:	4209883a 	add	r4,r8,r8
   83e00:	003e6d06 	br	837b8 <tx_descriptor+0xfff83758>
   83e04:	00c40004 	movi	r3,4096
   83e08:	003f4606 	br	83b24 <tx_descriptor+0xfff83ac4>
   83e0c:	00800044 	movi	r2,1
   83e10:	a0800115 	stw	r2,4(r20)
   83e14:	003f7406 	br	83be8 <tx_descriptor+0xfff83b88>
   83e18:	1805d0ba 	srai	r2,r3,2
   83e1c:	01c00044 	movi	r7,1
   83e20:	30c00117 	ldw	r3,4(r6)
   83e24:	388e983a 	sll	r7,r7,r2
   83e28:	2805883a 	mov	r2,r5
   83e2c:	38c6b03a 	or	r3,r7,r3
   83e30:	30c00115 	stw	r3,4(r6)
   83e34:	003f9b06 	br	83ca4 <tx_descriptor+0xfff83c44>
   83e38:	00c15504 	movi	r3,1364
   83e3c:	18801a36 	bltu	r3,r2,83ea8 <_malloc_r+0x768>
   83e40:	8804d4ba 	srli	r2,r17,18
   83e44:	12001f44 	addi	r8,r2,125
   83e48:	11c01f04 	addi	r7,r2,124
   83e4c:	4209883a 	add	r4,r8,r8
   83e50:	003e5906 	br	837b8 <tx_descriptor+0xfff83758>
   83e54:	ad400404 	addi	r21,r21,16
   83e58:	003f1706 	br	83ab8 <tx_descriptor+0xfff83a58>
   83e5c:	00c01504 	movi	r3,84
   83e60:	18802336 	bltu	r3,r2,83ef0 <_malloc_r+0x7b0>
   83e64:	3804d33a 	srli	r2,r7,12
   83e68:	11401bc4 	addi	r5,r2,111
   83e6c:	10c01b84 	addi	r3,r2,110
   83e70:	294b883a 	add	r5,r5,r5
   83e74:	003f7b06 	br	83c64 <tx_descriptor+0xfff83c04>
   83e78:	9c000217 	ldw	r16,8(r19)
   83e7c:	00bfff04 	movi	r2,-4
   83e80:	80c00117 	ldw	r3,4(r16)
   83e84:	1886703a 	and	r3,r3,r2
   83e88:	003f5306 	br	83bd8 <tx_descriptor+0xfff83b78>
   83e8c:	3083ffcc 	andi	r2,r6,4095
   83e90:	103f181e 	bne	r2,zero,83af4 <tx_descriptor+0xfff83a94>
   83e94:	99000217 	ldw	r4,8(r19)
   83e98:	b545883a 	add	r2,r22,r21
   83e9c:	10800054 	ori	r2,r2,1
   83ea0:	20800115 	stw	r2,4(r4)
   83ea4:	003f3e06 	br	83ba0 <tx_descriptor+0xfff83b40>
   83ea8:	01003f84 	movi	r4,254
   83eac:	02001fc4 	movi	r8,127
   83eb0:	01c01f84 	movi	r7,126
   83eb4:	003e4006 	br	837b8 <tx_descriptor+0xfff83758>
   83eb8:	00800234 	movhi	r2,8
   83ebc:	109b0b04 	addi	r2,r2,27692
   83ec0:	15000015 	stw	r20,0(r2)
   83ec4:	003f1106 	br	83b0c <tx_descriptor+0xfff83aac>
   83ec8:	00800044 	movi	r2,1
   83ecc:	002b883a 	mov	r21,zero
   83ed0:	003f1f06 	br	83b50 <tx_descriptor+0xfff83af0>
   83ed4:	81400204 	addi	r5,r16,8
   83ed8:	9009883a 	mov	r4,r18
   83edc:	00830ec0 	call	830ec <_free_r>
   83ee0:	00800274 	movhi	r2,9
   83ee4:	10a3d104 	addi	r2,r2,-28860
   83ee8:	10c00017 	ldw	r3,0(r2)
   83eec:	003f2c06 	br	83ba0 <tx_descriptor+0xfff83b40>
   83ef0:	00c05504 	movi	r3,340
   83ef4:	18800536 	bltu	r3,r2,83f0c <_malloc_r+0x7cc>
   83ef8:	3804d3fa 	srli	r2,r7,15
   83efc:	11401e04 	addi	r5,r2,120
   83f00:	10c01dc4 	addi	r3,r2,119
   83f04:	294b883a 	add	r5,r5,r5
   83f08:	003f5606 	br	83c64 <tx_descriptor+0xfff83c04>
   83f0c:	00c15504 	movi	r3,1364
   83f10:	18800536 	bltu	r3,r2,83f28 <_malloc_r+0x7e8>
   83f14:	3804d4ba 	srli	r2,r7,18
   83f18:	11401f44 	addi	r5,r2,125
   83f1c:	10c01f04 	addi	r3,r2,124
   83f20:	294b883a 	add	r5,r5,r5
   83f24:	003f4f06 	br	83c64 <tx_descriptor+0xfff83c04>
   83f28:	01403f84 	movi	r5,254
   83f2c:	00c01f84 	movi	r3,126
   83f30:	003f4c06 	br	83c64 <tx_descriptor+0xfff83c04>
   83f34:	98800117 	ldw	r2,4(r19)
   83f38:	003fa006 	br	83dbc <tx_descriptor+0xfff83d5c>
   83f3c:	8808d0fa 	srli	r4,r17,3
   83f40:	20800044 	addi	r2,r4,1
   83f44:	1085883a 	add	r2,r2,r2
   83f48:	003e9006 	br	8398c <tx_descriptor+0xfff8392c>

00083f4c <memset>:
   83f4c:	20c000cc 	andi	r3,r4,3
   83f50:	2005883a 	mov	r2,r4
   83f54:	18004426 	beq	r3,zero,84068 <memset+0x11c>
   83f58:	31ffffc4 	addi	r7,r6,-1
   83f5c:	30004026 	beq	r6,zero,84060 <memset+0x114>
   83f60:	2813883a 	mov	r9,r5
   83f64:	200d883a 	mov	r6,r4
   83f68:	2007883a 	mov	r3,r4
   83f6c:	00000406 	br	83f80 <memset+0x34>
   83f70:	3a3fffc4 	addi	r8,r7,-1
   83f74:	31800044 	addi	r6,r6,1
   83f78:	38003926 	beq	r7,zero,84060 <memset+0x114>
   83f7c:	400f883a 	mov	r7,r8
   83f80:	18c00044 	addi	r3,r3,1
   83f84:	32400005 	stb	r9,0(r6)
   83f88:	1a0000cc 	andi	r8,r3,3
   83f8c:	403ff81e 	bne	r8,zero,83f70 <tx_descriptor+0xfff83f10>
   83f90:	010000c4 	movi	r4,3
   83f94:	21c02d2e 	bgeu	r4,r7,8404c <memset+0x100>
   83f98:	29003fcc 	andi	r4,r5,255
   83f9c:	200c923a 	slli	r6,r4,8
   83fa0:	3108b03a 	or	r4,r6,r4
   83fa4:	200c943a 	slli	r6,r4,16
   83fa8:	218cb03a 	or	r6,r4,r6
   83fac:	010003c4 	movi	r4,15
   83fb0:	21c0182e 	bgeu	r4,r7,84014 <memset+0xc8>
   83fb4:	3b3ffc04 	addi	r12,r7,-16
   83fb8:	6018d13a 	srli	r12,r12,4
   83fbc:	1a000104 	addi	r8,r3,4
   83fc0:	1ac00204 	addi	r11,r3,8
   83fc4:	6008913a 	slli	r4,r12,4
   83fc8:	1a800304 	addi	r10,r3,12
   83fcc:	1813883a 	mov	r9,r3
   83fd0:	21000504 	addi	r4,r4,20
   83fd4:	1909883a 	add	r4,r3,r4
   83fd8:	49800015 	stw	r6,0(r9)
   83fdc:	41800015 	stw	r6,0(r8)
   83fe0:	59800015 	stw	r6,0(r11)
   83fe4:	51800015 	stw	r6,0(r10)
   83fe8:	42000404 	addi	r8,r8,16
   83fec:	4a400404 	addi	r9,r9,16
   83ff0:	5ac00404 	addi	r11,r11,16
   83ff4:	52800404 	addi	r10,r10,16
   83ff8:	413ff71e 	bne	r8,r4,83fd8 <tx_descriptor+0xfff83f78>
   83ffc:	63000044 	addi	r12,r12,1
   84000:	6018913a 	slli	r12,r12,4
   84004:	39c003cc 	andi	r7,r7,15
   84008:	010000c4 	movi	r4,3
   8400c:	1b07883a 	add	r3,r3,r12
   84010:	21c00e2e 	bgeu	r4,r7,8404c <memset+0x100>
   84014:	1813883a 	mov	r9,r3
   84018:	3811883a 	mov	r8,r7
   8401c:	010000c4 	movi	r4,3
   84020:	49800015 	stw	r6,0(r9)
   84024:	423fff04 	addi	r8,r8,-4
   84028:	4a400104 	addi	r9,r9,4
   8402c:	223ffc36 	bltu	r4,r8,84020 <tx_descriptor+0xfff83fc0>
   84030:	393fff04 	addi	r4,r7,-4
   84034:	2008d0ba 	srli	r4,r4,2
   84038:	39c000cc 	andi	r7,r7,3
   8403c:	21000044 	addi	r4,r4,1
   84040:	2109883a 	add	r4,r4,r4
   84044:	2109883a 	add	r4,r4,r4
   84048:	1907883a 	add	r3,r3,r4
   8404c:	38000526 	beq	r7,zero,84064 <memset+0x118>
   84050:	19cf883a 	add	r7,r3,r7
   84054:	19400005 	stb	r5,0(r3)
   84058:	18c00044 	addi	r3,r3,1
   8405c:	38fffd1e 	bne	r7,r3,84054 <tx_descriptor+0xfff83ff4>
   84060:	f800283a 	ret
   84064:	f800283a 	ret
   84068:	2007883a 	mov	r3,r4
   8406c:	300f883a 	mov	r7,r6
   84070:	003fc706 	br	83f90 <tx_descriptor+0xfff83f30>

00084074 <lflush>:
   84074:	2080030b 	ldhu	r2,12(r4)
   84078:	00c00244 	movi	r3,9
   8407c:	1080024c 	andi	r2,r2,9
   84080:	10c00226 	beq	r2,r3,8408c <lflush+0x18>
   84084:	0005883a 	mov	r2,zero
   84088:	f800283a 	ret
   8408c:	0082be81 	jmpi	82be8 <fflush>

00084090 <__srefill_r>:
   84090:	defffc04 	addi	sp,sp,-16
   84094:	dc400115 	stw	r17,4(sp)
   84098:	dc000015 	stw	r16,0(sp)
   8409c:	dfc00315 	stw	ra,12(sp)
   840a0:	dc800215 	stw	r18,8(sp)
   840a4:	2023883a 	mov	r17,r4
   840a8:	2821883a 	mov	r16,r5
   840ac:	20000226 	beq	r4,zero,840b8 <__srefill_r+0x28>
   840b0:	20800e17 	ldw	r2,56(r4)
   840b4:	10003c26 	beq	r2,zero,841a8 <__srefill_r+0x118>
   840b8:	80c0030b 	ldhu	r3,12(r16)
   840bc:	1908000c 	andi	r4,r3,8192
   840c0:	1805883a 	mov	r2,r3
   840c4:	2000071e 	bne	r4,zero,840e4 <__srefill_r+0x54>
   840c8:	81001917 	ldw	r4,100(r16)
   840cc:	18880014 	ori	r2,r3,8192
   840d0:	00f7ffc4 	movi	r3,-8193
   840d4:	20c8703a 	and	r4,r4,r3
   840d8:	8080030d 	sth	r2,12(r16)
   840dc:	1007883a 	mov	r3,r2
   840e0:	81001915 	stw	r4,100(r16)
   840e4:	80000115 	stw	zero,4(r16)
   840e8:	1100080c 	andi	r4,r2,32
   840ec:	2000571e 	bne	r4,zero,8424c <__srefill_r+0x1bc>
   840f0:	1100010c 	andi	r4,r2,4
   840f4:	20001f26 	beq	r4,zero,84174 <__srefill_r+0xe4>
   840f8:	81400c17 	ldw	r5,48(r16)
   840fc:	28000826 	beq	r5,zero,84120 <__srefill_r+0x90>
   84100:	80801004 	addi	r2,r16,64
   84104:	28800226 	beq	r5,r2,84110 <__srefill_r+0x80>
   84108:	8809883a 	mov	r4,r17
   8410c:	00830ec0 	call	830ec <_free_r>
   84110:	80800f17 	ldw	r2,60(r16)
   84114:	80000c15 	stw	zero,48(r16)
   84118:	80800115 	stw	r2,4(r16)
   8411c:	1000391e 	bne	r2,zero,84204 <__srefill_r+0x174>
   84120:	80800417 	ldw	r2,16(r16)
   84124:	10004b26 	beq	r2,zero,84254 <__srefill_r+0x1c4>
   84128:	8480030b 	ldhu	r18,12(r16)
   8412c:	908000cc 	andi	r2,r18,3
   84130:	10001f1e 	bne	r2,zero,841b0 <__srefill_r+0x120>
   84134:	81800417 	ldw	r6,16(r16)
   84138:	80800817 	ldw	r2,32(r16)
   8413c:	81c00517 	ldw	r7,20(r16)
   84140:	81400717 	ldw	r5,28(r16)
   84144:	81800015 	stw	r6,0(r16)
   84148:	8809883a 	mov	r4,r17
   8414c:	103ee83a 	callr	r2
   84150:	80800115 	stw	r2,4(r16)
   84154:	00800e0e 	bge	zero,r2,84190 <__srefill_r+0x100>
   84158:	0005883a 	mov	r2,zero
   8415c:	dfc00317 	ldw	ra,12(sp)
   84160:	dc800217 	ldw	r18,8(sp)
   84164:	dc400117 	ldw	r17,4(sp)
   84168:	dc000017 	ldw	r16,0(sp)
   8416c:	dec00404 	addi	sp,sp,16
   84170:	f800283a 	ret
   84174:	1100040c 	andi	r4,r2,16
   84178:	20003026 	beq	r4,zero,8423c <__srefill_r+0x1ac>
   8417c:	1080020c 	andi	r2,r2,8
   84180:	1000241e 	bne	r2,zero,84214 <__srefill_r+0x184>
   84184:	18c00114 	ori	r3,r3,4
   84188:	80c0030d 	sth	r3,12(r16)
   8418c:	003fe406 	br	84120 <tx_descriptor+0xfff840c0>
   84190:	80c0030b 	ldhu	r3,12(r16)
   84194:	1000161e 	bne	r2,zero,841f0 <__srefill_r+0x160>
   84198:	18c00814 	ori	r3,r3,32
   8419c:	00bfffc4 	movi	r2,-1
   841a0:	80c0030d 	sth	r3,12(r16)
   841a4:	003fed06 	br	8415c <tx_descriptor+0xfff840fc>
   841a8:	0082f780 	call	82f78 <__sinit>
   841ac:	003fc206 	br	840b8 <tx_descriptor+0xfff84058>
   841b0:	00800234 	movhi	r2,8
   841b4:	109b0904 	addi	r2,r2,27684
   841b8:	11000017 	ldw	r4,0(r2)
   841bc:	01400234 	movhi	r5,8
   841c0:	00800044 	movi	r2,1
   841c4:	29501d04 	addi	r5,r5,16500
   841c8:	8080030d 	sth	r2,12(r16)
   841cc:	00833fc0 	call	833fc <_fwalk>
   841d0:	00800244 	movi	r2,9
   841d4:	8480030d 	sth	r18,12(r16)
   841d8:	9480024c 	andi	r18,r18,9
   841dc:	90bfd51e 	bne	r18,r2,84134 <tx_descriptor+0xfff840d4>
   841e0:	800b883a 	mov	r5,r16
   841e4:	8809883a 	mov	r4,r17
   841e8:	00829700 	call	82970 <__sflush_r>
   841ec:	003fd106 	br	84134 <tx_descriptor+0xfff840d4>
   841f0:	18c01014 	ori	r3,r3,64
   841f4:	80000115 	stw	zero,4(r16)
   841f8:	00bfffc4 	movi	r2,-1
   841fc:	80c0030d 	sth	r3,12(r16)
   84200:	003fd606 	br	8415c <tx_descriptor+0xfff840fc>
   84204:	80c00e17 	ldw	r3,56(r16)
   84208:	0005883a 	mov	r2,zero
   8420c:	80c00015 	stw	r3,0(r16)
   84210:	003fd206 	br	8415c <tx_descriptor+0xfff840fc>
   84214:	800b883a 	mov	r5,r16
   84218:	8809883a 	mov	r4,r17
   8421c:	0082b8c0 	call	82b8c <_fflush_r>
   84220:	10000a1e 	bne	r2,zero,8424c <__srefill_r+0x1bc>
   84224:	8080030b 	ldhu	r2,12(r16)
   84228:	00fffdc4 	movi	r3,-9
   8422c:	80000215 	stw	zero,8(r16)
   84230:	1886703a 	and	r3,r3,r2
   84234:	80000615 	stw	zero,24(r16)
   84238:	003fd206 	br	84184 <tx_descriptor+0xfff84124>
   8423c:	00800244 	movi	r2,9
   84240:	88800015 	stw	r2,0(r17)
   84244:	18c01014 	ori	r3,r3,64
   84248:	80c0030d 	sth	r3,12(r16)
   8424c:	00bfffc4 	movi	r2,-1
   84250:	003fc206 	br	8415c <tx_descriptor+0xfff840fc>
   84254:	800b883a 	mov	r5,r16
   84258:	8809883a 	mov	r4,r17
   8425c:	00835840 	call	83584 <__smakebuf_r>
   84260:	003fb106 	br	84128 <tx_descriptor+0xfff840c8>

00084264 <_sbrk_r>:
   84264:	defffd04 	addi	sp,sp,-12
   84268:	dc000015 	stw	r16,0(sp)
   8426c:	04000274 	movhi	r16,9
   84270:	dc400115 	stw	r17,4(sp)
   84274:	8422cd04 	addi	r16,r16,-29900
   84278:	2023883a 	mov	r17,r4
   8427c:	2809883a 	mov	r4,r5
   84280:	dfc00215 	stw	ra,8(sp)
   84284:	80000015 	stw	zero,0(r16)
   84288:	0084ab40 	call	84ab4 <sbrk>
   8428c:	00ffffc4 	movi	r3,-1
   84290:	10c00526 	beq	r2,r3,842a8 <_sbrk_r+0x44>
   84294:	dfc00217 	ldw	ra,8(sp)
   84298:	dc400117 	ldw	r17,4(sp)
   8429c:	dc000017 	ldw	r16,0(sp)
   842a0:	dec00304 	addi	sp,sp,12
   842a4:	f800283a 	ret
   842a8:	80c00017 	ldw	r3,0(r16)
   842ac:	183ff926 	beq	r3,zero,84294 <tx_descriptor+0xfff84234>
   842b0:	88c00015 	stw	r3,0(r17)
   842b4:	003ff706 	br	84294 <tx_descriptor+0xfff84234>

000842b8 <__sread>:
   842b8:	defffe04 	addi	sp,sp,-8
   842bc:	dc000015 	stw	r16,0(sp)
   842c0:	2821883a 	mov	r16,r5
   842c4:	2940038f 	ldh	r5,14(r5)
   842c8:	dfc00115 	stw	ra,4(sp)
   842cc:	00846bc0 	call	846bc <_read_r>
   842d0:	10000716 	blt	r2,zero,842f0 <__sread+0x38>
   842d4:	80c01417 	ldw	r3,80(r16)
   842d8:	1887883a 	add	r3,r3,r2
   842dc:	80c01415 	stw	r3,80(r16)
   842e0:	dfc00117 	ldw	ra,4(sp)
   842e4:	dc000017 	ldw	r16,0(sp)
   842e8:	dec00204 	addi	sp,sp,8
   842ec:	f800283a 	ret
   842f0:	80c0030b 	ldhu	r3,12(r16)
   842f4:	18fbffcc 	andi	r3,r3,61439
   842f8:	80c0030d 	sth	r3,12(r16)
   842fc:	dfc00117 	ldw	ra,4(sp)
   84300:	dc000017 	ldw	r16,0(sp)
   84304:	dec00204 	addi	sp,sp,8
   84308:	f800283a 	ret

0008430c <__seofread>:
   8430c:	0005883a 	mov	r2,zero
   84310:	f800283a 	ret

00084314 <__swrite>:
   84314:	2880030b 	ldhu	r2,12(r5)
   84318:	defffb04 	addi	sp,sp,-20
   8431c:	dcc00315 	stw	r19,12(sp)
   84320:	dc800215 	stw	r18,8(sp)
   84324:	dc400115 	stw	r17,4(sp)
   84328:	dc000015 	stw	r16,0(sp)
   8432c:	dfc00415 	stw	ra,16(sp)
   84330:	10c0400c 	andi	r3,r2,256
   84334:	2821883a 	mov	r16,r5
   84338:	2023883a 	mov	r17,r4
   8433c:	3025883a 	mov	r18,r6
   84340:	3827883a 	mov	r19,r7
   84344:	18000526 	beq	r3,zero,8435c <__swrite+0x48>
   84348:	2940038f 	ldh	r5,14(r5)
   8434c:	01c00084 	movi	r7,2
   84350:	000d883a 	mov	r6,zero
   84354:	008465c0 	call	8465c <_lseek_r>
   84358:	8080030b 	ldhu	r2,12(r16)
   8435c:	8140038f 	ldh	r5,14(r16)
   84360:	10bbffcc 	andi	r2,r2,61439
   84364:	980f883a 	mov	r7,r19
   84368:	900d883a 	mov	r6,r18
   8436c:	8809883a 	mov	r4,r17
   84370:	8080030d 	sth	r2,12(r16)
   84374:	dfc00417 	ldw	ra,16(sp)
   84378:	dcc00317 	ldw	r19,12(sp)
   8437c:	dc800217 	ldw	r18,8(sp)
   84380:	dc400117 	ldw	r17,4(sp)
   84384:	dc000017 	ldw	r16,0(sp)
   84388:	dec00504 	addi	sp,sp,20
   8438c:	00843f41 	jmpi	843f4 <_write_r>

00084390 <__sseek>:
   84390:	defffe04 	addi	sp,sp,-8
   84394:	dc000015 	stw	r16,0(sp)
   84398:	2821883a 	mov	r16,r5
   8439c:	2940038f 	ldh	r5,14(r5)
   843a0:	dfc00115 	stw	ra,4(sp)
   843a4:	008465c0 	call	8465c <_lseek_r>
   843a8:	00ffffc4 	movi	r3,-1
   843ac:	10c00826 	beq	r2,r3,843d0 <__sseek+0x40>
   843b0:	80c0030b 	ldhu	r3,12(r16)
   843b4:	80801415 	stw	r2,80(r16)
   843b8:	18c40014 	ori	r3,r3,4096
   843bc:	80c0030d 	sth	r3,12(r16)
   843c0:	dfc00117 	ldw	ra,4(sp)
   843c4:	dc000017 	ldw	r16,0(sp)
   843c8:	dec00204 	addi	sp,sp,8
   843cc:	f800283a 	ret
   843d0:	80c0030b 	ldhu	r3,12(r16)
   843d4:	18fbffcc 	andi	r3,r3,61439
   843d8:	80c0030d 	sth	r3,12(r16)
   843dc:	dfc00117 	ldw	ra,4(sp)
   843e0:	dc000017 	ldw	r16,0(sp)
   843e4:	dec00204 	addi	sp,sp,8
   843e8:	f800283a 	ret

000843ec <__sclose>:
   843ec:	2940038f 	ldh	r5,14(r5)
   843f0:	00844541 	jmpi	84454 <_close_r>

000843f4 <_write_r>:
   843f4:	defffd04 	addi	sp,sp,-12
   843f8:	2805883a 	mov	r2,r5
   843fc:	dc000015 	stw	r16,0(sp)
   84400:	04000274 	movhi	r16,9
   84404:	dc400115 	stw	r17,4(sp)
   84408:	300b883a 	mov	r5,r6
   8440c:	8422cd04 	addi	r16,r16,-29900
   84410:	2023883a 	mov	r17,r4
   84414:	380d883a 	mov	r6,r7
   84418:	1009883a 	mov	r4,r2
   8441c:	dfc00215 	stw	ra,8(sp)
   84420:	80000015 	stw	zero,0(r16)
   84424:	0084b000 	call	84b00 <write>
   84428:	00ffffc4 	movi	r3,-1
   8442c:	10c00526 	beq	r2,r3,84444 <_write_r+0x50>
   84430:	dfc00217 	ldw	ra,8(sp)
   84434:	dc400117 	ldw	r17,4(sp)
   84438:	dc000017 	ldw	r16,0(sp)
   8443c:	dec00304 	addi	sp,sp,12
   84440:	f800283a 	ret
   84444:	80c00017 	ldw	r3,0(r16)
   84448:	183ff926 	beq	r3,zero,84430 <tx_descriptor+0xfff843d0>
   8444c:	88c00015 	stw	r3,0(r17)
   84450:	003ff706 	br	84430 <tx_descriptor+0xfff843d0>

00084454 <_close_r>:
   84454:	defffd04 	addi	sp,sp,-12
   84458:	dc000015 	stw	r16,0(sp)
   8445c:	04000274 	movhi	r16,9
   84460:	dc400115 	stw	r17,4(sp)
   84464:	8422cd04 	addi	r16,r16,-29900
   84468:	2023883a 	mov	r17,r4
   8446c:	2809883a 	mov	r4,r5
   84470:	dfc00215 	stw	ra,8(sp)
   84474:	80000015 	stw	zero,0(r16)
   84478:	00816d40 	call	816d4 <close>
   8447c:	00ffffc4 	movi	r3,-1
   84480:	10c00526 	beq	r2,r3,84498 <_close_r+0x44>
   84484:	dfc00217 	ldw	ra,8(sp)
   84488:	dc400117 	ldw	r17,4(sp)
   8448c:	dc000017 	ldw	r16,0(sp)
   84490:	dec00304 	addi	sp,sp,12
   84494:	f800283a 	ret
   84498:	80c00017 	ldw	r3,0(r16)
   8449c:	183ff926 	beq	r3,zero,84484 <tx_descriptor+0xfff84424>
   844a0:	88c00015 	stw	r3,0(r17)
   844a4:	003ff706 	br	84484 <tx_descriptor+0xfff84424>

000844a8 <_fclose_r>:
   844a8:	28003926 	beq	r5,zero,84590 <_fclose_r+0xe8>
   844ac:	defffc04 	addi	sp,sp,-16
   844b0:	dc400115 	stw	r17,4(sp)
   844b4:	dc000015 	stw	r16,0(sp)
   844b8:	dfc00315 	stw	ra,12(sp)
   844bc:	dc800215 	stw	r18,8(sp)
   844c0:	2023883a 	mov	r17,r4
   844c4:	2821883a 	mov	r16,r5
   844c8:	20000226 	beq	r4,zero,844d4 <_fclose_r+0x2c>
   844cc:	20800e17 	ldw	r2,56(r4)
   844d0:	10002726 	beq	r2,zero,84570 <_fclose_r+0xc8>
   844d4:	8080030f 	ldh	r2,12(r16)
   844d8:	1000071e 	bne	r2,zero,844f8 <_fclose_r+0x50>
   844dc:	0005883a 	mov	r2,zero
   844e0:	dfc00317 	ldw	ra,12(sp)
   844e4:	dc800217 	ldw	r18,8(sp)
   844e8:	dc400117 	ldw	r17,4(sp)
   844ec:	dc000017 	ldw	r16,0(sp)
   844f0:	dec00404 	addi	sp,sp,16
   844f4:	f800283a 	ret
   844f8:	800b883a 	mov	r5,r16
   844fc:	8809883a 	mov	r4,r17
   84500:	00829700 	call	82970 <__sflush_r>
   84504:	1025883a 	mov	r18,r2
   84508:	80800b17 	ldw	r2,44(r16)
   8450c:	10000426 	beq	r2,zero,84520 <_fclose_r+0x78>
   84510:	81400717 	ldw	r5,28(r16)
   84514:	8809883a 	mov	r4,r17
   84518:	103ee83a 	callr	r2
   8451c:	10001616 	blt	r2,zero,84578 <_fclose_r+0xd0>
   84520:	8080030b 	ldhu	r2,12(r16)
   84524:	1080200c 	andi	r2,r2,128
   84528:	1000151e 	bne	r2,zero,84580 <_fclose_r+0xd8>
   8452c:	81400c17 	ldw	r5,48(r16)
   84530:	28000526 	beq	r5,zero,84548 <_fclose_r+0xa0>
   84534:	80801004 	addi	r2,r16,64
   84538:	28800226 	beq	r5,r2,84544 <_fclose_r+0x9c>
   8453c:	8809883a 	mov	r4,r17
   84540:	00830ec0 	call	830ec <_free_r>
   84544:	80000c15 	stw	zero,48(r16)
   84548:	81401117 	ldw	r5,68(r16)
   8454c:	28000326 	beq	r5,zero,8455c <_fclose_r+0xb4>
   84550:	8809883a 	mov	r4,r17
   84554:	00830ec0 	call	830ec <_free_r>
   84558:	80001115 	stw	zero,68(r16)
   8455c:	0082f880 	call	82f88 <__sfp_lock_acquire>
   84560:	8000030d 	sth	zero,12(r16)
   84564:	0082f8c0 	call	82f8c <__sfp_lock_release>
   84568:	9005883a 	mov	r2,r18
   8456c:	003fdc06 	br	844e0 <tx_descriptor+0xfff84480>
   84570:	0082f780 	call	82f78 <__sinit>
   84574:	003fd706 	br	844d4 <tx_descriptor+0xfff84474>
   84578:	04bfffc4 	movi	r18,-1
   8457c:	003fe806 	br	84520 <tx_descriptor+0xfff844c0>
   84580:	81400417 	ldw	r5,16(r16)
   84584:	8809883a 	mov	r4,r17
   84588:	00830ec0 	call	830ec <_free_r>
   8458c:	003fe706 	br	8452c <tx_descriptor+0xfff844cc>
   84590:	0005883a 	mov	r2,zero
   84594:	f800283a 	ret

00084598 <fclose>:
   84598:	00800234 	movhi	r2,8
   8459c:	109b0a04 	addi	r2,r2,27688
   845a0:	200b883a 	mov	r5,r4
   845a4:	11000017 	ldw	r4,0(r2)
   845a8:	00844a81 	jmpi	844a8 <_fclose_r>

000845ac <_fstat_r>:
   845ac:	defffd04 	addi	sp,sp,-12
   845b0:	2805883a 	mov	r2,r5
   845b4:	dc000015 	stw	r16,0(sp)
   845b8:	04000274 	movhi	r16,9
   845bc:	dc400115 	stw	r17,4(sp)
   845c0:	8422cd04 	addi	r16,r16,-29900
   845c4:	2023883a 	mov	r17,r4
   845c8:	300b883a 	mov	r5,r6
   845cc:	1009883a 	mov	r4,r2
   845d0:	dfc00215 	stw	ra,8(sp)
   845d4:	80000015 	stw	zero,0(r16)
   845d8:	00847580 	call	84758 <fstat>
   845dc:	00ffffc4 	movi	r3,-1
   845e0:	10c00526 	beq	r2,r3,845f8 <_fstat_r+0x4c>
   845e4:	dfc00217 	ldw	ra,8(sp)
   845e8:	dc400117 	ldw	r17,4(sp)
   845ec:	dc000017 	ldw	r16,0(sp)
   845f0:	dec00304 	addi	sp,sp,12
   845f4:	f800283a 	ret
   845f8:	80c00017 	ldw	r3,0(r16)
   845fc:	183ff926 	beq	r3,zero,845e4 <tx_descriptor+0xfff84584>
   84600:	88c00015 	stw	r3,0(r17)
   84604:	003ff706 	br	845e4 <tx_descriptor+0xfff84584>

00084608 <_isatty_r>:
   84608:	defffd04 	addi	sp,sp,-12
   8460c:	dc000015 	stw	r16,0(sp)
   84610:	04000274 	movhi	r16,9
   84614:	dc400115 	stw	r17,4(sp)
   84618:	8422cd04 	addi	r16,r16,-29900
   8461c:	2023883a 	mov	r17,r4
   84620:	2809883a 	mov	r4,r5
   84624:	dfc00215 	stw	ra,8(sp)
   84628:	80000015 	stw	zero,0(r16)
   8462c:	008480c0 	call	8480c <isatty>
   84630:	00ffffc4 	movi	r3,-1
   84634:	10c00526 	beq	r2,r3,8464c <_isatty_r+0x44>
   84638:	dfc00217 	ldw	ra,8(sp)
   8463c:	dc400117 	ldw	r17,4(sp)
   84640:	dc000017 	ldw	r16,0(sp)
   84644:	dec00304 	addi	sp,sp,12
   84648:	f800283a 	ret
   8464c:	80c00017 	ldw	r3,0(r16)
   84650:	183ff926 	beq	r3,zero,84638 <tx_descriptor+0xfff845d8>
   84654:	88c00015 	stw	r3,0(r17)
   84658:	003ff706 	br	84638 <tx_descriptor+0xfff845d8>

0008465c <_lseek_r>:
   8465c:	defffd04 	addi	sp,sp,-12
   84660:	2805883a 	mov	r2,r5
   84664:	dc000015 	stw	r16,0(sp)
   84668:	04000274 	movhi	r16,9
   8466c:	dc400115 	stw	r17,4(sp)
   84670:	300b883a 	mov	r5,r6
   84674:	8422cd04 	addi	r16,r16,-29900
   84678:	2023883a 	mov	r17,r4
   8467c:	380d883a 	mov	r6,r7
   84680:	1009883a 	mov	r4,r2
   84684:	dfc00215 	stw	ra,8(sp)
   84688:	80000015 	stw	zero,0(r16)
   8468c:	00848ac0 	call	848ac <lseek>
   84690:	00ffffc4 	movi	r3,-1
   84694:	10c00526 	beq	r2,r3,846ac <_lseek_r+0x50>
   84698:	dfc00217 	ldw	ra,8(sp)
   8469c:	dc400117 	ldw	r17,4(sp)
   846a0:	dc000017 	ldw	r16,0(sp)
   846a4:	dec00304 	addi	sp,sp,12
   846a8:	f800283a 	ret
   846ac:	80c00017 	ldw	r3,0(r16)
   846b0:	183ff926 	beq	r3,zero,84698 <tx_descriptor+0xfff84638>
   846b4:	88c00015 	stw	r3,0(r17)
   846b8:	003ff706 	br	84698 <tx_descriptor+0xfff84638>

000846bc <_read_r>:
   846bc:	defffd04 	addi	sp,sp,-12
   846c0:	2805883a 	mov	r2,r5
   846c4:	dc000015 	stw	r16,0(sp)
   846c8:	04000274 	movhi	r16,9
   846cc:	dc400115 	stw	r17,4(sp)
   846d0:	300b883a 	mov	r5,r6
   846d4:	8422cd04 	addi	r16,r16,-29900
   846d8:	2023883a 	mov	r17,r4
   846dc:	380d883a 	mov	r6,r7
   846e0:	1009883a 	mov	r4,r2
   846e4:	dfc00215 	stw	ra,8(sp)
   846e8:	80000015 	stw	zero,0(r16)
   846ec:	008498c0 	call	8498c <read>
   846f0:	00ffffc4 	movi	r3,-1
   846f4:	10c00526 	beq	r2,r3,8470c <_read_r+0x50>
   846f8:	dfc00217 	ldw	ra,8(sp)
   846fc:	dc400117 	ldw	r17,4(sp)
   84700:	dc000017 	ldw	r16,0(sp)
   84704:	dec00304 	addi	sp,sp,12
   84708:	f800283a 	ret
   8470c:	80c00017 	ldw	r3,0(r16)
   84710:	183ff926 	beq	r3,zero,846f8 <tx_descriptor+0xfff84698>
   84714:	88c00015 	stw	r3,0(r17)
   84718:	003ff706 	br	846f8 <tx_descriptor+0xfff84698>

0008471c <__mulsi3>:
   8471c:	0005883a 	mov	r2,zero
   84720:	20000726 	beq	r4,zero,84740 <__mulsi3+0x24>
   84724:	20c0004c 	andi	r3,r4,1
   84728:	2008d07a 	srli	r4,r4,1
   8472c:	18000126 	beq	r3,zero,84734 <__mulsi3+0x18>
   84730:	1145883a 	add	r2,r2,r5
   84734:	294b883a 	add	r5,r5,r5
   84738:	203ffa1e 	bne	r4,zero,84724 <tx_descriptor+0xfff846c4>
   8473c:	f800283a 	ret
   84740:	f800283a 	ret

00084744 <_exit>:
  __asm__ volatile ("\n0:\n\taddi %0,%0, -1\n\tbgt %0,zero,0b" : : "r" (ALT_CPU_FREQ/100) ); /* Delay for >30ms */

  __asm__ volatile ("break 2" : : "r"(r2), "r"(r3) ALT_GMON_DATA );

#else /* !DEBUG_STUB */
  if (r2) {
   84744:	20000226 	beq	r4,zero,84750 <_exit+0xc>
    ALT_SIM_FAIL();
   84748:	002af070 	cmpltui	zero,zero,43969
   8474c:	00000106 	br	84754 <_exit+0x10>
  } else {
    ALT_SIM_PASS();
   84750:	002af0b0 	cmpltui	zero,zero,43970
   84754:	003fff06 	br	84754 <tx_descriptor+0xfff846f4>

00084758 <fstat>:
}

#else /* !ALT_USE_DIRECT_DRIVERS */

int ALT_FSTAT (int file, struct stat *st)
{
   84758:	defffc04 	addi	sp,sp,-16
   8475c:	dfc00315 	stw	ra,12(sp)
   84760:	dc800215 	stw	r18,8(sp)
   84764:	dc400115 	stw	r17,4(sp)
   84768:	dc000015 	stw	r16,0(sp)
   * A common error case is that when the file descriptor was created, the call
   * to open() failed resulting in a negative file descriptor. This is trapped
   * below so that we don't try and process an invalid file descriptor.
   */

  fd = (file < 0) ? NULL : &alt_fd_list[file];
   8476c:	20001916 	blt	r4,zero,847d4 <fstat+0x7c>
   84770:	2021883a 	mov	r16,r4
   84774:	2825883a 	mov	r18,r5
   84778:	01400304 	movi	r5,12
   8477c:	008471c0 	call	8471c <__mulsi3>
   84780:	04400234 	movhi	r17,8
   84784:	8c588904 	addi	r17,r17,25124
   84788:	1463883a 	add	r17,r2,r17
  
  if (fd)
   8478c:	88001126 	beq	r17,zero,847d4 <fstat+0x7c>
  {
    /* Call the drivers fstat() function to fill out the "st" structure. */

    if (fd->dev->fstat)
   84790:	01400304 	movi	r5,12
   84794:	8009883a 	mov	r4,r16
   84798:	008471c0 	call	8471c <__mulsi3>
   8479c:	00c00234 	movhi	r3,8
   847a0:	18d88904 	addi	r3,r3,25124
   847a4:	1885883a 	add	r2,r3,r2
   847a8:	10800017 	ldw	r2,0(r2)
   847ac:	10800817 	ldw	r2,32(r2)
   847b0:	10000426 	beq	r2,zero,847c4 <fstat+0x6c>
    {
      return fd->dev->fstat(fd, st);
   847b4:	900b883a 	mov	r5,r18
   847b8:	8809883a 	mov	r4,r17
   847bc:	103ee83a 	callr	r2
   847c0:	00000c06 	br	847f4 <fstat+0x9c>
     * device.
     */
 
    else
    {
      st->st_mode = _IFCHR;
   847c4:	00880004 	movi	r2,8192
   847c8:	90800115 	stw	r2,4(r18)
      return 0;
   847cc:	0005883a 	mov	r2,zero
   847d0:	00000806 	br	847f4 <fstat+0x9c>
   847d4:	d0a00717 	ldw	r2,-32740(gp)
   847d8:	10000226 	beq	r2,zero,847e4 <fstat+0x8c>
   847dc:	103ee83a 	callr	r2
   847e0:	00000106 	br	847e8 <fstat+0x90>
   847e4:	d0a7cf04 	addi	r2,gp,-24772
    }
  }
  else
  {
    ALT_ERRNO = EBADFD;
   847e8:	00c01444 	movi	r3,81
   847ec:	10c00015 	stw	r3,0(r2)
    return -1;
   847f0:	00bfffc4 	movi	r2,-1
  }
}
   847f4:	dfc00317 	ldw	ra,12(sp)
   847f8:	dc800217 	ldw	r18,8(sp)
   847fc:	dc400117 	ldw	r17,4(sp)
   84800:	dc000017 	ldw	r16,0(sp)
   84804:	dec00404 	addi	sp,sp,16
   84808:	f800283a 	ret

0008480c <isatty>:
 *
 * ALT_ISATTY is mapped onto the isatty() system call in alt_syscall.h
 */
 
int ALT_ISATTY (int file)
{
   8480c:	deffef04 	addi	sp,sp,-68
   84810:	dfc01015 	stw	ra,64(sp)
   84814:	dc000f15 	stw	r16,60(sp)
   * A common error case is that when the file descriptor was created, the call
   * to open() failed resulting in a negative file descriptor. This is trapped
   * below so that we don't try and process an invalid file descriptor.
   */

  fd = (file < 0) ? NULL : &alt_fd_list[file];
   84818:	20001616 	blt	r4,zero,84874 <isatty+0x68>
   8481c:	2021883a 	mov	r16,r4
   84820:	01400304 	movi	r5,12
   84824:	008471c0 	call	8471c <__mulsi3>
   84828:	00c00234 	movhi	r3,8
   8482c:	18d88904 	addi	r3,r3,25124
   84830:	10c5883a 	add	r2,r2,r3
  
  if (fd)
   84834:	10000f26 	beq	r2,zero,84874 <isatty+0x68>
    /*
     * If a device driver does not provide an fstat() function, then it is 
     * treated as a terminal device by default.
     */

    if (!fd->dev->fstat)
   84838:	01400304 	movi	r5,12
   8483c:	8009883a 	mov	r4,r16
   84840:	008471c0 	call	8471c <__mulsi3>
   84844:	00c00234 	movhi	r3,8
   84848:	18d88904 	addi	r3,r3,25124
   8484c:	1885883a 	add	r2,r3,r2
   84850:	10800017 	ldw	r2,0(r2)
   84854:	10800817 	ldw	r2,32(r2)
   84858:	10000f26 	beq	r2,zero,84898 <isatty+0x8c>
     * this is called so that the device can identify itself.
     */ 

    else
    {
      fstat (file, &stat);
   8485c:	d80b883a 	mov	r5,sp
   84860:	8009883a 	mov	r4,r16
   84864:	00847580 	call	84758 <fstat>
      return (stat.st_mode == _IFCHR) ? 1 : 0;
   84868:	d8800117 	ldw	r2,4(sp)
   8486c:	10880020 	cmpeqi	r2,r2,8192
   84870:	00000a06 	br	8489c <isatty+0x90>
   84874:	d0a00717 	ldw	r2,-32740(gp)
   84878:	10000226 	beq	r2,zero,84884 <isatty+0x78>
   8487c:	103ee83a 	callr	r2
   84880:	00000106 	br	84888 <isatty+0x7c>
   84884:	d0a7cf04 	addi	r2,gp,-24772
    }
  }
  else
  {
    ALT_ERRNO = EBADFD;
   84888:	00c01444 	movi	r3,81
   8488c:	10c00015 	stw	r3,0(r2)
    return 0;
   84890:	0005883a 	mov	r2,zero
   84894:	00000106 	br	8489c <isatty+0x90>
     * treated as a terminal device by default.
     */

    if (!fd->dev->fstat)
    {
      return 1;
   84898:	00800044 	movi	r2,1
  else
  {
    ALT_ERRNO = EBADFD;
    return 0;
  }
}
   8489c:	dfc01017 	ldw	ra,64(sp)
   848a0:	dc000f17 	ldw	r16,60(sp)
   848a4:	dec01104 	addi	sp,sp,68
   848a8:	f800283a 	ret

000848ac <lseek>:
 * ALT_LSEEK is mapped onto the lseek() system call in alt_syscall.h
 *
 */

off_t ALT_LSEEK (int file, off_t ptr, int dir)
{
   848ac:	defffb04 	addi	sp,sp,-20
   848b0:	dfc00415 	stw	ra,16(sp)
   848b4:	dcc00315 	stw	r19,12(sp)
   848b8:	dc800215 	stw	r18,8(sp)
   848bc:	dc400115 	stw	r17,4(sp)
   848c0:	dc000015 	stw	r16,0(sp)
   * A common error case is that when the file descriptor was created, the call
   * to open() failed resulting in a negative file descriptor. This is trapped
   * below so that we don't try and process an invalid file descriptor.
   */

  fd = (file < 0) ? NULL : &alt_fd_list[file];
   848c4:	20001916 	blt	r4,zero,8492c <lseek+0x80>
   848c8:	2021883a 	mov	r16,r4
   848cc:	2825883a 	mov	r18,r5
   848d0:	3027883a 	mov	r19,r6
   848d4:	01400304 	movi	r5,12
   848d8:	008471c0 	call	8471c <__mulsi3>
   848dc:	04400234 	movhi	r17,8
   848e0:	8c588904 	addi	r17,r17,25124
   848e4:	1463883a 	add	r17,r2,r17
  
  if (fd) 
   848e8:	88001a26 	beq	r17,zero,84954 <lseek+0xa8>
    /*
     * If the device driver provides an implementation of the lseek() function,
     * then call that to process the request.
     */
 
    if (fd->dev->lseek)
   848ec:	01400304 	movi	r5,12
   848f0:	8009883a 	mov	r4,r16
   848f4:	008471c0 	call	8471c <__mulsi3>
   848f8:	00c00234 	movhi	r3,8
   848fc:	18d88904 	addi	r3,r3,25124
   84900:	1885883a 	add	r2,r3,r2
   84904:	10800017 	ldw	r2,0(r2)
   84908:	10800717 	ldw	r2,28(r2)
   8490c:	10001326 	beq	r2,zero,8495c <lseek+0xb0>
    {
      rc = fd->dev->lseek(fd, ptr, dir);
   84910:	980d883a 	mov	r6,r19
   84914:	900b883a 	mov	r5,r18
   84918:	8809883a 	mov	r4,r17
   8491c:	103ee83a 	callr	r2
   84920:	1021883a 	mov	r16,r2
  else  
  {
    rc = -EBADFD;
  }

  if (rc < 0)
   84924:	10000f0e 	bge	r2,zero,84964 <lseek+0xb8>
   84928:	00000106 	br	84930 <lseek+0x84>
      rc = -ENOTSUP;
    }
  }
  else  
  {
    rc = -EBADFD;
   8492c:	043febc4 	movi	r16,-81
   84930:	d0a00717 	ldw	r2,-32740(gp)
   84934:	10000226 	beq	r2,zero,84940 <lseek+0x94>
   84938:	103ee83a 	callr	r2
   8493c:	00000106 	br	84944 <lseek+0x98>
   84940:	d0a7cf04 	addi	r2,gp,-24772
  }

  if (rc < 0)
  {
    ALT_ERRNO = -rc;
   84944:	0421c83a 	sub	r16,zero,r16
   84948:	14000015 	stw	r16,0(r2)
    rc = -1;
   8494c:	043fffc4 	movi	r16,-1
  }

  return rc;
   84950:	00000406 	br	84964 <lseek+0xb8>
      rc = -ENOTSUP;
    }
  }
  else  
  {
    rc = -EBADFD;
   84954:	043febc4 	movi	r16,-81
   84958:	003ff506 	br	84930 <tx_descriptor+0xfff848d0>
     * Otherwise return an error.
     */

    else
    {
      rc = -ENOTSUP;
   8495c:	043fde84 	movi	r16,-134
   84960:	003ff306 	br	84930 <tx_descriptor+0xfff848d0>
    ALT_ERRNO = -rc;
    rc = -1;
  }

  return rc;
}
   84964:	8005883a 	mov	r2,r16
   84968:	dfc00417 	ldw	ra,16(sp)
   8496c:	dcc00317 	ldw	r19,12(sp)
   84970:	dc800217 	ldw	r18,8(sp)
   84974:	dc400117 	ldw	r17,4(sp)
   84978:	dc000017 	ldw	r16,0(sp)
   8497c:	dec00504 	addi	sp,sp,20
   84980:	f800283a 	ret

00084984 <__malloc_lock>:
 * configuration is single threaded, so there is nothing to do here. Note that 
 * this requires that malloc is never called by an interrupt service routine.
 */

void __malloc_lock ( struct _reent *_r )
{
   84984:	f800283a 	ret

00084988 <__malloc_unlock>:
/*
 *
 */

void __malloc_unlock ( struct _reent *_r )
{
   84988:	f800283a 	ret

0008498c <read>:
}

#else /* !ALT_USE_DIRECT_DRIVERS */

int ALT_READ (int file, void *ptr, size_t len)
{
   8498c:	defffb04 	addi	sp,sp,-20
   84990:	dfc00415 	stw	ra,16(sp)
   84994:	dcc00315 	stw	r19,12(sp)
   84998:	dc800215 	stw	r18,8(sp)
   8499c:	dc400115 	stw	r17,4(sp)
   849a0:	dc000015 	stw	r16,0(sp)
   * A common error case is that when the file descriptor was created, the call
   * to open() failed resulting in a negative file descriptor. This is trapped
   * below so that we don't try and process an invalid file descriptor.
   */

  fd = (file < 0) ? NULL : &alt_fd_list[file];
   849a4:	20003416 	blt	r4,zero,84a78 <read+0xec>
   849a8:	2021883a 	mov	r16,r4
   849ac:	2825883a 	mov	r18,r5
   849b0:	3027883a 	mov	r19,r6
   849b4:	01400304 	movi	r5,12
   849b8:	008471c0 	call	8471c <__mulsi3>
   849bc:	04400234 	movhi	r17,8
   849c0:	8c588904 	addi	r17,r17,25124
   849c4:	1463883a 	add	r17,r2,r17
  
  if (fd)
   849c8:	88002b26 	beq	r17,zero,84a78 <read+0xec>
     * If the file has not been opened with read access, or if the driver does
     * not provide an implementation of read(), generate an error. Otherwise
     * call the drivers read() function to process the request.
     */

    if (((fd->fd_flags & O_ACCMODE) != O_WRONLY) && 
   849cc:	01400304 	movi	r5,12
   849d0:	8009883a 	mov	r4,r16
   849d4:	008471c0 	call	8471c <__mulsi3>
   849d8:	00c00234 	movhi	r3,8
   849dc:	18d88b04 	addi	r3,r3,25132
   849e0:	10c5883a 	add	r2,r2,r3
   849e4:	10800017 	ldw	r2,0(r2)
   849e8:	108000cc 	andi	r2,r2,3
   849ec:	00c00044 	movi	r3,1
   849f0:	10c01826 	beq	r2,r3,84a54 <read+0xc8>
        (fd->dev->read))
   849f4:	01400304 	movi	r5,12
   849f8:	8009883a 	mov	r4,r16
   849fc:	008471c0 	call	8471c <__mulsi3>
   84a00:	00c00234 	movhi	r3,8
   84a04:	18d88904 	addi	r3,r3,25124
   84a08:	1885883a 	add	r2,r3,r2
   84a0c:	10800017 	ldw	r2,0(r2)
   84a10:	10800517 	ldw	r2,20(r2)
     * If the file has not been opened with read access, or if the driver does
     * not provide an implementation of read(), generate an error. Otherwise
     * call the drivers read() function to process the request.
     */

    if (((fd->fd_flags & O_ACCMODE) != O_WRONLY) && 
   84a14:	10000f26 	beq	r2,zero,84a54 <read+0xc8>
        (fd->dev->read))
      {
        if ((rval = fd->dev->read(fd, ptr, len)) < 0)
   84a18:	980d883a 	mov	r6,r19
   84a1c:	900b883a 	mov	r5,r18
   84a20:	8809883a 	mov	r4,r17
   84a24:	103ee83a 	callr	r2
   84a28:	1021883a 	mov	r16,r2
   84a2c:	10001a0e 	bge	r2,zero,84a98 <read+0x10c>
   84a30:	d0a00717 	ldw	r2,-32740(gp)
   84a34:	10000226 	beq	r2,zero,84a40 <read+0xb4>
   84a38:	103ee83a 	callr	r2
   84a3c:	00000106 	br	84a44 <read+0xb8>
   84a40:	d0a7cf04 	addi	r2,gp,-24772
        {
          ALT_ERRNO = -rval;
   84a44:	0421c83a 	sub	r16,zero,r16
   84a48:	14000015 	stw	r16,0(r2)
          return -1;
   84a4c:	00bfffc4 	movi	r2,-1
   84a50:	00001106 	br	84a98 <read+0x10c>
   84a54:	d0a00717 	ldw	r2,-32740(gp)
   84a58:	10000226 	beq	r2,zero,84a64 <read+0xd8>
   84a5c:	103ee83a 	callr	r2
   84a60:	00000106 	br	84a68 <read+0xdc>
   84a64:	d0a7cf04 	addi	r2,gp,-24772
        }
        return rval;
      }
      else
      {
        ALT_ERRNO = EACCES;
   84a68:	00c00344 	movi	r3,13
   84a6c:	10c00015 	stw	r3,0(r2)
    }
  else
  {
    ALT_ERRNO = EBADFD;
  }
  return -1;
   84a70:	00bfffc4 	movi	r2,-1
   84a74:	00000806 	br	84a98 <read+0x10c>
   84a78:	d0a00717 	ldw	r2,-32740(gp)
   84a7c:	10000226 	beq	r2,zero,84a88 <read+0xfc>
   84a80:	103ee83a 	callr	r2
   84a84:	00000106 	br	84a8c <read+0x100>
   84a88:	d0a7cf04 	addi	r2,gp,-24772
        ALT_ERRNO = EACCES;
      }
    }
  else
  {
    ALT_ERRNO = EBADFD;
   84a8c:	00c01444 	movi	r3,81
   84a90:	10c00015 	stw	r3,0(r2)
  }
  return -1;
   84a94:	00bfffc4 	movi	r2,-1
}
   84a98:	dfc00417 	ldw	ra,16(sp)
   84a9c:	dcc00317 	ldw	r19,12(sp)
   84aa0:	dc800217 	ldw	r18,8(sp)
   84aa4:	dc400117 	ldw	r17,4(sp)
   84aa8:	dc000017 	ldw	r16,0(sp)
   84aac:	dec00504 	addi	sp,sp,20
   84ab0:	f800283a 	ret

00084ab4 <sbrk>:
static ALT_INLINE alt_irq_context ALT_ALWAYS_INLINE 
       alt_irq_disable_all (void)
{
  alt_irq_context context;

  NIOS2_READ_STATUS (context);
   84ab4:	000b303a 	rdctl	r5,status

  NIOS2_WRITE_STATUS (context & ~NIOS2_STATUS_PIE_MSK);
   84ab8:	00bfff84 	movi	r2,-2
   84abc:	2884703a 	and	r2,r5,r2
   84ac0:	1001703a 	wrctl	status,r2
  char *prev_heap_end; 

  context = alt_irq_disable_all();

  /* Always return data aligned on a word boundary */
  heap_end = (char *)(((unsigned int)heap_end + 3) & ~3);
   84ac4:	d0a00f17 	ldw	r2,-32708(gp)
   84ac8:	108000c4 	addi	r2,r2,3
   84acc:	00ffff04 	movi	r3,-4
   84ad0:	10c4703a 	and	r2,r2,r3
   84ad4:	d0a00f15 	stw	r2,-32708(gp)
  if (((heap_end + incr) - __alt_heap_start) > ALT_MAX_HEAP_BYTES) {
    alt_irq_enable_all(context);
    return (caddr_t)-1;
  }
#else
  if ((heap_end + incr) > __alt_heap_limit) {
   84ad8:	1109883a 	add	r4,r2,r4
   84adc:	00c00374 	movhi	r3,13
   84ae0:	18ec0004 	addi	r3,r3,-20480
   84ae4:	1900032e 	bgeu	r3,r4,84af4 <sbrk+0x40>
  status &= ~NIOS2_STATUS_PIE_MSK;
  status |= (context & NIOS2_STATUS_PIE_MSK);
  
  NIOS2_WRITE_STATUS (status);
#else
  NIOS2_WRITE_STATUS (context);
   84ae8:	2801703a 	wrctl	status,r5
    alt_irq_enable_all(context);
    return (caddr_t)-1;
   84aec:	00bfffc4 	movi	r2,-1
   84af0:	f800283a 	ret
  }
#endif

  prev_heap_end = heap_end; 
  heap_end += incr; 
   84af4:	d1200f15 	stw	r4,-32708(gp)
   84af8:	2801703a 	wrctl	status,r5
#endif

  alt_irq_enable_all(context);

  return (caddr_t) prev_heap_end; 
} 
   84afc:	f800283a 	ret

00084b00 <write>:
}

#else /* !ALT_USE_DIRECT_DRIVERS */

int ALT_WRITE (int file, const void *ptr, size_t len)
{
   84b00:	defffb04 	addi	sp,sp,-20
   84b04:	dfc00415 	stw	ra,16(sp)
   84b08:	dcc00315 	stw	r19,12(sp)
   84b0c:	dc800215 	stw	r18,8(sp)
   84b10:	dc400115 	stw	r17,4(sp)
   84b14:	dc000015 	stw	r16,0(sp)
   * A common error case is that when the file descriptor was created, the call
   * to open() failed resulting in a negative file descriptor. This is trapped
   * below so that we don't try and process an invalid file descriptor.
   */

  fd = (file < 0) ? NULL : &alt_fd_list[file];
   84b18:	20003316 	blt	r4,zero,84be8 <write+0xe8>
   84b1c:	2021883a 	mov	r16,r4
   84b20:	2825883a 	mov	r18,r5
   84b24:	3027883a 	mov	r19,r6
   84b28:	01400304 	movi	r5,12
   84b2c:	008471c0 	call	8471c <__mulsi3>
   84b30:	04400234 	movhi	r17,8
   84b34:	8c588904 	addi	r17,r17,25124
   84b38:	1463883a 	add	r17,r2,r17
  
  if (fd)
   84b3c:	88002a26 	beq	r17,zero,84be8 <write+0xe8>
     * If the file has not been opened with write access, or if the driver does
     * not provide an implementation of write(), generate an error. Otherwise
     * call the drivers write() function to process the request.
     */

    if (((fd->fd_flags & O_ACCMODE) != O_RDONLY) && fd->dev->write)
   84b40:	01400304 	movi	r5,12
   84b44:	8009883a 	mov	r4,r16
   84b48:	008471c0 	call	8471c <__mulsi3>
   84b4c:	00c00234 	movhi	r3,8
   84b50:	18d88b04 	addi	r3,r3,25132
   84b54:	10c5883a 	add	r2,r2,r3
   84b58:	10800017 	ldw	r2,0(r2)
   84b5c:	108000cc 	andi	r2,r2,3
   84b60:	10001826 	beq	r2,zero,84bc4 <write+0xc4>
   84b64:	01400304 	movi	r5,12
   84b68:	8009883a 	mov	r4,r16
   84b6c:	008471c0 	call	8471c <__mulsi3>
   84b70:	00c00234 	movhi	r3,8
   84b74:	18d88904 	addi	r3,r3,25124
   84b78:	1885883a 	add	r2,r3,r2
   84b7c:	10800017 	ldw	r2,0(r2)
   84b80:	10800617 	ldw	r2,24(r2)
   84b84:	10000f26 	beq	r2,zero,84bc4 <write+0xc4>
    {
      
      /* ALT_LOG - see altera_hal/HAL/inc/sys/alt_log_printf.h */
      ALT_LOG_WRITE_FUNCTION(ptr,len);

      if ((rval = fd->dev->write(fd, ptr, len)) < 0)
   84b88:	980d883a 	mov	r6,r19
   84b8c:	900b883a 	mov	r5,r18
   84b90:	8809883a 	mov	r4,r17
   84b94:	103ee83a 	callr	r2
   84b98:	1021883a 	mov	r16,r2
   84b9c:	10001a0e 	bge	r2,zero,84c08 <write+0x108>
   84ba0:	d0a00717 	ldw	r2,-32740(gp)
   84ba4:	10000226 	beq	r2,zero,84bb0 <write+0xb0>
   84ba8:	103ee83a 	callr	r2
   84bac:	00000106 	br	84bb4 <write+0xb4>
   84bb0:	d0a7cf04 	addi	r2,gp,-24772
      {
        ALT_ERRNO = -rval;
   84bb4:	0421c83a 	sub	r16,zero,r16
   84bb8:	14000015 	stw	r16,0(r2)
        return -1;
   84bbc:	00bfffc4 	movi	r2,-1
   84bc0:	00001106 	br	84c08 <write+0x108>
   84bc4:	d0a00717 	ldw	r2,-32740(gp)
   84bc8:	10000226 	beq	r2,zero,84bd4 <write+0xd4>
   84bcc:	103ee83a 	callr	r2
   84bd0:	00000106 	br	84bd8 <write+0xd8>
   84bd4:	d0a7cf04 	addi	r2,gp,-24772
      }
      return rval;
    }
    else
    {
      ALT_ERRNO = EACCES;
   84bd8:	00c00344 	movi	r3,13
   84bdc:	10c00015 	stw	r3,0(r2)
  }
  else  
  {
    ALT_ERRNO = EBADFD;
  }
  return -1;
   84be0:	00bfffc4 	movi	r2,-1
   84be4:	00000806 	br	84c08 <write+0x108>
   84be8:	d0a00717 	ldw	r2,-32740(gp)
   84bec:	10000226 	beq	r2,zero,84bf8 <write+0xf8>
   84bf0:	103ee83a 	callr	r2
   84bf4:	00000106 	br	84bfc <write+0xfc>
   84bf8:	d0a7cf04 	addi	r2,gp,-24772
      ALT_ERRNO = EACCES;
    }
  }
  else  
  {
    ALT_ERRNO = EBADFD;
   84bfc:	00c01444 	movi	r3,81
   84c00:	10c00015 	stw	r3,0(r2)
  }
  return -1;
   84c04:	00bfffc4 	movi	r2,-1
}
   84c08:	dfc00417 	ldw	ra,16(sp)
   84c0c:	dcc00317 	ldw	r19,12(sp)
   84c10:	dc800217 	ldw	r18,8(sp)
   84c14:	dc400117 	ldw	r17,4(sp)
   84c18:	dc000017 	ldw	r16,0(sp)
   84c1c:	dec00504 	addi	sp,sp,20
   84c20:	f800283a 	ret
