
C:/Users/julia/Documents/MicArrayProject/Ethernet/tse_tutorial/app_software/tse_tutorial.elf:     file format elf32-littlenios2
C:/Users/julia/Documents/MicArrayProject/Ethernet/tse_tutorial/app_software/tse_tutorial.elf
architecture: nios2:r1, flags 0x00000112:
EXEC_P, HAS_SYMS, D_PAGED
start address 0x000801a8

Program Header:
    LOAD off    0x00001000 vaddr 0x00080000 paddr 0x00080000 align 2**12
         filesz 0x00000020 memsz 0x00000020 flags r-x
    LOAD off    0x00001020 vaddr 0x00080020 paddr 0x00080020 align 2**12
         filesz 0x00004d38 memsz 0x00004d38 flags r-x
    LOAD off    0x00005d58 vaddr 0x00084d58 paddr 0x00086c2c align 2**12
         filesz 0x00001ed4 memsz 0x00001ed4 flags rw-
    LOAD off    0x00008b00 vaddr 0x00088b00 paddr 0x00088b00 align 2**12
         filesz 0x00000000 memsz 0x00000560 flags rw-
    LOAD off    0x00008000 vaddr 0x00100000 paddr 0x00089060 align 2**12
         filesz 0x00000080 memsz 0x00000080 flags rw-

Sections:
Idx Name          Size      VMA       LMA       File off  Algn
  0 .entry        00000020  00080000  00080000  00001000  2**5
                  CONTENTS, ALLOC, LOAD, READONLY, CODE
  1 .exceptions   00000188  00080020  00080020  00001020  2**2
                  CONTENTS, ALLOC, LOAD, READONLY, CODE
  2 .text         00004a70  000801a8  000801a8  000011a8  2**2
                  CONTENTS, ALLOC, LOAD, READONLY, CODE
  3 .rodata       00000140  00084c18  00084c18  00005c18  2**2
                  CONTENTS, ALLOC, LOAD, READONLY, DATA
  4 .rwdata       00001ed4  00084d58  00086c2c  00005d58  2**2
                  CONTENTS, ALLOC, LOAD, DATA, SMALL_DATA
  5 .bss          00000560  00088b00  00088b00  00008b00  2**2
                  ALLOC, SMALL_DATA
  6 .main_memory  00000000  00089060  00089060  00008080  2**0
                  CONTENTS
  7 .descriptor_memory 00000080  00100000  00089060  00008000  2**0
                  CONTENTS, ALLOC, LOAD, DATA
  8 .comment      00000023  00000000  00000000  00008080  2**0
                  CONTENTS, READONLY
  9 .debug_aranges 00000a30  00000000  00000000  000080a8  2**3
                  CONTENTS, READONLY, DEBUGGING
 10 .debug_info   00018fcf  00000000  00000000  00008ad8  2**0
                  CONTENTS, READONLY, DEBUGGING
 11 .debug_abbrev 00006aa7  00000000  00000000  00021aa7  2**0
                  CONTENTS, READONLY, DEBUGGING
 12 .debug_line   00006ccd  00000000  00000000  0002854e  2**0
                  CONTENTS, READONLY, DEBUGGING
 13 .debug_frame  00001480  00000000  00000000  0002f21c  2**2
                  CONTENTS, READONLY, DEBUGGING
 14 .debug_str    00002b1c  00000000  00000000  0003069c  2**0
                  CONTENTS, READONLY, DEBUGGING
 15 .debug_loc    00005b2d  00000000  00000000  000331b8  2**0
                  CONTENTS, READONLY, DEBUGGING
 16 .debug_alt_sim_info 00000010  00000000  00000000  00038ce8  2**2
                  CONTENTS, READONLY, DEBUGGING
 17 .debug_ranges 00000600  00000000  00000000  00038cf8  2**3
                  CONTENTS, READONLY, DEBUGGING
 18 .thread_model 00000003  00000000  00000000  0003bb32  2**0
                  CONTENTS, READONLY
 19 .cpu          0000000c  00000000  00000000  0003bb35  2**0
                  CONTENTS, READONLY
 20 .qsys         00000001  00000000  00000000  0003bb41  2**0
                  CONTENTS, READONLY
 21 .simulation_enabled 00000001  00000000  00000000  0003bb42  2**0
                  CONTENTS, READONLY
 22 .stderr_dev   00000009  00000000  00000000  0003bb43  2**0
                  CONTENTS, READONLY
 23 .stdin_dev    00000009  00000000  00000000  0003bb4c  2**0
                  CONTENTS, READONLY
 24 .stdout_dev   00000009  00000000  00000000  0003bb55  2**0
                  CONTENTS, READONLY
 25 .sopc_system_name 0000000b  00000000  00000000  0003bb5e  2**0
                  CONTENTS, READONLY
SYMBOL TABLE:
00080000 l    d  .entry	00000000 .entry
00080020 l    d  .exceptions	00000000 .exceptions
000801a8 l    d  .text	00000000 .text
00084c18 l    d  .rodata	00000000 .rodata
00084d58 l    d  .rwdata	00000000 .rwdata
00088b00 l    d  .bss	00000000 .bss
00089060 l    d  .main_memory	00000000 .main_memory
00100000 l    d  .descriptor_memory	00000000 .descriptor_memory
00000000 l    d  .comment	00000000 .comment
00000000 l    d  .debug_aranges	00000000 .debug_aranges
00000000 l    d  .debug_info	00000000 .debug_info
00000000 l    d  .debug_abbrev	00000000 .debug_abbrev
00000000 l    d  .debug_line	00000000 .debug_line
00000000 l    d  .debug_frame	00000000 .debug_frame
00000000 l    d  .debug_str	00000000 .debug_str
00000000 l    d  .debug_loc	00000000 .debug_loc
00000000 l    d  .debug_alt_sim_info	00000000 .debug_alt_sim_info
00000000 l    d  .debug_ranges	00000000 .debug_ranges
00000000 l    df *ABS*	00000000 BSP//obj/HAL/src/crt0.o
000801e0 l       .text	00000000 alt_after_alt_main
00000000 l    df *ABS*	00000000 alt_irq_handler.c
00000000 l    df *ABS*	00000000 alt_instruction_exception_entry.c
00000000 l    df *ABS*	00000000 tse_tutorial.c
00000000 l    df *ABS*	00000000 alt_getchar.c
00000000 l    df *ABS*	00000000 alt_load.c
00000000 l    df *ABS*	00000000 alt_main.c
00000000 l    df *ABS*	00000000 alt_printf.c
00000000 l    df *ABS*	00000000 alt_putchar.c
00000000 l    df *ABS*	00000000 alt_sys_init.c
000851b8 l     O .rwdata	00001060 jtag_uart
00085188 l     O .rwdata	00000030 sgdma_rx
00085158 l     O .rwdata	00000030 sgdma_tx
00000000 l    df *ABS*	00000000 altera_avalon_jtag_uart_fd.c
00000000 l    df *ABS*	00000000 altera_avalon_jtag_uart_init.c
00080ad0 l     F .text	00000048 altera_avalon_jtag_uart_timeout
00080b18 l     F .text	00000108 altera_avalon_jtag_uart_irq
00000000 l    df *ABS*	00000000 altera_avalon_jtag_uart_ioctl.c
00000000 l    df *ABS*	00000000 altera_avalon_jtag_uart_read.c
00000000 l    df *ABS*	00000000 altera_avalon_jtag_uart_write.c
00000000 l    df *ABS*	00000000 altera_avalon_sgdma.c
00081050 l     F .text	00000060 alt_avalon_sgdma_irq
00000000 l    df *ABS*	00000000 alt_alarm_start.c
00000000 l    df *ABS*	00000000 alt_close.c
00000000 l    df *ABS*	00000000 alt_dcache_flush.c
00000000 l    df *ABS*	00000000 alt_dcache_flush_all.c
00000000 l    df *ABS*	00000000 alt_dev.c
000817a8 l     F .text	00000008 alt_dev_null_write
00000000 l    df *ABS*	00000000 alt_dev_llist_insert.c
00000000 l    df *ABS*	00000000 alt_errno.c
00000000 l    df *ABS*	00000000 alt_find_dev.c
00000000 l    df *ABS*	00000000 alt_icache_flush_all.c
00000000 l    df *ABS*	00000000 alt_iic.c
00000000 l    df *ABS*	00000000 alt_iic_isr_register.c
00000000 l    df *ABS*	00000000 alt_io_redirect.c
000819b8 l     F .text	00000080 alt_open_fd
00000000 l    df *ABS*	00000000 alt_irq_vars.c
00000000 l    df *ABS*	00000000 alt_open.c
00000000 l    df *ABS*	00000000 alt_release_fd.c
00000000 l    df *ABS*	00000000 alt_tick.c
00000000 l    df *ABS*	00000000 altera_nios2_gen2_irq.c
00000000 l    df *ABS*	00000000 alt_find_file.c
00000000 l    df *ABS*	00000000 alt_get_fd.c
00000000 l    df *ABS*	00000000 exit.c
00000000 l    df *ABS*	00000000 getc.c
00000000 l    df *ABS*	00000000 impure.c
000863c0 l     O .rwdata	00000424 impure_data
00000000 l    df *ABS*	00000000 int_errno.c
00000000 l    df *ABS*	00000000 memcmp.c
00000000 l    df *ABS*	00000000 memcpy.c
00000000 l    df *ABS*	00000000 putc.c
00000000 l    df *ABS*	00000000 rget.c
00000000 l    df *ABS*	00000000 strlen.c
00000000 l    df *ABS*	00000000 wbuf.c
00000000 l    df *ABS*	00000000 wsetup.c
00000000 l    df *ABS*	00000000 __call_atexit.c
00000000 l    df *ABS*	00000000 fflush.c
00000000 l    df *ABS*	00000000 findfp.c
00082c0c l     F .text	00000008 __fp_unlock
00082c20 l     F .text	0000019c __sinit.part.1
00082dbc l     F .text	00000008 __fp_lock
00000000 l    df *ABS*	00000000 mallocr.c
00000000 l    df *ABS*	00000000 fwalk.c
00000000 l    df *ABS*	00000000 makebuf.c
00000000 l    df *ABS*	00000000 mallocr.c
00000000 l    df *ABS*	00000000 memset.c
00000000 l    df *ABS*	00000000 refill.c
00084068 l     F .text	0000001c lflush
00000000 l    df *ABS*	00000000 sbrkr.c
00000000 l    df *ABS*	00000000 stdio.c
00000000 l    df *ABS*	00000000 writer.c
00000000 l    df *ABS*	00000000 closer.c
00000000 l    df *ABS*	00000000 fclose.c
00000000 l    df *ABS*	00000000 fstatr.c
00000000 l    df *ABS*	00000000 isattyr.c
00000000 l    df *ABS*	00000000 lseekr.c
00000000 l    df *ABS*	00000000 readr.c
00000000 l    df *ABS*	00000000 lib2-mul.c
00000000 l    df *ABS*	00000000 alt_exit.c
00000000 l    df *ABS*	00000000 alt_fstat.c
00000000 l    df *ABS*	00000000 alt_isatty.c
00000000 l    df *ABS*	00000000 alt_lseek.c
00000000 l    df *ABS*	00000000 alt_malloc_lock.c
00000000 l    df *ABS*	00000000 alt_read.c
00000000 l    df *ABS*	00000000 alt_sbrk.c
00086c28 l     O .rwdata	00000004 heap_end
00000000 l    df *ABS*	00000000 alt_write.c
00088b24 g     O .bss	00000004 alt_instruction_exception_handler
000845fc g     F .text	00000054 _isatty_r
00080738 g     F .text	00000050 alt_main
000801e4 g     F .text	000000d4 rx_ethernet_isr
00088f60 g     O .bss	00000100 alt_irq
00084650 g     F .text	00000060 _lseek_r
00086c2c g       *ABS*	00000000 __flash_rwdata_start
00089060 g       *ABS*	00000000 __alt_heap_start
0008113c g     F .text	0000008c alt_avalon_sgdma_do_sync_transfer
00084384 g     F .text	0000005c __sseek
00082f6c g     F .text	00000010 __sinit
00082538 g     F .text	00000140 __swbuf_r
00082dc4 g     F .text	00000078 __sfmoreglue
0008497c g     F .text	00000004 __malloc_unlock
000812d4 g     F .text	00000128 alt_avalon_sgdma_construct_descriptor_burst
00082f54 g     F .text	00000018 _cleanup
00081de8 g     F .text	00000008 altera_nios2_gen2_irq_init
00080000 g     F .entry	0000000c __reset
0008147c g     F .text	00000048 alt_avalon_sgdma_construct_stream_to_mem_desc_burst
00080020 g       *ABS*	00000000 __flash_exceptions_start
000845a0 g     F .text	0000005c _fstat_r
00088b28 g     O .bss	00000004 errno
0008248c g     F .text	00000014 __srget
00084300 g     F .text	00000008 __seofread
00088b10 g     O .bss	00000004 alt_argv
0008ebec g       *ABS*	00000000 _gp
00086218 g     O .rwdata	00000180 alt_fd_list
00081ff4 g     F .text	00000070 _getc_r
00082064 g     F .text	00000088 getc
00081824 g     F .text	0000007c alt_find_dev
00082168 g     F .text	00000148 memcpy
00082c14 g     F .text	0000000c _cleanup_r
00081a38 g     F .text	00000094 alt_io_redirect
00081f48 g     F .text	00000074 alt_exception_cause_generated_bad_addr
000814ec g     F .text	00000050 alt_avalon_sgdma_construct_mem_to_stream_desc_burst
00080d5c g     F .text	00000158 altera_avalon_jtag_uart_read
00084800 g     F .text	000000a0 isatty
00088b34 g     O .bss	00000004 __malloc_top_pad
000811f0 g     F .text	0000001c alt_avalon_sgdma_stop
00084258 g     F .text	00000054 _sbrk_r
000846b0 g     F .text	00000060 _read_r
000817a0 g     F .text	00000004 alt_dcache_flush
00086bf4 g     O .rwdata	00000004 alt_max_fd
0008449c g     F .text	000000f0 _fclose_r
00082bdc g     F .text	00000030 fflush
00088b30 g     O .bss	00000004 __malloc_max_sbrked_mem
00080000 g       *ABS*	00000000 __alt_mem_main_memory
000848a0 g     F .text	000000d8 lseek
00086c18 g     O .rwdata	00000004 _global_impure_ptr
00089060 g       *ABS*	00000000 __bss_end
0008194c g     F .text	0000006c alt_iic_isr_register
00080594 g     F .text	00000020 alt_getchar
000810b0 g     F .text	0000008c alt_avalon_sgdma_do_async_transfer
00081d1c g     F .text	000000cc alt_tick
00100000 g     O .descriptor_memory	00000020 rx_descriptor_end
00082f8c g     F .text	00000018 __fp_lock_all
00081934 g     F .text	00000018 alt_ic_irq_enabled
00081ce4 g     F .text	00000038 alt_alarm_stop
00100000 g       *ABS*	00000000 __alt_mem_descriptor_memory
00088b18 g     O .bss	00000004 alt_irq_active
00084d58 g     O .rwdata	00000400 tx_frame
000800fc g     F .exceptions	00000070 alt_irq_handler
00086398 g     O .rwdata	00000028 alt_dev_null
0008120c g     F .text	0000002c alt_avalon_sgdma_check_descriptor_status
000817a4 g     F .text	00000004 alt_dcache_flush_all
00100020 g     O .descriptor_memory	00000020 rx_descriptor
00086c2c g       *ABS*	00000000 __ram_rwdata_end
00086bf8 g     O .rwdata	00000008 alt_dev_list
00084af4 g     F .text	00000124 write
00081284 g     F .text	00000030 alt_avalon_sgdma_enable_desc_poll
000822b0 g     F .text	000000a0 _putc_r
00084d58 g       *ABS*	00000000 __ram_rodata_end
0008474c g     F .text	000000b4 fstat
0008153c g     F .text	00000040 alt_avalon_sgdma_construct_mem_to_stream_desc
000811c8 g     F .text	00000010 alt_avalon_sgdma_register_callback
00089060 g       *ABS*	00000000 end
00080c20 g     F .text	00000078 altera_avalon_jtag_uart_init
0008016c g     F .exceptions	0000003c alt_instruction_exception_entry
000cb000 g       *ABS*	00000000 __alt_stack_pointer
000812b4 g     F .text	00000020 alt_avalon_sgdma_disable_desc_poll
00080eb4 g     F .text	0000019c altera_avalon_jtag_uart_write
00081444 g     F .text	00000038 alt_avalon_sgdma_construct_mem_to_mem_desc
00082f7c g     F .text	00000004 __sfp_lock_acquire
000814c4 g     F .text	00000028 alt_avalon_sgdma_construct_stream_to_mem_desc
000830e0 g     F .text	00000310 _free_r
00080788 g     F .text	00000214 alt_printf
00082418 g     F .text	00000074 __srget_r
000827e4 g     F .text	00000180 __call_exitprocs
00086c20 g     O .rwdata	00000004 __malloc_sbrk_base
000801a8 g     F .text	0000003c _start
00088b20 g     O .bss	00000004 _alt_tick_rate
00088b00 g     O .bss	00000004 sgdma_tx_dev
00081238 g     F .text	0000004c alt_avalon_sgdma_open
00088b1c g     O .bss	00000004 _alt_nticks
00088b04 g     O .bss	00000004 text_length
00084980 g     F .text	00000128 read
000809dc g     F .text	00000068 alt_sys_init
00080c98 g     F .text	0000003c altera_avalon_jtag_uart_close
00084710 g     F .text	00000028 .hidden __mulsi3
00084d58 g       *ABS*	00000000 __ram_rwdata_start
00084c18 g       *ABS*	00000000 __ram_rodata_start
00088f38 g     O .bss	00000028 __malloc_current_mallinfo
00080a44 g     F .text	00000024 altera_avalon_jtag_uart_read_fd
00081eb0 g     F .text	00000098 alt_get_fd
00084448 g     F .text	00000054 _close_r
000820ec g     F .text	0000007c memcmp
00080a8c g     F .text	00000024 altera_avalon_jtag_uart_close_fd
00089060 g       *ABS*	00000000 __alt_stack_base
00080ab0 g     F .text	00000020 altera_avalon_jtag_uart_ioctl_fd
00082690 g     F .text	00000154 __swsetup_r
00082e3c g     F .text	00000118 __sfp
000867e4 g     O .rwdata	00000408 __malloc_av_
00082f88 g     F .text	00000004 __sinit_lock_release
000842ac g     F .text	00000054 __sread
00081df0 g     F .text	000000c0 alt_find_file
000817b0 g     F .text	00000074 alt_dev_llist_insert
00084978 g     F .text	00000004 __malloc_lock
00084aa8 g     F .text	0000004c sbrk
000811d8 g     F .text	00000018 alt_avalon_sgdma_start
00082b80 g     F .text	0000005c _fflush_r
00088b00 g       *ABS*	00000000 __bss_start
00083f40 g     F .text	00000128 memset
000802b8 g     F .text	000002dc main
00088b0c g     O .bss	00000004 alt_envp
00088b2c g     O .bss	00000004 __malloc_max_total_mem
00080a68 g     F .text	00000024 altera_avalon_jtag_uart_write_fd
00082678 g     F .text	00000018 __swbuf
00086bec g     O .rwdata	00000008 alt_sgdma_list
000843e0 g     F .text	00000008 __sclose
000cb000 g       *ABS*	00000000 __alt_heap_limit
0008458c g     F .text	00000014 fclose
00083734 g     F .text	0000080c _malloc_r
00086c08 g     O .rwdata	00000004 alt_errno
00100060 g     O .descriptor_memory	00000020 tx_descriptor
00088b38 g     O .bss	00000400 rx_frame
000833f0 g     F .text	000000c4 _fwalk
00082350 g     F .text	000000c8 putc
00082fbc g     F .text	00000124 _malloc_trim_r
00084c18 g       *ABS*	00000000 __flash_rodata_start
000809bc g     F .text	00000020 alt_irq_init
00081c88 g     F .text	0000005c alt_release_fd
000843e8 g     F .text	00000060 _write_r
00086c1c g     O .rwdata	00000004 _impure_ptr
00088b14 g     O .bss	00000004 alt_argc
00082964 g     F .text	0000021c __sflush_r
00084084 g     F .text	000001d4 __srefill_r
00080020 g       .exceptions	00000000 alt_irq_entry
00082fa4 g     F .text	00000018 __fp_unlock_all
00086c00 g     O .rwdata	00000008 alt_fs_list
00080020 g       *ABS*	00000000 __ram_exceptions_start
000818a4 g     F .text	00000020 alt_ic_isr_register
00086c2c g       *ABS*	00000000 _edata
00089060 g       *ABS*	00000000 _end
000801a8 g       *ABS*	00000000 __ram_exceptions_end
00080cd4 g     F .text	00000088 altera_avalon_jtag_uart_ioctl
000818fc g     F .text	00000038 alt_ic_irq_disable
00100040 g     O .descriptor_memory	00000020 tx_descriptor_end
0008157c g     F .text	00000048 alt_avalon_sgdma_construct_descriptor
00084308 g     F .text	0000007c __swrite
00086c24 g     O .rwdata	00000004 __malloc_trim_threshold
00081fbc g     F .text	00000038 exit
000834b4 g     F .text	000000c4 _fwalk_reent
000cb000 g       *ABS*	00000000 __alt_data_end
00080020 g     F .exceptions	00000000 alt_exception
00082f80 g     F .text	00000004 __sfp_lock_release
00088b08 g     O .bss	00000004 sgdma_rx_dev
00084738 g     F .text	00000014 _exit
00081648 g     F .text	00000080 alt_alarm_start
00083578 g     F .text	000001bc __smakebuf_r
000824a0 g     F .text	00000098 strlen
00081acc g     F .text	000001bc open
0008099c g     F .text	00000020 alt_putchar
000818a0 g     F .text	00000004 alt_icache_flush_all
00086c0c g     O .rwdata	00000004 alt_priority_mask
000818c4 g     F .text	00000038 alt_ic_irq_enable
000813fc g     F .text	00000048 alt_avalon_sgdma_construct_mem_to_mem_desc_burst
00086c10 g     O .rwdata	00000008 alt_alarm_list
000816c8 g     F .text	000000d8 close
000805b4 g     F .text	00000184 alt_load
000815c4 g     F .text	00000084 alt_avalon_sgdma_init
00082f84 g     F .text	00000004 __sinit_lock_acquire



Disassembly of section .entry:

00080000 <__reset>:
   80000:	00400234 	movhi	at,8
   80004:	08406a14 	ori	at,at,424
   80008:	0800683a 	jmp	at
	...

Disassembly of section .exceptions:

00080020 <alt_exception>:
   80020:	deffed04 	addi	sp,sp,-76
   80024:	dfc00015 	stw	ra,0(sp)
   80028:	d8400215 	stw	at,8(sp)
   8002c:	d8800315 	stw	r2,12(sp)
   80030:	d8c00415 	stw	r3,16(sp)
   80034:	d9000515 	stw	r4,20(sp)
   80038:	d9400615 	stw	r5,24(sp)
   8003c:	d9800715 	stw	r6,28(sp)
   80040:	d9c00815 	stw	r7,32(sp)
   80044:	000b307a 	rdctl	r5,estatus
   80048:	da000915 	stw	r8,36(sp)
   8004c:	da400a15 	stw	r9,40(sp)
   80050:	da800b15 	stw	r10,44(sp)
   80054:	dac00c15 	stw	r11,48(sp)
   80058:	db000d15 	stw	r12,52(sp)
   8005c:	db400e15 	stw	r13,56(sp)
   80060:	db800f15 	stw	r14,60(sp)
   80064:	dbc01015 	stw	r15,64(sp)
   80068:	d9401115 	stw	r5,68(sp)
   8006c:	ebffff04 	addi	r15,ea,-4
   80070:	dbc01215 	stw	r15,72(sp)
   80074:	0009313a 	rdctl	r4,ipending
   80078:	2880004c 	andi	r2,r5,1
   8007c:	10000326 	beq	r2,zero,8008c <alt_exception+0x6c>
   80080:	20000226 	beq	r4,zero,8008c <alt_exception+0x6c>
   80084:	00800fc0 	call	800fc <alt_irq_handler>
   80088:	00000706 	br	800a8 <alt_exception+0x88>
   8008c:	df401215 	stw	ea,72(sp)
   80090:	e8bfff17 	ldw	r2,-4(ea)
   80094:	e93fff04 	addi	r4,ea,-4
   80098:	008016c0 	call	8016c <alt_instruction_exception_entry>
   8009c:	1000021e 	bne	r2,zero,800a8 <alt_exception+0x88>
   800a0:	ebffff04 	addi	r15,ea,-4
   800a4:	dbc01215 	stw	r15,72(sp)
   800a8:	d9401117 	ldw	r5,68(sp)
   800ac:	df401217 	ldw	ea,72(sp)
   800b0:	dfc00017 	ldw	ra,0(sp)
   800b4:	2801707a 	wrctl	estatus,r5
   800b8:	d8400217 	ldw	at,8(sp)
   800bc:	d8800317 	ldw	r2,12(sp)
   800c0:	d8c00417 	ldw	r3,16(sp)
   800c4:	d9000517 	ldw	r4,20(sp)
   800c8:	d9400617 	ldw	r5,24(sp)
   800cc:	d9800717 	ldw	r6,28(sp)
   800d0:	d9c00817 	ldw	r7,32(sp)
   800d4:	da000917 	ldw	r8,36(sp)
   800d8:	da400a17 	ldw	r9,40(sp)
   800dc:	da800b17 	ldw	r10,44(sp)
   800e0:	dac00c17 	ldw	r11,48(sp)
   800e4:	db000d17 	ldw	r12,52(sp)
   800e8:	db400e17 	ldw	r13,56(sp)
   800ec:	db800f17 	ldw	r14,60(sp)
   800f0:	dbc01017 	ldw	r15,64(sp)
   800f4:	dec01304 	addi	sp,sp,76
   800f8:	ef80083a 	eret

000800fc <alt_irq_handler>:
   800fc:	defffe04 	addi	sp,sp,-8
   80100:	dfc00115 	stw	ra,4(sp)
   80104:	dc000015 	stw	r16,0(sp)
   80108:	000b313a 	rdctl	r5,ipending
   8010c:	04000274 	movhi	r16,9
   80110:	8423d804 	addi	r16,r16,-28832
   80114:	2880004c 	andi	r2,r5,1
   80118:	10000926 	beq	r2,zero,80140 <alt_irq_handler+0x44>
   8011c:	0007883a 	mov	r3,zero
   80120:	180690fa 	slli	r3,r3,3
   80124:	80c7883a 	add	r3,r16,r3
   80128:	18800017 	ldw	r2,0(r3)
   8012c:	19000117 	ldw	r4,4(r3)
   80130:	103ee83a 	callr	r2
   80134:	000b313a 	rdctl	r5,ipending
   80138:	283ff61e 	bne	r5,zero,80114 <tx_descriptor+0xfff800b4>
   8013c:	00000706 	br	8015c <alt_irq_handler+0x60>
   80140:	0007883a 	mov	r3,zero
   80144:	00800044 	movi	r2,1
   80148:	1085883a 	add	r2,r2,r2
   8014c:	18c00044 	addi	r3,r3,1
   80150:	2888703a 	and	r4,r5,r2
   80154:	203ffc26 	beq	r4,zero,80148 <tx_descriptor+0xfff800e8>
   80158:	003ff106 	br	80120 <tx_descriptor+0xfff800c0>
   8015c:	dfc00117 	ldw	ra,4(sp)
   80160:	dc000017 	ldw	r16,0(sp)
   80164:	dec00204 	addi	sp,sp,8
   80168:	f800283a 	ret

0008016c <alt_instruction_exception_entry>:
   8016c:	d0a7ce17 	ldw	r2,-24776(gp)
   80170:	10000726 	beq	r2,zero,80190 <alt_instruction_exception_entry+0x24>
   80174:	deffff04 	addi	sp,sp,-4
   80178:	dfc00015 	stw	ra,0(sp)
   8017c:	200b883a 	mov	r5,r4
   80180:	000d883a 	mov	r6,zero
   80184:	013fffc4 	movi	r4,-1
   80188:	103ee83a 	callr	r2
   8018c:	00000306 	br	8019c <alt_instruction_exception_entry+0x30>
   80190:	003da03a 	break	0
   80194:	0005883a 	mov	r2,zero
   80198:	f800283a 	ret
   8019c:	dfc00017 	ldw	ra,0(sp)
   801a0:	dec00104 	addi	sp,sp,4
   801a4:	f800283a 	ret

Disassembly of section .text:

000801a8 <_start>:
   801a8:	06c00334 	movhi	sp,12
   801ac:	deec0014 	ori	sp,sp,45056
   801b0:	06800234 	movhi	gp,8
   801b4:	d6bafb14 	ori	gp,gp,60396
   801b8:	00800234 	movhi	r2,8
   801bc:	10a2c014 	ori	r2,r2,35584
   801c0:	00c00234 	movhi	r3,8
   801c4:	18e41814 	ori	r3,r3,36960
   801c8:	10c00326 	beq	r2,r3,801d8 <_start+0x30>
   801cc:	10000015 	stw	zero,0(r2)
   801d0:	10800104 	addi	r2,r2,4
   801d4:	10fffd36 	bltu	r2,r3,801cc <tx_descriptor+0xfff8016c>
   801d8:	00805b40 	call	805b4 <alt_load>
   801dc:	00807380 	call	80738 <alt_main>

000801e0 <alt_after_alt_main>:
   801e0:	003fff06 	br	801e0 <tx_descriptor+0xfff80180>

000801e4 <rx_ethernet_isr>:

/****************************************************************************************
 * Subroutine to read incoming Ethernet frames
****************************************************************************************/
void rx_ethernet_isr (void *context)
{
   801e4:	defffb04 	addi	sp,sp,-20
   801e8:	dfc00415 	stw	ra,16(sp)
   801ec:	dc800315 	stw	r18,12(sp)
   801f0:	dc400215 	stw	r17,8(sp)
   801f4:	dc000115 	stw	r16,4(sp)
	int i;

	// Wait until receive descriptor transfer is complete
	while (alt_avalon_sgdma_check_descriptor_status(&rx_descriptor) != 0)
   801f8:	04000434 	movhi	r16,16
   801fc:	84000804 	addi	r16,r16,32
   80200:	8009883a 	mov	r4,r16
   80204:	008120c0 	call	8120c <alt_avalon_sgdma_check_descriptor_status>
   80208:	103ffd1e 	bne	r2,zero,80200 <tx_descriptor+0xfff801a0>
		;
	
	// Clear input line before writing
	for (i = 0; i < (6 + text_length); i++) {
   8020c:	d0e7c617 	ldw	r3,-24808(gp)
   80210:	00bffe84 	movi	r2,-6
   80214:	18800b26 	beq	r3,r2,80244 <rx_ethernet_isr+0x60>
   80218:	0021883a 	mov	r16,zero
		alt_printf( "%c", 0x08 );		 // 0x08 --> backspace	
   8021c:	04800204 	movi	r18,8
   80220:	04400234 	movhi	r17,8
   80224:	8c530604 	addi	r17,r17,19480
   80228:	900b883a 	mov	r5,r18
   8022c:	8809883a 	mov	r4,r17
   80230:	00807880 	call	80788 <alt_printf>
	// Wait until receive descriptor transfer is complete
	while (alt_avalon_sgdma_check_descriptor_status(&rx_descriptor) != 0)
		;
	
	// Clear input line before writing
	for (i = 0; i < (6 + text_length); i++) {
   80234:	84000044 	addi	r16,r16,1
   80238:	d0a7c617 	ldw	r2,-24808(gp)
   8023c:	10800184 	addi	r2,r2,6
   80240:	80bff936 	bltu	r16,r2,80228 <tx_descriptor+0xfff801c8>
		alt_printf( "%c", 0x08 );		 // 0x08 --> backspace	
	}
	
	// Output received text		
	alt_printf( "receive> %s\n", rx_frame + 16 );
   80244:	04400274 	movhi	r17,9
   80248:	8c62d204 	addi	r17,r17,-29880
   8024c:	880b883a 	mov	r5,r17
   80250:	01000234 	movhi	r4,8
   80254:	21130704 	addi	r4,r4,19484
   80258:	00807880 	call	80788 <alt_printf>
	
	// Reprint current input line after the output
	alt_printf( "send> %s", tx_frame + 16 );
   8025c:	01400234 	movhi	r5,8
   80260:	29535a04 	addi	r5,r5,19816
   80264:	01000234 	movhi	r4,8
   80268:	21130b04 	addi	r4,r4,19500
   8026c:	00807880 	call	80788 <alt_printf>
	
	// Create new receive sgdma descriptor
	alt_avalon_sgdma_construct_stream_to_mem_desc( &rx_descriptor, &rx_descriptor_end, (alt_u32 *)rx_frame, 0, 0 );
   80270:	04000434 	movhi	r16,16
   80274:	84000804 	addi	r16,r16,32
   80278:	d8000015 	stw	zero,0(sp)
   8027c:	000f883a 	mov	r7,zero
   80280:	89bffc04 	addi	r6,r17,-16
   80284:	01400434 	movhi	r5,16
   80288:	29400004 	addi	r5,r5,0
   8028c:	8009883a 	mov	r4,r16
   80290:	00814c40 	call	814c4 <alt_avalon_sgdma_construct_stream_to_mem_desc>
	
	// Set up non-blocking transfer of sgdma receive descriptor
	alt_avalon_sgdma_do_async_transfer( sgdma_rx_dev, &rx_descriptor );
   80294:	800b883a 	mov	r5,r16
   80298:	d127c717 	ldw	r4,-24804(gp)
   8029c:	00810b00 	call	810b0 <alt_avalon_sgdma_do_async_transfer>
}
   802a0:	dfc00417 	ldw	ra,16(sp)
   802a4:	dc800317 	ldw	r18,12(sp)
   802a8:	dc400217 	ldw	r17,8(sp)
   802ac:	dc000117 	ldw	r16,4(sp)
   802b0:	dec00504 	addi	sp,sp,20
   802b4:	f800283a 	ret

000802b8 <main>:
 *  1. Records input text and transmits the text via Ethernet after Enter is 
 *     pressed
 *  2. Displays text received via Ethernet frame on the JTAG UART
********************************************************************************/
int main(void)
{	
   802b8:	defff204 	addi	sp,sp,-56
   802bc:	dfc00d15 	stw	ra,52(sp)
   802c0:	df000c15 	stw	fp,48(sp)
   802c4:	ddc00b15 	stw	r23,44(sp)
   802c8:	dd800a15 	stw	r22,40(sp)
   802cc:	dd400915 	stw	r21,36(sp)
   802d0:	dd000815 	stw	r20,32(sp)
   802d4:	dcc00715 	stw	r19,28(sp)
   802d8:	dc800615 	stw	r18,24(sp)
   802dc:	dc400515 	stw	r17,20(sp)
   802e0:	dc000415 	stw	r16,16(sp)
	// Open the sgdma transmit device
	sgdma_tx_dev = alt_avalon_sgdma_open ("/dev/sgdma_tx");
   802e4:	01000234 	movhi	r4,8
   802e8:	21130e04 	addi	r4,r4,19512
   802ec:	00812380 	call	81238 <alt_avalon_sgdma_open>
   802f0:	d0a7c515 	stw	r2,-24812(gp)
	if (sgdma_tx_dev == NULL) {
   802f4:	1000041e 	bne	r2,zero,80308 <main+0x50>
		alt_printf ("Error: could not open scatter-gather dma transmit device\n");
   802f8:	01000234 	movhi	r4,8
   802fc:	21131204 	addi	r4,r4,19528
   80300:	00807880 	call	80788 <alt_printf>
		return -1;
   80304:	00009606 	br	80560 <main+0x2a8>
	} else alt_printf ("Opened scatter-gather dma transmit device\n");
   80308:	01000234 	movhi	r4,8
   8030c:	21132104 	addi	r4,r4,19588
   80310:	00807880 	call	80788 <alt_printf>
		
	// Open the sgdma receive device
	sgdma_rx_dev = alt_avalon_sgdma_open ("/dev/sgdma_rx");
   80314:	01000234 	movhi	r4,8
   80318:	21132c04 	addi	r4,r4,19632
   8031c:	00812380 	call	81238 <alt_avalon_sgdma_open>
   80320:	d0a7c715 	stw	r2,-24804(gp)
	if (sgdma_rx_dev == NULL) {
   80324:	1000041e 	bne	r2,zero,80338 <main+0x80>
		alt_printf ("Error: could not open scatter-gather dma receive device\n");
   80328:	01000234 	movhi	r4,8
   8032c:	21133004 	addi	r4,r4,19648
   80330:	00807880 	call	80788 <alt_printf>
		return -1;
   80334:	00008a06 	br	80560 <main+0x2a8>
	} else alt_printf ("Opened scatter-gather dma receive device\n");
   80338:	01000234 	movhi	r4,8
   8033c:	21133f04 	addi	r4,r4,19708
   80340:	00807880 	call	80788 <alt_printf>

	// Set interrupts for the sgdma receive device
	alt_avalon_sgdma_register_callback( sgdma_rx_dev, (alt_avalon_sgdma_callback) rx_ethernet_isr, 0x00000014, NULL );
   80344:	000f883a 	mov	r7,zero
   80348:	01800504 	movi	r6,20
   8034c:	01400234 	movhi	r5,8
   80350:	29407904 	addi	r5,r5,484
   80354:	d127c717 	ldw	r4,-24804(gp)
   80358:	00811c80 	call	811c8 <alt_avalon_sgdma_register_callback>
	
	// Create sgdma receive descriptor
	alt_avalon_sgdma_construct_stream_to_mem_desc( &rx_descriptor, &rx_descriptor_end, (alt_u32 *)rx_frame, 0, 0 );
   8035c:	04000434 	movhi	r16,16
   80360:	84000804 	addi	r16,r16,32
   80364:	d8000015 	stw	zero,0(sp)
   80368:	000f883a 	mov	r7,zero
   8036c:	01800274 	movhi	r6,9
   80370:	31a2ce04 	addi	r6,r6,-29896
   80374:	01400434 	movhi	r5,16
   80378:	29400004 	addi	r5,r5,0
   8037c:	8009883a 	mov	r4,r16
   80380:	00814c40 	call	814c4 <alt_avalon_sgdma_construct_stream_to_mem_desc>
	
	// Set up non-blocking transfer of sgdma receive descriptor
	alt_avalon_sgdma_do_async_transfer( sgdma_rx_dev, &rx_descriptor );
   80384:	800b883a 	mov	r5,r16
   80388:	d127c717 	ldw	r4,-24804(gp)
   8038c:	00810b00 	call	810b0 <alt_avalon_sgdma_do_async_transfer>

	// Triple-speed Ethernet MegaCore base address
	volatile int * tse = (int *) 0x00102000;	
	
	// Initialize the MAC address 
	*(tse + 3) = 0x116E6001;
   80390:	00c45bb4 	movhi	r3,4462
   80394:	18d80044 	addi	r3,r3,24577
   80398:	00800434 	movhi	r2,16
   8039c:	10880304 	addi	r2,r2,8204
   803a0:	10c00015 	stw	r3,0(r2)
	*(tse + 4) = 0x00000F02; 
   803a4:	00c3c084 	movi	r3,3842
   803a8:	00800434 	movhi	r2,16
   803ac:	10880404 	addi	r2,r2,8208
   803b0:	10c00015 	stw	r3,0(r2)

	// Specify the addresses of the PHY devices to be accessed through MDIO interface
	*(tse + 0x0F) = 0x00; //was 0x10
   803b4:	00800434 	movhi	r2,16
   803b8:	10880f04 	addi	r2,r2,8252
   803bc:	10000015 	stw	zero,0(r2)
	*(tse + 0x10) = 0x00; //was 0x11
   803c0:	00800434 	movhi	r2,16
   803c4:	10881004 	addi	r2,r2,8256
   803c8:	10000015 	stw	zero,0(r2)
	
	// Write to register 20 of the PHY chip for Ethernet port 0 to set up line loopback
	*(tse + 0x94) = 0x0000; //was 0x4000
   803cc:	00800434 	movhi	r2,16
   803d0:	10889404 	addi	r2,r2,8784
   803d4:	10000015 	stw	zero,0(r2)
	
	// Write to register 16 of the PHY chip for Ethernet port 1 to enable automatic crossover for all modes
	*(tse + 0xB0) = *(tse + 0xB0) | 0x0060;
   803d8:	00c00434 	movhi	r3,16
   803dc:	18c8b004 	addi	r3,r3,8896
   803e0:	18800017 	ldw	r2,0(r3)
   803e4:	10801814 	ori	r2,r2,96
   803e8:	18800015 	stw	r2,0(r3)
	
	// Write to register 20 of the PHY chip for Ethernet port 2 to set up delay for input/output clk
	*(tse + 0xB4) = *(tse + 0xB4) | 0x0082;
   803ec:	00c00434 	movhi	r3,16
   803f0:	18c8b404 	addi	r3,r3,8912
   803f4:	18800017 	ldw	r2,0(r3)
   803f8:	10802094 	ori	r2,r2,130
   803fc:	18800015 	stw	r2,0(r3)
	
	// Software reset the second PHY chip and wait
	*(tse + 0xA0) = *(tse + 0xA0) | 0x8000;
   80400:	00c00434 	movhi	r3,16
   80404:	18c8a004 	addi	r3,r3,8832
   80408:	18800017 	ldw	r2,0(r3)
   8040c:	10a00014 	ori	r2,r2,32768
   80410:	18800015 	stw	r2,0(r3)
	while ( *(tse + 0xA0) & 0x8000  )
   80414:	00800434 	movhi	r2,16
   80418:	1088a004 	addi	r2,r2,8832
   8041c:	10800017 	ldw	r2,0(r2)
   80420:	10a0000c 	andi	r2,r2,32768
   80424:	103ffb1e 	bne	r2,zero,80414 <tx_descriptor+0xfff803b4>
		;	 
	 
	// Enable read and write transfers, gigabit Ethernet operation, and CRC forwarding
	*(tse + 2) = *(tse + 2) | 0x0000004B;	
   80428:	00c00434 	movhi	r3,16
   8042c:	18c80204 	addi	r3,r3,8200
   80430:	18800017 	ldw	r2,0(r3)
   80434:	108012d4 	ori	r2,r2,75
   80438:	18800015 	stw	r2,0(r3)
	
	alt_printf( "send> " );
   8043c:	01000234 	movhi	r4,8
   80440:	21134a04 	addi	r4,r4,19752
   80444:	00807880 	call	80788 <alt_printf>
	text_length = 0;
   80448:	d027c615 	stw	zero,-24808(gp)
	
	while (1) {
		
		char new_char;
		tx_frame[16] = '\0';
   8044c:	05400234 	movhi	r21,8
   80450:	ad535604 	addi	r21,r21,19800
		
		// Add new typed characters to the transmit frame until the user types the return character
		while ( (new_char = alt_getchar()) != '\n'  ) {
   80454:	04800284 	movi	r18,10
		
			if (new_char == 0x08 && text_length > 0) {	// Check if character is a backspace and if there is anything to delete
   80458:	04400204 	movi	r17,8

				// Maintain the terminal character after the text
				tx_frame[16 + text_length] = '\0';

			} else if (text_length < 45) {				// Check if there is still room in the frame for another character
				alt_printf( "%c", new_char );
   8045c:	05800234 	movhi	r22,8
   80460:	b5930604 	addi	r22,r22,19480
				// Maintain the terminal character after the text
				tx_frame[16 + text_length] = '\0';
			}
		}

		alt_printf( "\nsend> " );
   80464:	07000234 	movhi	fp,8
   80468:	e7134c04 	addi	fp,fp,19760
		text_length = 0;
		
		// Create transmit sgdma descriptor
		alt_avalon_sgdma_construct_mem_to_stream_desc( &tx_descriptor, &tx_descriptor_end, (alt_u32 *)tx_frame, 62, 0, 1, 1, 0 );
   8046c:	05c00434 	movhi	r23,16
   80470:	bdc01004 	addi	r23,r23,64
   80474:	05000434 	movhi	r20,16
   80478:	a5001804 	addi	r20,r20,96
	text_length = 0;
	
	while (1) {
		
		char new_char;
		tx_frame[16] = '\0';
   8047c:	a8000405 	stb	zero,16(r21)
				text_length--;

				// Maintain the terminal character after the text
				tx_frame[16 + text_length] = '\0';

			} else if (text_length < 45) {				// Check if there is still room in the frame for another character
   80480:	04c00b04 	movi	r19,44
		
		char new_char;
		tx_frame[16] = '\0';
		
		// Add new typed characters to the transmit frame until the user types the return character
		while ( (new_char = alt_getchar()) != '\n'  ) {
   80484:	00001c06 	br	804f8 <main+0x240>
		
			if (new_char == 0x08 && text_length > 0) {	// Check if character is a backspace and if there is anything to delete
   80488:	80803fcc 	andi	r2,r16,255
   8048c:	1080201c 	xori	r2,r2,128
   80490:	10bfe004 	addi	r2,r2,-128
   80494:	14400b1e 	bne	r2,r17,804c4 <main+0x20c>
   80498:	d0a7c617 	ldw	r2,-24808(gp)
   8049c:	10000b26 	beq	r2,zero,804cc <main+0x214>

				alt_printf( "%c", new_char );
   804a0:	880b883a 	mov	r5,r17
   804a4:	b009883a 	mov	r4,r22
   804a8:	00807880 	call	80788 <alt_printf>
				text_length--;
   804ac:	d0a7c617 	ldw	r2,-24808(gp)
   804b0:	10ffffc4 	addi	r3,r2,-1
   804b4:	d0e7c615 	stw	r3,-24808(gp)

				// Maintain the terminal character after the text
				tx_frame[16 + text_length] = '\0';
   804b8:	a885883a 	add	r2,r21,r2
   804bc:	100003c5 	stb	zero,15(r2)
   804c0:	00000d06 	br	804f8 <main+0x240>

			} else if (text_length < 45) {				// Check if there is still room in the frame for another character
   804c4:	d0a7c617 	ldw	r2,-24808(gp)
   804c8:	98800b36 	bltu	r19,r2,804f8 <main+0x240>
				alt_printf( "%c", new_char );
   804cc:	81403fcc 	andi	r5,r16,255
   804d0:	2940201c 	xori	r5,r5,128
   804d4:	297fe004 	addi	r5,r5,-128
   804d8:	b009883a 	mov	r4,r22
   804dc:	00807880 	call	80788 <alt_printf>
				
				// Add the new character to the output text
				tx_frame[16 + text_length] = new_char;
   804e0:	d0a7c617 	ldw	r2,-24808(gp)
   804e4:	a887883a 	add	r3,r21,r2
   804e8:	1c000405 	stb	r16,16(r3)
				text_length++;
   804ec:	10800044 	addi	r2,r2,1
   804f0:	d0a7c615 	stw	r2,-24808(gp)

				// Maintain the terminal character after the text
				tx_frame[16 + text_length] = '\0';
   804f4:	18000445 	stb	zero,17(r3)
		
		char new_char;
		tx_frame[16] = '\0';
		
		// Add new typed characters to the transmit frame until the user types the return character
		while ( (new_char = alt_getchar()) != '\n'  ) {
   804f8:	00805940 	call	80594 <alt_getchar>
   804fc:	1021883a 	mov	r16,r2
   80500:	10803fcc 	andi	r2,r2,255
   80504:	1080201c 	xori	r2,r2,128
   80508:	10bfe004 	addi	r2,r2,-128
   8050c:	14bfde1e 	bne	r2,r18,80488 <tx_descriptor+0xfff80428>
				// Maintain the terminal character after the text
				tx_frame[16 + text_length] = '\0';
			}
		}

		alt_printf( "\nsend> " );
   80510:	e009883a 	mov	r4,fp
   80514:	00807880 	call	80788 <alt_printf>
		text_length = 0;
   80518:	d027c615 	stw	zero,-24808(gp)
		
		// Create transmit sgdma descriptor
		alt_avalon_sgdma_construct_mem_to_stream_desc( &tx_descriptor, &tx_descriptor_end, (alt_u32 *)tx_frame, 62, 0, 1, 1, 0 );
   8051c:	d8000315 	stw	zero,12(sp)
   80520:	00800044 	movi	r2,1
   80524:	d8800215 	stw	r2,8(sp)
   80528:	d8800115 	stw	r2,4(sp)
   8052c:	d8000015 	stw	zero,0(sp)
   80530:	01c00f84 	movi	r7,62
   80534:	a80d883a 	mov	r6,r21
   80538:	b80b883a 	mov	r5,r23
   8053c:	a009883a 	mov	r4,r20
   80540:	008153c0 	call	8153c <alt_avalon_sgdma_construct_mem_to_stream_desc>
		
		// Set up non-blocking transfer of sgdma transmit descriptor
		alt_avalon_sgdma_do_async_transfer( sgdma_tx_dev, &tx_descriptor );
   80544:	a00b883a 	mov	r5,r20
   80548:	d127c517 	ldw	r4,-24812(gp)
   8054c:	00810b00 	call	810b0 <alt_avalon_sgdma_do_async_transfer>
		
		// Wait until transmit descriptor transfer is complete
		while (alt_avalon_sgdma_check_descriptor_status(&tx_descriptor) != 0)
   80550:	a009883a 	mov	r4,r20
   80554:	008120c0 	call	8120c <alt_avalon_sgdma_check_descriptor_status>
   80558:	103ffd1e 	bne	r2,zero,80550 <tx_descriptor+0xfff804f0>
   8055c:	003fc706 	br	8047c <tx_descriptor+0xfff8041c>
			;
	}    
	
	return 0;
}
   80560:	00bfffc4 	movi	r2,-1
   80564:	dfc00d17 	ldw	ra,52(sp)
   80568:	df000c17 	ldw	fp,48(sp)
   8056c:	ddc00b17 	ldw	r23,44(sp)
   80570:	dd800a17 	ldw	r22,40(sp)
   80574:	dd400917 	ldw	r21,36(sp)
   80578:	dd000817 	ldw	r20,32(sp)
   8057c:	dcc00717 	ldw	r19,28(sp)
   80580:	dc800617 	ldw	r18,24(sp)
   80584:	dc400517 	ldw	r17,20(sp)
   80588:	dc000417 	ldw	r16,16(sp)
   8058c:	dec00e04 	addi	sp,sp,56
   80590:	f800283a 	ret

00080594 <alt_getchar>:
   80594:	deffff04 	addi	sp,sp,-4
   80598:	dfc00015 	stw	ra,0(sp)
   8059c:	d0a00c17 	ldw	r2,-32720(gp)
   805a0:	11000117 	ldw	r4,4(r2)
   805a4:	00820640 	call	82064 <getc>
   805a8:	dfc00017 	ldw	ra,0(sp)
   805ac:	dec00104 	addi	sp,sp,4
   805b0:	f800283a 	ret

000805b4 <alt_load>:
   805b4:	deffff04 	addi	sp,sp,-4
   805b8:	dfc00015 	stw	ra,0(sp)
   805bc:	00800234 	movhi	r2,8
   805c0:	109b0b04 	addi	r2,r2,27692
   805c4:	00c00234 	movhi	r3,8
   805c8:	18d35604 	addi	r3,r3,19800
   805cc:	18801926 	beq	r3,r2,80634 <alt_load+0x80>
   805d0:	00800234 	movhi	r2,8
   805d4:	109b0b04 	addi	r2,r2,27692
   805d8:	00c00234 	movhi	r3,8
   805dc:	18d35604 	addi	r3,r3,19800
   805e0:	18801426 	beq	r3,r2,80634 <alt_load+0x80>
   805e4:	00c00234 	movhi	r3,8
   805e8:	18d35704 	addi	r3,r3,19804
   805ec:	00800234 	movhi	r2,8
   805f0:	109b0b04 	addi	r2,r2,27692
   805f4:	10c7c83a 	sub	r3,r2,r3
   805f8:	1806d0ba 	srli	r3,r3,2
   805fc:	18c00044 	addi	r3,r3,1
   80600:	18c7883a 	add	r3,r3,r3
   80604:	18c7883a 	add	r3,r3,r3
   80608:	0005883a 	mov	r2,zero
   8060c:	01c00234 	movhi	r7,8
   80610:	39d35604 	addi	r7,r7,19800
   80614:	01800234 	movhi	r6,8
   80618:	319b0b04 	addi	r6,r6,27692
   8061c:	11c9883a 	add	r4,r2,r7
   80620:	118b883a 	add	r5,r2,r6
   80624:	29400017 	ldw	r5,0(r5)
   80628:	21400015 	stw	r5,0(r4)
   8062c:	10800104 	addi	r2,r2,4
   80630:	10fffa1e 	bne	r2,r3,8061c <tx_descriptor+0xfff805bc>
   80634:	00800234 	movhi	r2,8
   80638:	10800804 	addi	r2,r2,32
   8063c:	00c00234 	movhi	r3,8
   80640:	18c00804 	addi	r3,r3,32
   80644:	18801926 	beq	r3,r2,806ac <alt_load+0xf8>
   80648:	00800234 	movhi	r2,8
   8064c:	10806a04 	addi	r2,r2,424
   80650:	00c00234 	movhi	r3,8
   80654:	18c00804 	addi	r3,r3,32
   80658:	18801426 	beq	r3,r2,806ac <alt_load+0xf8>
   8065c:	00c00234 	movhi	r3,8
   80660:	18c00904 	addi	r3,r3,36
   80664:	00800234 	movhi	r2,8
   80668:	10806a04 	addi	r2,r2,424
   8066c:	10c7c83a 	sub	r3,r2,r3
   80670:	1806d0ba 	srli	r3,r3,2
   80674:	18c00044 	addi	r3,r3,1
   80678:	18c7883a 	add	r3,r3,r3
   8067c:	18c7883a 	add	r3,r3,r3
   80680:	0005883a 	mov	r2,zero
   80684:	01c00234 	movhi	r7,8
   80688:	39c00804 	addi	r7,r7,32
   8068c:	01800234 	movhi	r6,8
   80690:	31800804 	addi	r6,r6,32
   80694:	11c9883a 	add	r4,r2,r7
   80698:	118b883a 	add	r5,r2,r6
   8069c:	29400017 	ldw	r5,0(r5)
   806a0:	21400015 	stw	r5,0(r4)
   806a4:	10800104 	addi	r2,r2,4
   806a8:	18bffa1e 	bne	r3,r2,80694 <tx_descriptor+0xfff80634>
   806ac:	00800234 	movhi	r2,8
   806b0:	10930604 	addi	r2,r2,19480
   806b4:	00c00234 	movhi	r3,8
   806b8:	18d30604 	addi	r3,r3,19480
   806bc:	18801926 	beq	r3,r2,80724 <alt_load+0x170>
   806c0:	00800234 	movhi	r2,8
   806c4:	10935604 	addi	r2,r2,19800
   806c8:	00c00234 	movhi	r3,8
   806cc:	18d30604 	addi	r3,r3,19480
   806d0:	18801426 	beq	r3,r2,80724 <alt_load+0x170>
   806d4:	00c00234 	movhi	r3,8
   806d8:	18d30704 	addi	r3,r3,19484
   806dc:	00800234 	movhi	r2,8
   806e0:	10935604 	addi	r2,r2,19800
   806e4:	10c7c83a 	sub	r3,r2,r3
   806e8:	1806d0ba 	srli	r3,r3,2
   806ec:	18c00044 	addi	r3,r3,1
   806f0:	18c7883a 	add	r3,r3,r3
   806f4:	18c7883a 	add	r3,r3,r3
   806f8:	0005883a 	mov	r2,zero
   806fc:	01c00234 	movhi	r7,8
   80700:	39d30604 	addi	r7,r7,19480
   80704:	01800234 	movhi	r6,8
   80708:	31930604 	addi	r6,r6,19480
   8070c:	11c9883a 	add	r4,r2,r7
   80710:	118b883a 	add	r5,r2,r6
   80714:	29400017 	ldw	r5,0(r5)
   80718:	21400015 	stw	r5,0(r4)
   8071c:	10800104 	addi	r2,r2,4
   80720:	18bffa1e 	bne	r3,r2,8070c <tx_descriptor+0xfff806ac>
   80724:	00817a40 	call	817a4 <alt_dcache_flush_all>
   80728:	00818a00 	call	818a0 <alt_icache_flush_all>
   8072c:	dfc00017 	ldw	ra,0(sp)
   80730:	dec00104 	addi	sp,sp,4
   80734:	f800283a 	ret

00080738 <alt_main>:
   80738:	defffe04 	addi	sp,sp,-8
   8073c:	dfc00115 	stw	ra,4(sp)
   80740:	dc000015 	stw	r16,0(sp)
   80744:	0009883a 	mov	r4,zero
   80748:	00809bc0 	call	809bc <alt_irq_init>
   8074c:	00809dc0 	call	809dc <alt_sys_init>
   80750:	01000234 	movhi	r4,8
   80754:	21134e04 	addi	r4,r4,19768
   80758:	200d883a 	mov	r6,r4
   8075c:	200b883a 	mov	r5,r4
   80760:	0081a380 	call	81a38 <alt_io_redirect>
   80764:	d1a7c817 	ldw	r6,-24800(gp)
   80768:	d167c917 	ldw	r5,-24796(gp)
   8076c:	d127ca17 	ldw	r4,-24792(gp)
   80770:	00802b80 	call	802b8 <main>
   80774:	1021883a 	mov	r16,r2
   80778:	01000044 	movi	r4,1
   8077c:	00816c80 	call	816c8 <close>
   80780:	8009883a 	mov	r4,r16
   80784:	0081fbc0 	call	81fbc <exit>

00080788 <alt_printf>:
   80788:	defff304 	addi	sp,sp,-52
   8078c:	dfc00915 	stw	ra,36(sp)
   80790:	df000815 	stw	fp,32(sp)
   80794:	ddc00715 	stw	r23,28(sp)
   80798:	dd800615 	stw	r22,24(sp)
   8079c:	dd400515 	stw	r21,20(sp)
   807a0:	dd000415 	stw	r20,16(sp)
   807a4:	dcc00315 	stw	r19,12(sp)
   807a8:	dc800215 	stw	r18,8(sp)
   807ac:	dc400115 	stw	r17,4(sp)
   807b0:	dc000015 	stw	r16,0(sp)
   807b4:	2021883a 	mov	r16,r4
   807b8:	d9400a15 	stw	r5,40(sp)
   807bc:	d9800b15 	stw	r6,44(sp)
   807c0:	d9c00c15 	stw	r7,48(sp)
   807c4:	dd800a04 	addi	r22,sp,40
   807c8:	04800944 	movi	r18,37
   807cc:	05c018c4 	movi	r23,99
   807d0:	07001e04 	movi	fp,120
   807d4:	04c003c4 	movi	r19,15
   807d8:	05400244 	movi	r21,9
   807dc:	00005e06 	br	80958 <alt_printf+0x1d0>
   807e0:	20803fcc 	andi	r2,r4,255
   807e4:	1080201c 	xori	r2,r2,128
   807e8:	10bfe004 	addi	r2,r2,-128
   807ec:	14800426 	beq	r2,r18,80800 <alt_printf+0x78>
   807f0:	84000044 	addi	r16,r16,1
   807f4:	1009883a 	mov	r4,r2
   807f8:	008099c0 	call	8099c <alt_putchar>
   807fc:	00005606 	br	80958 <alt_printf+0x1d0>
   80800:	85000084 	addi	r20,r16,2
   80804:	80800043 	ldbu	r2,1(r16)
   80808:	10c03fcc 	andi	r3,r2,255
   8080c:	18c0201c 	xori	r3,r3,128
   80810:	18ffe004 	addi	r3,r3,-128
   80814:	18005526 	beq	r3,zero,8096c <alt_printf+0x1e4>
   80818:	1c80041e 	bne	r3,r18,8082c <alt_printf+0xa4>
   8081c:	9009883a 	mov	r4,r18
   80820:	008099c0 	call	8099c <alt_putchar>
   80824:	a021883a 	mov	r16,r20
   80828:	00004b06 	br	80958 <alt_printf+0x1d0>
   8082c:	10c03fcc 	andi	r3,r2,255
   80830:	18c0201c 	xori	r3,r3,128
   80834:	18ffe004 	addi	r3,r3,-128
   80838:	1dc0061e 	bne	r3,r23,80854 <alt_printf+0xcc>
   8083c:	b4000104 	addi	r16,r22,4
   80840:	b1000017 	ldw	r4,0(r22)
   80844:	008099c0 	call	8099c <alt_putchar>
   80848:	802d883a 	mov	r22,r16
   8084c:	a021883a 	mov	r16,r20
   80850:	00004106 	br	80958 <alt_printf+0x1d0>
   80854:	10c03fcc 	andi	r3,r2,255
   80858:	18c0201c 	xori	r3,r3,128
   8085c:	18ffe004 	addi	r3,r3,-128
   80860:	1f00201e 	bne	r3,fp,808e4 <alt_printf+0x15c>
   80864:	b4400017 	ldw	r17,0(r22)
   80868:	b5800104 	addi	r22,r22,4
   8086c:	88000426 	beq	r17,zero,80880 <alt_printf+0xf8>
   80870:	88bc002c 	andhi	r2,r17,61440
   80874:	10000626 	beq	r2,zero,80890 <alt_printf+0x108>
   80878:	04000704 	movi	r16,28
   8087c:	00000a06 	br	808a8 <alt_printf+0x120>
   80880:	01000c04 	movi	r4,48
   80884:	008099c0 	call	8099c <alt_putchar>
   80888:	a021883a 	mov	r16,r20
   8088c:	00003206 	br	80958 <alt_printf+0x1d0>
   80890:	04000704 	movi	r16,28
   80894:	843fff04 	addi	r16,r16,-4
   80898:	9c04983a 	sll	r2,r19,r16
   8089c:	1444703a 	and	r2,r2,r17
   808a0:	103ffc26 	beq	r2,zero,80894 <tx_descriptor+0xfff80834>
   808a4:	80002716 	blt	r16,zero,80944 <alt_printf+0x1bc>
   808a8:	9c08983a 	sll	r4,r19,r16
   808ac:	2448703a 	and	r4,r4,r17
   808b0:	2408d83a 	srl	r4,r4,r16
   808b4:	a9000236 	bltu	r21,r4,808c0 <alt_printf+0x138>
   808b8:	21000c04 	addi	r4,r4,48
   808bc:	00000106 	br	808c4 <alt_printf+0x13c>
   808c0:	210015c4 	addi	r4,r4,87
   808c4:	21003fcc 	andi	r4,r4,255
   808c8:	2100201c 	xori	r4,r4,128
   808cc:	213fe004 	addi	r4,r4,-128
   808d0:	008099c0 	call	8099c <alt_putchar>
   808d4:	843fff04 	addi	r16,r16,-4
   808d8:	803ff30e 	bge	r16,zero,808a8 <tx_descriptor+0xfff80848>
   808dc:	a021883a 	mov	r16,r20
   808e0:	00001d06 	br	80958 <alt_printf+0x1d0>
   808e4:	10803fcc 	andi	r2,r2,255
   808e8:	1080201c 	xori	r2,r2,128
   808ec:	10bfe004 	addi	r2,r2,-128
   808f0:	00c01cc4 	movi	r3,115
   808f4:	10c0151e 	bne	r2,r3,8094c <alt_printf+0x1c4>
   808f8:	b4000017 	ldw	r16,0(r22)
   808fc:	b5800104 	addi	r22,r22,4
   80900:	81000003 	ldbu	r4,0(r16)
   80904:	20803fcc 	andi	r2,r4,255
   80908:	1080201c 	xori	r2,r2,128
   8090c:	10bfe004 	addi	r2,r2,-128
   80910:	10001026 	beq	r2,zero,80954 <alt_printf+0x1cc>
   80914:	84000044 	addi	r16,r16,1
   80918:	21003fcc 	andi	r4,r4,255
   8091c:	2100201c 	xori	r4,r4,128
   80920:	213fe004 	addi	r4,r4,-128
   80924:	008099c0 	call	8099c <alt_putchar>
   80928:	81000003 	ldbu	r4,0(r16)
   8092c:	20803fcc 	andi	r2,r4,255
   80930:	1080201c 	xori	r2,r2,128
   80934:	10bfe004 	addi	r2,r2,-128
   80938:	103ff61e 	bne	r2,zero,80914 <tx_descriptor+0xfff808b4>
   8093c:	a021883a 	mov	r16,r20
   80940:	00000506 	br	80958 <alt_printf+0x1d0>
   80944:	a021883a 	mov	r16,r20
   80948:	00000306 	br	80958 <alt_printf+0x1d0>
   8094c:	a021883a 	mov	r16,r20
   80950:	00000106 	br	80958 <alt_printf+0x1d0>
   80954:	a021883a 	mov	r16,r20
   80958:	81000003 	ldbu	r4,0(r16)
   8095c:	20803fcc 	andi	r2,r4,255
   80960:	1080201c 	xori	r2,r2,128
   80964:	10bfe004 	addi	r2,r2,-128
   80968:	103f9d1e 	bne	r2,zero,807e0 <tx_descriptor+0xfff80780>
   8096c:	dfc00917 	ldw	ra,36(sp)
   80970:	df000817 	ldw	fp,32(sp)
   80974:	ddc00717 	ldw	r23,28(sp)
   80978:	dd800617 	ldw	r22,24(sp)
   8097c:	dd400517 	ldw	r21,20(sp)
   80980:	dd000417 	ldw	r20,16(sp)
   80984:	dcc00317 	ldw	r19,12(sp)
   80988:	dc800217 	ldw	r18,8(sp)
   8098c:	dc400117 	ldw	r17,4(sp)
   80990:	dc000017 	ldw	r16,0(sp)
   80994:	dec00d04 	addi	sp,sp,52
   80998:	f800283a 	ret

0008099c <alt_putchar>:
   8099c:	deffff04 	addi	sp,sp,-4
   809a0:	dfc00015 	stw	ra,0(sp)
   809a4:	d0a00c17 	ldw	r2,-32720(gp)
   809a8:	11400217 	ldw	r5,8(r2)
   809ac:	00823500 	call	82350 <putc>
   809b0:	dfc00017 	ldw	ra,0(sp)
   809b4:	dec00104 	addi	sp,sp,4
   809b8:	f800283a 	ret

000809bc <alt_irq_init>:
   809bc:	deffff04 	addi	sp,sp,-4
   809c0:	dfc00015 	stw	ra,0(sp)
   809c4:	0081de80 	call	81de8 <altera_nios2_gen2_irq_init>
   809c8:	00800044 	movi	r2,1
   809cc:	1001703a 	wrctl	status,r2
   809d0:	dfc00017 	ldw	ra,0(sp)
   809d4:	dec00104 	addi	sp,sp,4
   809d8:	f800283a 	ret

000809dc <alt_sys_init>:
   809dc:	defffe04 	addi	sp,sp,-8
   809e0:	dfc00115 	stw	ra,4(sp)
   809e4:	dc000015 	stw	r16,0(sp)
   809e8:	04000234 	movhi	r16,8
   809ec:	84147804 	addi	r16,r16,20960
   809f0:	000d883a 	mov	r6,zero
   809f4:	000b883a 	mov	r5,zero
   809f8:	8009883a 	mov	r4,r16
   809fc:	0080c200 	call	80c20 <altera_avalon_jtag_uart_init>
   80a00:	d1600304 	addi	r5,gp,-32756
   80a04:	813ff604 	addi	r4,r16,-40
   80a08:	00817b00 	call	817b0 <alt_dev_llist_insert>
   80a0c:	01800044 	movi	r6,1
   80a10:	000b883a 	mov	r5,zero
   80a14:	01000234 	movhi	r4,8
   80a18:	21146204 	addi	r4,r4,20872
   80a1c:	00815c40 	call	815c4 <alt_avalon_sgdma_init>
   80a20:	01800084 	movi	r6,2
   80a24:	000b883a 	mov	r5,zero
   80a28:	01000234 	movhi	r4,8
   80a2c:	21145604 	addi	r4,r4,20824
   80a30:	00815c40 	call	815c4 <alt_avalon_sgdma_init>
   80a34:	dfc00117 	ldw	ra,4(sp)
   80a38:	dc000017 	ldw	r16,0(sp)
   80a3c:	dec00204 	addi	sp,sp,8
   80a40:	f800283a 	ret

00080a44 <altera_avalon_jtag_uart_read_fd>:
   80a44:	deffff04 	addi	sp,sp,-4
   80a48:	dfc00015 	stw	ra,0(sp)
   80a4c:	20800017 	ldw	r2,0(r4)
   80a50:	21c00217 	ldw	r7,8(r4)
   80a54:	11000a04 	addi	r4,r2,40
   80a58:	0080d5c0 	call	80d5c <altera_avalon_jtag_uart_read>
   80a5c:	dfc00017 	ldw	ra,0(sp)
   80a60:	dec00104 	addi	sp,sp,4
   80a64:	f800283a 	ret

00080a68 <altera_avalon_jtag_uart_write_fd>:
   80a68:	deffff04 	addi	sp,sp,-4
   80a6c:	dfc00015 	stw	ra,0(sp)
   80a70:	20800017 	ldw	r2,0(r4)
   80a74:	21c00217 	ldw	r7,8(r4)
   80a78:	11000a04 	addi	r4,r2,40
   80a7c:	0080eb40 	call	80eb4 <altera_avalon_jtag_uart_write>
   80a80:	dfc00017 	ldw	ra,0(sp)
   80a84:	dec00104 	addi	sp,sp,4
   80a88:	f800283a 	ret

00080a8c <altera_avalon_jtag_uart_close_fd>:
   80a8c:	deffff04 	addi	sp,sp,-4
   80a90:	dfc00015 	stw	ra,0(sp)
   80a94:	20800017 	ldw	r2,0(r4)
   80a98:	21400217 	ldw	r5,8(r4)
   80a9c:	11000a04 	addi	r4,r2,40
   80aa0:	0080c980 	call	80c98 <altera_avalon_jtag_uart_close>
   80aa4:	dfc00017 	ldw	ra,0(sp)
   80aa8:	dec00104 	addi	sp,sp,4
   80aac:	f800283a 	ret

00080ab0 <altera_avalon_jtag_uart_ioctl_fd>:
   80ab0:	deffff04 	addi	sp,sp,-4
   80ab4:	dfc00015 	stw	ra,0(sp)
   80ab8:	21000017 	ldw	r4,0(r4)
   80abc:	21000a04 	addi	r4,r4,40
   80ac0:	0080cd40 	call	80cd4 <altera_avalon_jtag_uart_ioctl>
   80ac4:	dfc00017 	ldw	ra,0(sp)
   80ac8:	dec00104 	addi	sp,sp,4
   80acc:	f800283a 	ret

00080ad0 <altera_avalon_jtag_uart_timeout>:
   80ad0:	20800017 	ldw	r2,0(r4)
   80ad4:	10800137 	ldwio	r2,4(r2)
   80ad8:	1081000c 	andi	r2,r2,1024
   80adc:	10000626 	beq	r2,zero,80af8 <altera_avalon_jtag_uart_timeout+0x28>
   80ae0:	20c00017 	ldw	r3,0(r4)
   80ae4:	20800817 	ldw	r2,32(r4)
   80ae8:	10810014 	ori	r2,r2,1024
   80aec:	18800135 	stwio	r2,4(r3)
   80af0:	20000915 	stw	zero,36(r4)
   80af4:	00000606 	br	80b10 <altera_avalon_jtag_uart_timeout+0x40>
   80af8:	20800917 	ldw	r2,36(r4)
   80afc:	00e00034 	movhi	r3,32768
   80b00:	18ffff04 	addi	r3,r3,-4
   80b04:	18800236 	bltu	r3,r2,80b10 <altera_avalon_jtag_uart_timeout+0x40>
   80b08:	10800044 	addi	r2,r2,1
   80b0c:	20800915 	stw	r2,36(r4)
   80b10:	d0a7cd17 	ldw	r2,-24780(gp)
   80b14:	f800283a 	ret

00080b18 <altera_avalon_jtag_uart_irq>:
   80b18:	21800017 	ldw	r6,0(r4)
   80b1c:	32000104 	addi	r8,r6,4
   80b20:	02bfff84 	movi	r10,-2
   80b24:	02ffff44 	movi	r11,-3
   80b28:	4013883a 	mov	r9,r8
   80b2c:	41c00037 	ldwio	r7,0(r8)
   80b30:	3880c00c 	andi	r2,r7,768
   80b34:	10003926 	beq	r2,zero,80c1c <altera_avalon_jtag_uart_irq+0x104>
   80b38:	3880400c 	andi	r2,r7,256
   80b3c:	10001c26 	beq	r2,zero,80bb0 <altera_avalon_jtag_uart_irq+0x98>
   80b40:	20800a17 	ldw	r2,40(r4)
   80b44:	10800044 	addi	r2,r2,1
   80b48:	1081ffcc 	andi	r2,r2,2047
   80b4c:	20c00b17 	ldw	r3,44(r4)
   80b50:	10c01226 	beq	r2,r3,80b9c <altera_avalon_jtag_uart_irq+0x84>
   80b54:	30800037 	ldwio	r2,0(r6)
   80b58:	100b883a 	mov	r5,r2
   80b5c:	10e0000c 	andi	r3,r2,32768
   80b60:	18000c26 	beq	r3,zero,80b94 <altera_avalon_jtag_uart_irq+0x7c>
   80b64:	20c00a17 	ldw	r3,40(r4)
   80b68:	20c7883a 	add	r3,r4,r3
   80b6c:	18800e05 	stb	r2,56(r3)
   80b70:	20800a17 	ldw	r2,40(r4)
   80b74:	10800044 	addi	r2,r2,1
   80b78:	1081ffcc 	andi	r2,r2,2047
   80b7c:	20800a15 	stw	r2,40(r4)
   80b80:	20800a17 	ldw	r2,40(r4)
   80b84:	10800044 	addi	r2,r2,1
   80b88:	1081ffcc 	andi	r2,r2,2047
   80b8c:	20c00b17 	ldw	r3,44(r4)
   80b90:	10fff01e 	bne	r2,r3,80b54 <tx_descriptor+0xfff80af4>
   80b94:	297fffec 	andhi	r5,r5,65535
   80b98:	28000526 	beq	r5,zero,80bb0 <altera_avalon_jtag_uart_irq+0x98>
   80b9c:	20800817 	ldw	r2,32(r4)
   80ba0:	1284703a 	and	r2,r2,r10
   80ba4:	20800815 	stw	r2,32(r4)
   80ba8:	40800035 	stwio	r2,0(r8)
   80bac:	40800037 	ldwio	r2,0(r8)
   80bb0:	3880800c 	andi	r2,r7,512
   80bb4:	103fdc26 	beq	r2,zero,80b28 <tx_descriptor+0xfff80ac8>
   80bb8:	380ed43a 	srli	r7,r7,16
   80bbc:	383fda26 	beq	r7,zero,80b28 <tx_descriptor+0xfff80ac8>
   80bc0:	20c00d17 	ldw	r3,52(r4)
   80bc4:	20800c17 	ldw	r2,48(r4)
   80bc8:	18800d26 	beq	r3,r2,80c00 <altera_avalon_jtag_uart_irq+0xe8>
   80bcc:	20800d17 	ldw	r2,52(r4)
   80bd0:	2085883a 	add	r2,r4,r2
   80bd4:	10820e07 	ldb	r2,2104(r2)
   80bd8:	30800035 	stwio	r2,0(r6)
   80bdc:	20800d17 	ldw	r2,52(r4)
   80be0:	10800044 	addi	r2,r2,1
   80be4:	1081ffcc 	andi	r2,r2,2047
   80be8:	20800d15 	stw	r2,52(r4)
   80bec:	39ffffc4 	addi	r7,r7,-1
   80bf0:	383fcd26 	beq	r7,zero,80b28 <tx_descriptor+0xfff80ac8>
   80bf4:	20c00d17 	ldw	r3,52(r4)
   80bf8:	20800c17 	ldw	r2,48(r4)
   80bfc:	18bff31e 	bne	r3,r2,80bcc <tx_descriptor+0xfff80b6c>
   80c00:	20800817 	ldw	r2,32(r4)
   80c04:	12c4703a 	and	r2,r2,r11
   80c08:	20800815 	stw	r2,32(r4)
   80c0c:	20c00017 	ldw	r3,0(r4)
   80c10:	18800135 	stwio	r2,4(r3)
   80c14:	48800037 	ldwio	r2,0(r9)
   80c18:	003fc306 	br	80b28 <tx_descriptor+0xfff80ac8>
   80c1c:	f800283a 	ret

00080c20 <altera_avalon_jtag_uart_init>:
   80c20:	defffd04 	addi	sp,sp,-12
   80c24:	dfc00215 	stw	ra,8(sp)
   80c28:	dc000115 	stw	r16,4(sp)
   80c2c:	2021883a 	mov	r16,r4
   80c30:	2809883a 	mov	r4,r5
   80c34:	300b883a 	mov	r5,r6
   80c38:	00800044 	movi	r2,1
   80c3c:	80800815 	stw	r2,32(r16)
   80c40:	80c00017 	ldw	r3,0(r16)
   80c44:	18800135 	stwio	r2,4(r3)
   80c48:	d8000015 	stw	zero,0(sp)
   80c4c:	800f883a 	mov	r7,r16
   80c50:	01800234 	movhi	r6,8
   80c54:	3182c604 	addi	r6,r6,2840
   80c58:	00818a40 	call	818a4 <alt_ic_isr_register>
   80c5c:	80000915 	stw	zero,36(r16)
   80c60:	800f883a 	mov	r7,r16
   80c64:	01800234 	movhi	r6,8
   80c68:	3182b404 	addi	r6,r6,2768
   80c6c:	d167cd17 	ldw	r5,-24780(gp)
   80c70:	81000204 	addi	r4,r16,8
   80c74:	00816480 	call	81648 <alt_alarm_start>
   80c78:	1000030e 	bge	r2,zero,80c88 <altera_avalon_jtag_uart_init+0x68>
   80c7c:	00a00034 	movhi	r2,32768
   80c80:	10bfffc4 	addi	r2,r2,-1
   80c84:	80800115 	stw	r2,4(r16)
   80c88:	dfc00217 	ldw	ra,8(sp)
   80c8c:	dc000117 	ldw	r16,4(sp)
   80c90:	dec00304 	addi	sp,sp,12
   80c94:	f800283a 	ret

00080c98 <altera_avalon_jtag_uart_close>:
   80c98:	21800c17 	ldw	r6,48(r4)
   80c9c:	2950000c 	andi	r5,r5,16384
   80ca0:	00000106 	br	80ca8 <altera_avalon_jtag_uart_close+0x10>
   80ca4:	2800071e 	bne	r5,zero,80cc4 <altera_avalon_jtag_uart_close+0x2c>
   80ca8:	20800d17 	ldw	r2,52(r4)
   80cac:	11800726 	beq	r2,r6,80ccc <altera_avalon_jtag_uart_close+0x34>
   80cb0:	20c00917 	ldw	r3,36(r4)
   80cb4:	20800117 	ldw	r2,4(r4)
   80cb8:	18bffa36 	bltu	r3,r2,80ca4 <tx_descriptor+0xfff80c44>
   80cbc:	0005883a 	mov	r2,zero
   80cc0:	f800283a 	ret
   80cc4:	00bffd44 	movi	r2,-11
   80cc8:	f800283a 	ret
   80ccc:	0005883a 	mov	r2,zero
   80cd0:	f800283a 	ret

00080cd4 <altera_avalon_jtag_uart_ioctl>:
   80cd4:	009a8044 	movi	r2,27137
   80cd8:	28800326 	beq	r5,r2,80ce8 <altera_avalon_jtag_uart_ioctl+0x14>
   80cdc:	009a8084 	movi	r2,27138
   80ce0:	28800f26 	beq	r5,r2,80d20 <altera_avalon_jtag_uart_ioctl+0x4c>
   80ce4:	00001706 	br	80d44 <altera_avalon_jtag_uart_ioctl+0x70>
   80ce8:	20c00117 	ldw	r3,4(r4)
   80cec:	00a00034 	movhi	r2,32768
   80cf0:	10bfffc4 	addi	r2,r2,-1
   80cf4:	18801526 	beq	r3,r2,80d4c <altera_avalon_jtag_uart_ioctl+0x78>
   80cf8:	30800017 	ldw	r2,0(r6)
   80cfc:	10ffff84 	addi	r3,r2,-2
   80d00:	01600034 	movhi	r5,32768
   80d04:	297fff04 	addi	r5,r5,-4
   80d08:	28c0022e 	bgeu	r5,r3,80d14 <altera_avalon_jtag_uart_ioctl+0x40>
   80d0c:	00a00034 	movhi	r2,32768
   80d10:	10bfff84 	addi	r2,r2,-2
   80d14:	20800115 	stw	r2,4(r4)
   80d18:	0005883a 	mov	r2,zero
   80d1c:	f800283a 	ret
   80d20:	20c00117 	ldw	r3,4(r4)
   80d24:	00a00034 	movhi	r2,32768
   80d28:	10bfffc4 	addi	r2,r2,-1
   80d2c:	18800926 	beq	r3,r2,80d54 <altera_avalon_jtag_uart_ioctl+0x80>
   80d30:	20800917 	ldw	r2,36(r4)
   80d34:	10c5803a 	cmpltu	r2,r2,r3
   80d38:	30800015 	stw	r2,0(r6)
   80d3c:	0005883a 	mov	r2,zero
   80d40:	f800283a 	ret
   80d44:	00bff9c4 	movi	r2,-25
   80d48:	f800283a 	ret
   80d4c:	00bff9c4 	movi	r2,-25
   80d50:	f800283a 	ret
   80d54:	00bff9c4 	movi	r2,-25
   80d58:	f800283a 	ret

00080d5c <altera_avalon_jtag_uart_read>:
   80d5c:	0180450e 	bge	zero,r6,80e74 <altera_avalon_jtag_uart_read+0x118>
   80d60:	defff504 	addi	sp,sp,-44
   80d64:	dfc00a15 	stw	ra,40(sp)
   80d68:	df000915 	stw	fp,36(sp)
   80d6c:	ddc00815 	stw	r23,32(sp)
   80d70:	dd800715 	stw	r22,28(sp)
   80d74:	dd400615 	stw	r21,24(sp)
   80d78:	dd000515 	stw	r20,20(sp)
   80d7c:	dcc00415 	stw	r19,16(sp)
   80d80:	dc800315 	stw	r18,12(sp)
   80d84:	dc400215 	stw	r17,8(sp)
   80d88:	dc000115 	stw	r16,4(sp)
   80d8c:	2023883a 	mov	r17,r4
   80d90:	2839883a 	mov	fp,r5
   80d94:	05c20004 	movi	r23,2048
   80d98:	25800e04 	addi	r22,r4,56
   80d9c:	39d0000c 	andi	r7,r7,16384
   80da0:	d9c00015 	stw	r7,0(sp)
   80da4:	e029883a 	mov	r20,fp
   80da8:	8cc00a17 	ldw	r19,40(r17)
   80dac:	8c800b17 	ldw	r18,44(r17)
   80db0:	9c800236 	bltu	r19,r18,80dbc <altera_avalon_jtag_uart_read+0x60>
   80db4:	9ca1c83a 	sub	r16,r19,r18
   80db8:	00000106 	br	80dc0 <altera_avalon_jtag_uart_read+0x64>
   80dbc:	bca1c83a 	sub	r16,r23,r18
   80dc0:	80000d26 	beq	r16,zero,80df8 <altera_avalon_jtag_uart_read+0x9c>
   80dc4:	302b883a 	mov	r21,r6
   80dc8:	3400012e 	bgeu	r6,r16,80dd0 <altera_avalon_jtag_uart_read+0x74>
   80dcc:	3021883a 	mov	r16,r6
   80dd0:	800d883a 	mov	r6,r16
   80dd4:	b48b883a 	add	r5,r22,r18
   80dd8:	a009883a 	mov	r4,r20
   80ddc:	00821680 	call	82168 <memcpy>
   80de0:	a429883a 	add	r20,r20,r16
   80de4:	ac0dc83a 	sub	r6,r21,r16
   80de8:	9421883a 	add	r16,r18,r16
   80dec:	8401ffcc 	andi	r16,r16,2047
   80df0:	8c000b15 	stw	r16,44(r17)
   80df4:	01bfec16 	blt	zero,r6,80da8 <tx_descriptor+0xfff80d48>
   80df8:	a700121e 	bne	r20,fp,80e44 <altera_avalon_jtag_uart_read+0xe8>
   80dfc:	d8800017 	ldw	r2,0(sp)
   80e00:	10000a1e 	bne	r2,zero,80e2c <altera_avalon_jtag_uart_read+0xd0>
   80e04:	88800a17 	ldw	r2,40(r17)
   80e08:	9880031e 	bne	r19,r2,80e18 <altera_avalon_jtag_uart_read+0xbc>
   80e0c:	88c00917 	ldw	r3,36(r17)
   80e10:	88800117 	ldw	r2,4(r17)
   80e14:	18bffb36 	bltu	r3,r2,80e04 <tx_descriptor+0xfff80da4>
   80e18:	88800a17 	ldw	r2,40(r17)
   80e1c:	98800526 	beq	r19,r2,80e34 <altera_avalon_jtag_uart_read+0xd8>
   80e20:	01bfe016 	blt	zero,r6,80da4 <tx_descriptor+0xfff80d44>
   80e24:	00bffec4 	movi	r2,-5
   80e28:	00001606 	br	80e84 <altera_avalon_jtag_uart_read+0x128>
   80e2c:	00bffd44 	movi	r2,-11
   80e30:	00001406 	br	80e84 <altera_avalon_jtag_uart_read+0x128>
   80e34:	00bffec4 	movi	r2,-5
   80e38:	00001206 	br	80e84 <altera_avalon_jtag_uart_read+0x128>
   80e3c:	00bffd44 	movi	r2,-11
   80e40:	f800283a 	ret
   80e44:	0007303a 	rdctl	r3,status
   80e48:	00bfff84 	movi	r2,-2
   80e4c:	1884703a 	and	r2,r3,r2
   80e50:	1001703a 	wrctl	status,r2
   80e54:	88800817 	ldw	r2,32(r17)
   80e58:	10800054 	ori	r2,r2,1
   80e5c:	88800815 	stw	r2,32(r17)
   80e60:	89000017 	ldw	r4,0(r17)
   80e64:	20800135 	stwio	r2,4(r4)
   80e68:	1801703a 	wrctl	status,r3
   80e6c:	a705c83a 	sub	r2,r20,fp
   80e70:	00000406 	br	80e84 <altera_avalon_jtag_uart_read+0x128>
   80e74:	39d0000c 	andi	r7,r7,16384
   80e78:	383ff01e 	bne	r7,zero,80e3c <tx_descriptor+0xfff80ddc>
   80e7c:	00bffec4 	movi	r2,-5
   80e80:	f800283a 	ret
   80e84:	dfc00a17 	ldw	ra,40(sp)
   80e88:	df000917 	ldw	fp,36(sp)
   80e8c:	ddc00817 	ldw	r23,32(sp)
   80e90:	dd800717 	ldw	r22,28(sp)
   80e94:	dd400617 	ldw	r21,24(sp)
   80e98:	dd000517 	ldw	r20,20(sp)
   80e9c:	dcc00417 	ldw	r19,16(sp)
   80ea0:	dc800317 	ldw	r18,12(sp)
   80ea4:	dc400217 	ldw	r17,8(sp)
   80ea8:	dc000117 	ldw	r16,4(sp)
   80eac:	dec00b04 	addi	sp,sp,44
   80eb0:	f800283a 	ret

00080eb4 <altera_avalon_jtag_uart_write>:
   80eb4:	defff504 	addi	sp,sp,-44
   80eb8:	dfc00a15 	stw	ra,40(sp)
   80ebc:	df000915 	stw	fp,36(sp)
   80ec0:	ddc00815 	stw	r23,32(sp)
   80ec4:	dd800715 	stw	r22,28(sp)
   80ec8:	dd400615 	stw	r21,24(sp)
   80ecc:	dd000515 	stw	r20,20(sp)
   80ed0:	dcc00415 	stw	r19,16(sp)
   80ed4:	dc800315 	stw	r18,12(sp)
   80ed8:	dc400215 	stw	r17,8(sp)
   80edc:	dc000115 	stw	r16,4(sp)
   80ee0:	2021883a 	mov	r16,r4
   80ee4:	282f883a 	mov	r23,r5
   80ee8:	d9c00015 	stw	r7,0(sp)
   80eec:	2827883a 	mov	r19,r5
   80ef0:	05bfff84 	movi	r22,-2
   80ef4:	3d50000c 	andi	r21,r7,16384
   80ef8:	27020e04 	addi	fp,r4,2104
   80efc:	00001906 	br	80f64 <altera_avalon_jtag_uart_write+0xb0>
   80f00:	84800c17 	ldw	r18,48(r16)
   80f04:	81000d17 	ldw	r4,52(r16)
   80f08:	9100032e 	bgeu	r18,r4,80f18 <altera_avalon_jtag_uart_write+0x64>
   80f0c:	247fffc4 	addi	r17,r4,-1
   80f10:	8ca3c83a 	sub	r17,r17,r18
   80f14:	00000606 	br	80f30 <altera_avalon_jtag_uart_write+0x7c>
   80f18:	20000326 	beq	r4,zero,80f28 <altera_avalon_jtag_uart_write+0x74>
   80f1c:	00820004 	movi	r2,2048
   80f20:	14a3c83a 	sub	r17,r2,r18
   80f24:	00000206 	br	80f30 <altera_avalon_jtag_uart_write+0x7c>
   80f28:	00c1ffc4 	movi	r3,2047
   80f2c:	1ca3c83a 	sub	r17,r3,r18
   80f30:	88002b26 	beq	r17,zero,80fe0 <altera_avalon_jtag_uart_write+0x12c>
   80f34:	3029883a 	mov	r20,r6
   80f38:	3440012e 	bgeu	r6,r17,80f40 <altera_avalon_jtag_uart_write+0x8c>
   80f3c:	3023883a 	mov	r17,r6
   80f40:	880d883a 	mov	r6,r17
   80f44:	980b883a 	mov	r5,r19
   80f48:	e489883a 	add	r4,fp,r18
   80f4c:	00821680 	call	82168 <memcpy>
   80f50:	9c67883a 	add	r19,r19,r17
   80f54:	a44dc83a 	sub	r6,r20,r17
   80f58:	9463883a 	add	r17,r18,r17
   80f5c:	8c41ffcc 	andi	r17,r17,2047
   80f60:	84400c15 	stw	r17,48(r16)
   80f64:	01bfe616 	blt	zero,r6,80f00 <tx_descriptor+0xfff80ea0>
   80f68:	00001106 	br	80fb0 <altera_avalon_jtag_uart_write+0xfc>
   80f6c:	80800d17 	ldw	r2,52(r16)
   80f70:	2080031e 	bne	r4,r2,80f80 <altera_avalon_jtag_uart_write+0xcc>
   80f74:	80c00917 	ldw	r3,36(r16)
   80f78:	80800117 	ldw	r2,4(r16)
   80f7c:	18bffb36 	bltu	r3,r2,80f6c <tx_descriptor+0xfff80f0c>
   80f80:	80800917 	ldw	r2,36(r16)
   80f84:	103ff726 	beq	r2,zero,80f64 <tx_descriptor+0xfff80f04>
   80f88:	00002006 	br	8100c <altera_avalon_jtag_uart_write+0x158>
   80f8c:	9dc5c83a 	sub	r2,r19,r23
   80f90:	00002306 	br	81020 <altera_avalon_jtag_uart_write+0x16c>
   80f94:	d8c00017 	ldw	r3,0(sp)
   80f98:	1890000c 	andi	r2,r3,16384
   80f9c:	1000021e 	bne	r2,zero,80fa8 <altera_avalon_jtag_uart_write+0xf4>
   80fa0:	00bffec4 	movi	r2,-5
   80fa4:	00001e06 	br	81020 <altera_avalon_jtag_uart_write+0x16c>
   80fa8:	00bffd44 	movi	r2,-11
   80fac:	00001c06 	br	81020 <altera_avalon_jtag_uart_write+0x16c>
   80fb0:	0007303a 	rdctl	r3,status
   80fb4:	00bfff84 	movi	r2,-2
   80fb8:	1884703a 	and	r2,r3,r2
   80fbc:	1001703a 	wrctl	status,r2
   80fc0:	80800817 	ldw	r2,32(r16)
   80fc4:	10800094 	ori	r2,r2,2
   80fc8:	80800815 	stw	r2,32(r16)
   80fcc:	81000017 	ldw	r4,0(r16)
   80fd0:	20800135 	stwio	r2,4(r4)
   80fd4:	1801703a 	wrctl	status,r3
   80fd8:	9dffec1e 	bne	r19,r23,80f8c <tx_descriptor+0xfff80f2c>
   80fdc:	003fed06 	br	80f94 <tx_descriptor+0xfff80f34>
   80fe0:	0007303a 	rdctl	r3,status
   80fe4:	1d84703a 	and	r2,r3,r22
   80fe8:	1001703a 	wrctl	status,r2
   80fec:	80800817 	ldw	r2,32(r16)
   80ff0:	10800094 	ori	r2,r2,2
   80ff4:	80800815 	stw	r2,32(r16)
   80ff8:	81400017 	ldw	r5,0(r16)
   80ffc:	28800135 	stwio	r2,4(r5)
   81000:	1801703a 	wrctl	status,r3
   81004:	a83fd926 	beq	r21,zero,80f6c <tx_descriptor+0xfff80f0c>
   81008:	00000306 	br	81018 <altera_avalon_jtag_uart_write+0x164>
   8100c:	9dffdf1e 	bne	r19,r23,80f8c <tx_descriptor+0xfff80f2c>
   81010:	00bffec4 	movi	r2,-5
   81014:	00000206 	br	81020 <altera_avalon_jtag_uart_write+0x16c>
   81018:	9dffdc1e 	bne	r19,r23,80f8c <tx_descriptor+0xfff80f2c>
   8101c:	00bffd44 	movi	r2,-11
   81020:	dfc00a17 	ldw	ra,40(sp)
   81024:	df000917 	ldw	fp,36(sp)
   81028:	ddc00817 	ldw	r23,32(sp)
   8102c:	dd800717 	ldw	r22,28(sp)
   81030:	dd400617 	ldw	r21,24(sp)
   81034:	dd000517 	ldw	r20,20(sp)
   81038:	dcc00417 	ldw	r19,16(sp)
   8103c:	dc800317 	ldw	r18,12(sp)
   81040:	dc400217 	ldw	r17,8(sp)
   81044:	dc000117 	ldw	r16,4(sp)
   81048:	dec00b04 	addi	sp,sp,44
   8104c:	f800283a 	ret

00081050 <alt_avalon_sgdma_irq>:
   81050:	20800317 	ldw	r2,12(r4)
   81054:	10800404 	addi	r2,r2,16
   81058:	10c00037 	ldwio	r3,0(r2)
   8105c:	18e00034 	orhi	r3,r3,32768
   81060:	10c00035 	stwio	r3,0(r2)
   81064:	20800317 	ldw	r2,12(r4)
   81068:	10800437 	ldwio	r2,16(r2)
   8106c:	20800917 	ldw	r2,36(r4)
   81070:	10000e26 	beq	r2,zero,810ac <alt_avalon_sgdma_irq+0x5c>
   81074:	defffe04 	addi	sp,sp,-8
   81078:	dfc00115 	stw	ra,4(sp)
   8107c:	dc000015 	stw	r16,0(sp)
   81080:	0021303a 	rdctl	r16,status
   81084:	00bfff84 	movi	r2,-2
   81088:	8084703a 	and	r2,r16,r2
   8108c:	1001703a 	wrctl	status,r2
   81090:	20800917 	ldw	r2,36(r4)
   81094:	21000a17 	ldw	r4,40(r4)
   81098:	103ee83a 	callr	r2
   8109c:	8001703a 	wrctl	status,r16
   810a0:	dfc00117 	ldw	ra,4(sp)
   810a4:	dc000017 	ldw	r16,0(sp)
   810a8:	dec00204 	addi	sp,sp,8
   810ac:	f800283a 	ret

000810b0 <alt_avalon_sgdma_do_async_transfer>:
   810b0:	20800317 	ldw	r2,12(r4)
   810b4:	10800037 	ldwio	r2,0(r2)
   810b8:	1080040c 	andi	r2,r2,16
   810bc:	10001d1e 	bne	r2,zero,81134 <alt_avalon_sgdma_do_async_transfer+0x84>
   810c0:	20c00317 	ldw	r3,12(r4)
   810c4:	18c00404 	addi	r3,r3,16
   810c8:	19c00037 	ldwio	r7,0(r3)
   810cc:	01bff7c4 	movi	r6,-33
   810d0:	398c703a 	and	r6,r7,r6
   810d4:	19800035 	stwio	r6,0(r3)
   810d8:	20c00317 	ldw	r3,12(r4)
   810dc:	01803fc4 	movi	r6,255
   810e0:	19800035 	stwio	r6,0(r3)
   810e4:	20c00317 	ldw	r3,12(r4)
   810e8:	19400835 	stwio	r5,32(r3)
   810ec:	20c00917 	ldw	r3,36(r4)
   810f0:	18000826 	beq	r3,zero,81114 <alt_avalon_sgdma_do_async_transfer+0x64>
   810f4:	20c00317 	ldw	r3,12(r4)
   810f8:	18c00404 	addi	r3,r3,16
   810fc:	19400037 	ldwio	r5,0(r3)
   81100:	21000b17 	ldw	r4,44(r4)
   81104:	21001814 	ori	r4,r4,96
   81108:	2148b03a 	or	r4,r4,r5
   8110c:	19000035 	stwio	r4,0(r3)
   81110:	f800283a 	ret
   81114:	21000317 	ldw	r4,12(r4)
   81118:	21000404 	addi	r4,r4,16
   8111c:	21400037 	ldwio	r5,0(r4)
   81120:	00fffbc4 	movi	r3,-17
   81124:	28c6703a 	and	r3,r5,r3
   81128:	18c01814 	ori	r3,r3,96
   8112c:	20c00035 	stwio	r3,0(r4)
   81130:	f800283a 	ret
   81134:	00bffc04 	movi	r2,-16
   81138:	f800283a 	ret

0008113c <alt_avalon_sgdma_do_sync_transfer>:
   8113c:	20800317 	ldw	r2,12(r4)
   81140:	10800037 	ldwio	r2,0(r2)
   81144:	1080040c 	andi	r2,r2,16
   81148:	103ffc1e 	bne	r2,zero,8113c <tx_descriptor+0xfff810dc>
   8114c:	20800317 	ldw	r2,12(r4)
   81150:	10800404 	addi	r2,r2,16
   81154:	11800037 	ldwio	r6,0(r2)
   81158:	00fff7c4 	movi	r3,-33
   8115c:	30c6703a 	and	r3,r6,r3
   81160:	10c00035 	stwio	r3,0(r2)
   81164:	20800317 	ldw	r2,12(r4)
   81168:	00c03fc4 	movi	r3,255
   8116c:	10c00035 	stwio	r3,0(r2)
   81170:	20800317 	ldw	r2,12(r4)
   81174:	11400835 	stwio	r5,32(r2)
   81178:	20800317 	ldw	r2,12(r4)
   8117c:	10800404 	addi	r2,r2,16
   81180:	10c00037 	ldwio	r3,0(r2)
   81184:	18c01814 	ori	r3,r3,96
   81188:	10c00035 	stwio	r3,0(r2)
   8118c:	20800317 	ldw	r2,12(r4)
   81190:	10800037 	ldwio	r2,0(r2)
   81194:	1080040c 	andi	r2,r2,16
   81198:	103ffc1e 	bne	r2,zero,8118c <tx_descriptor+0xfff8112c>
   8119c:	20800317 	ldw	r2,12(r4)
   811a0:	10800404 	addi	r2,r2,16
   811a4:	11400037 	ldwio	r5,0(r2)
   811a8:	00fff7c4 	movi	r3,-33
   811ac:	28c6703a 	and	r3,r5,r3
   811b0:	10c00035 	stwio	r3,0(r2)
   811b4:	20c00317 	ldw	r3,12(r4)
   811b8:	18800037 	ldwio	r2,0(r3)
   811bc:	01003fc4 	movi	r4,255
   811c0:	19000035 	stwio	r4,0(r3)
   811c4:	f800283a 	ret

000811c8 <alt_avalon_sgdma_register_callback>:
   811c8:	21400915 	stw	r5,36(r4)
   811cc:	21c00a15 	stw	r7,40(r4)
   811d0:	21800b15 	stw	r6,44(r4)
   811d4:	f800283a 	ret

000811d8 <alt_avalon_sgdma_start>:
   811d8:	20800317 	ldw	r2,12(r4)
   811dc:	10800404 	addi	r2,r2,16
   811e0:	10c00037 	ldwio	r3,0(r2)
   811e4:	18c00814 	ori	r3,r3,32
   811e8:	10c00035 	stwio	r3,0(r2)
   811ec:	f800283a 	ret

000811f0 <alt_avalon_sgdma_stop>:
   811f0:	20800317 	ldw	r2,12(r4)
   811f4:	10800404 	addi	r2,r2,16
   811f8:	11000037 	ldwio	r4,0(r2)
   811fc:	00fff7c4 	movi	r3,-33
   81200:	20c6703a 	and	r3,r4,r3
   81204:	10c00035 	stwio	r3,0(r2)
   81208:	f800283a 	ret

0008120c <alt_avalon_sgdma_check_descriptor_status>:
   8120c:	208007a3 	ldbuio	r2,30(r4)
   81210:	10801fcc 	andi	r2,r2,127
   81214:	1000041e 	bne	r2,zero,81228 <alt_avalon_sgdma_check_descriptor_status+0x1c>
   81218:	208007e3 	ldbuio	r2,31(r4)
   8121c:	1080200c 	andi	r2,r2,128
   81220:	1000031e 	bne	r2,zero,81230 <alt_avalon_sgdma_check_descriptor_status+0x24>
   81224:	f800283a 	ret
   81228:	00bffec4 	movi	r2,-5
   8122c:	f800283a 	ret
   81230:	00bfe244 	movi	r2,-119
   81234:	f800283a 	ret

00081238 <alt_avalon_sgdma_open>:
   81238:	defffe04 	addi	sp,sp,-8
   8123c:	dfc00115 	stw	ra,4(sp)
   81240:	dc000015 	stw	r16,0(sp)
   81244:	d1600004 	addi	r5,gp,-32768
   81248:	00818240 	call	81824 <alt_find_dev>
   8124c:	1021883a 	mov	r16,r2
   81250:	1000071e 	bne	r2,zero,81270 <alt_avalon_sgdma_open+0x38>
   81254:	d0a00717 	ldw	r2,-32740(gp)
   81258:	10000226 	beq	r2,zero,81264 <alt_avalon_sgdma_open+0x2c>
   8125c:	103ee83a 	callr	r2
   81260:	00000106 	br	81268 <alt_avalon_sgdma_open+0x30>
   81264:	d0a7cf04 	addi	r2,gp,-24772
   81268:	00c004c4 	movi	r3,19
   8126c:	10c00015 	stw	r3,0(r2)
   81270:	8005883a 	mov	r2,r16
   81274:	dfc00117 	ldw	ra,4(sp)
   81278:	dc000017 	ldw	r16,0(sp)
   8127c:	dec00204 	addi	sp,sp,8
   81280:	f800283a 	ret

00081284 <alt_avalon_sgdma_enable_desc_poll>:
   81284:	20c00317 	ldw	r3,12(r4)
   81288:	18c00404 	addi	r3,r3,16
   8128c:	19000037 	ldwio	r4,0(r3)
   81290:	00a00434 	movhi	r2,32784
   81294:	10bfffc4 	addi	r2,r2,-1
   81298:	2084703a 	and	r2,r4,r2
   8129c:	280a953a 	slli	r5,r5,20
   812a0:	295ffc2c 	andhi	r5,r5,32752
   812a4:	29400134 	orhi	r5,r5,4
   812a8:	288ab03a 	or	r5,r5,r2
   812ac:	19400035 	stwio	r5,0(r3)
   812b0:	f800283a 	ret

000812b4 <alt_avalon_sgdma_disable_desc_poll>:
   812b4:	20800317 	ldw	r2,12(r4)
   812b8:	10800404 	addi	r2,r2,16
   812bc:	11000037 	ldwio	r4,0(r2)
   812c0:	00ffff34 	movhi	r3,65532
   812c4:	18ffffc4 	addi	r3,r3,-1
   812c8:	20c6703a 	and	r3,r4,r3
   812cc:	10c00035 	stwio	r3,0(r2)
   812d0:	f800283a 	ret

000812d4 <alt_avalon_sgdma_construct_descriptor_burst>:
   812d4:	deffff04 	addi	sp,sp,-4
   812d8:	dfc00015 	stw	ra,0(sp)
   812dc:	da000717 	ldw	r8,28(sp)
   812e0:	288007c3 	ldbu	r2,31(r5)
   812e4:	10801fcc 	andi	r2,r2,127
   812e8:	288007e5 	stbio	r2,31(r5)
   812ec:	21800005 	stb	r6,0(r4)
   812f0:	3004d23a 	srli	r2,r6,8
   812f4:	20800045 	stb	r2,1(r4)
   812f8:	3004d43a 	srli	r2,r6,16
   812fc:	20800085 	stb	r2,2(r4)
   81300:	300cd63a 	srli	r6,r6,24
   81304:	218000c5 	stb	r6,3(r4)
   81308:	21c00205 	stb	r7,8(r4)
   8130c:	3804d23a 	srli	r2,r7,8
   81310:	20800245 	stb	r2,9(r4)
   81314:	3804d43a 	srli	r2,r7,16
   81318:	20800285 	stb	r2,10(r4)
   8131c:	380ed63a 	srli	r7,r7,24
   81320:	21c002c5 	stb	r7,11(r4)
   81324:	21400405 	stb	r5,16(r4)
   81328:	2804d23a 	srli	r2,r5,8
   8132c:	20800445 	stb	r2,17(r4)
   81330:	2804d43a 	srli	r2,r5,16
   81334:	20800485 	stb	r2,18(r4)
   81338:	280ad63a 	srli	r5,r5,24
   8133c:	214004c5 	stb	r5,19(r4)
   81340:	20000105 	stb	zero,4(r4)
   81344:	20000145 	stb	zero,5(r4)
   81348:	20000185 	stb	zero,6(r4)
   8134c:	200001c5 	stb	zero,7(r4)
   81350:	20000305 	stb	zero,12(r4)
   81354:	20000345 	stb	zero,13(r4)
   81358:	20000385 	stb	zero,14(r4)
   8135c:	200003c5 	stb	zero,15(r4)
   81360:	20000505 	stb	zero,20(r4)
   81364:	20000545 	stb	zero,21(r4)
   81368:	20000585 	stb	zero,22(r4)
   8136c:	200005c5 	stb	zero,23(r4)
   81370:	d880010b 	ldhu	r2,4(sp)
   81374:	20800605 	stb	r2,24(r4)
   81378:	1004d23a 	srli	r2,r2,8
   8137c:	20800645 	stb	r2,25(r4)
   81380:	20000705 	stb	zero,28(r4)
   81384:	20000745 	stb	zero,29(r4)
   81388:	20000785 	stb	zero,30(r4)
   8138c:	d8800517 	ldw	r2,20(sp)
   81390:	20800685 	stb	r2,26(r4)
   81394:	d8800617 	ldw	r2,24(sp)
   81398:	208006c5 	stb	r2,27(r4)
   8139c:	d8800217 	ldw	r2,8(sp)
   813a0:	1004c03a 	cmpne	r2,r2,zero
   813a4:	10bfe004 	addi	r2,r2,-128
   813a8:	d8c00317 	ldw	r3,12(sp)
   813ac:	1806c03a 	cmpne	r3,r3,zero
   813b0:	1806907a 	slli	r3,r3,1
   813b4:	10c4b03a 	or	r2,r2,r3
   813b8:	d8c00417 	ldw	r3,16(sp)
   813bc:	1806c03a 	cmpne	r3,r3,zero
   813c0:	180690ba 	slli	r3,r3,2
   813c4:	10c4b03a 	or	r2,r2,r3
   813c8:	40c03fcc 	andi	r3,r8,255
   813cc:	18000326 	beq	r3,zero,813dc <alt_avalon_sgdma_construct_descriptor_burst+0x108>
   813d0:	420003cc 	andi	r8,r8,15
   813d4:	401090fa 	slli	r8,r8,3
   813d8:	00000106 	br	813e0 <alt_avalon_sgdma_construct_descriptor_burst+0x10c>
   813dc:	0011883a 	mov	r8,zero
   813e0:	1204b03a 	or	r2,r2,r8
   813e4:	208007c5 	stb	r2,31(r4)
   813e8:	01400804 	movi	r5,32
   813ec:	00817a00 	call	817a0 <alt_dcache_flush>
   813f0:	dfc00017 	ldw	ra,0(sp)
   813f4:	dec00104 	addi	sp,sp,4
   813f8:	f800283a 	ret

000813fc <alt_avalon_sgdma_construct_mem_to_mem_desc_burst>:
   813fc:	defff804 	addi	sp,sp,-32
   81400:	dfc00715 	stw	ra,28(sp)
   81404:	d8000615 	stw	zero,24(sp)
   81408:	d8800c17 	ldw	r2,48(sp)
   8140c:	d8800515 	stw	r2,20(sp)
   81410:	d8800b17 	ldw	r2,44(sp)
   81414:	d8800415 	stw	r2,16(sp)
   81418:	d8800a17 	ldw	r2,40(sp)
   8141c:	d8800315 	stw	r2,12(sp)
   81420:	d8800917 	ldw	r2,36(sp)
   81424:	d8800215 	stw	r2,8(sp)
   81428:	d8000115 	stw	zero,4(sp)
   8142c:	d880080b 	ldhu	r2,32(sp)
   81430:	d8800015 	stw	r2,0(sp)
   81434:	00812d40 	call	812d4 <alt_avalon_sgdma_construct_descriptor_burst>
   81438:	dfc00717 	ldw	ra,28(sp)
   8143c:	dec00804 	addi	sp,sp,32
   81440:	f800283a 	ret

00081444 <alt_avalon_sgdma_construct_mem_to_mem_desc>:
   81444:	defffa04 	addi	sp,sp,-24
   81448:	dfc00515 	stw	ra,20(sp)
   8144c:	d8000415 	stw	zero,16(sp)
   81450:	d8000315 	stw	zero,12(sp)
   81454:	d8800817 	ldw	r2,32(sp)
   81458:	d8800215 	stw	r2,8(sp)
   8145c:	d8800717 	ldw	r2,28(sp)
   81460:	d8800115 	stw	r2,4(sp)
   81464:	d880060b 	ldhu	r2,24(sp)
   81468:	d8800015 	stw	r2,0(sp)
   8146c:	00813fc0 	call	813fc <alt_avalon_sgdma_construct_mem_to_mem_desc_burst>
   81470:	dfc00517 	ldw	ra,20(sp)
   81474:	dec00604 	addi	sp,sp,24
   81478:	f800283a 	ret

0008147c <alt_avalon_sgdma_construct_stream_to_mem_desc_burst>:
   8147c:	defff804 	addi	sp,sp,-32
   81480:	dfc00715 	stw	ra,28(sp)
   81484:	d8000615 	stw	zero,24(sp)
   81488:	d8800917 	ldw	r2,36(sp)
   8148c:	d8800515 	stw	r2,20(sp)
   81490:	d8000415 	stw	zero,16(sp)
   81494:	d8800817 	ldw	r2,32(sp)
   81498:	d8800315 	stw	r2,12(sp)
   8149c:	d8000215 	stw	zero,8(sp)
   814a0:	d8000115 	stw	zero,4(sp)
   814a4:	39ffffcc 	andi	r7,r7,65535
   814a8:	d9c00015 	stw	r7,0(sp)
   814ac:	300f883a 	mov	r7,r6
   814b0:	000d883a 	mov	r6,zero
   814b4:	00812d40 	call	812d4 <alt_avalon_sgdma_construct_descriptor_burst>
   814b8:	dfc00717 	ldw	ra,28(sp)
   814bc:	dec00804 	addi	sp,sp,32
   814c0:	f800283a 	ret

000814c4 <alt_avalon_sgdma_construct_stream_to_mem_desc>:
   814c4:	defffd04 	addi	sp,sp,-12
   814c8:	dfc00215 	stw	ra,8(sp)
   814cc:	d8000115 	stw	zero,4(sp)
   814d0:	d8800317 	ldw	r2,12(sp)
   814d4:	d8800015 	stw	r2,0(sp)
   814d8:	39ffffcc 	andi	r7,r7,65535
   814dc:	008147c0 	call	8147c <alt_avalon_sgdma_construct_stream_to_mem_desc_burst>
   814e0:	dfc00217 	ldw	ra,8(sp)
   814e4:	dec00304 	addi	sp,sp,12
   814e8:	f800283a 	ret

000814ec <alt_avalon_sgdma_construct_mem_to_stream_desc_burst>:
   814ec:	defff804 	addi	sp,sp,-32
   814f0:	dfc00715 	stw	ra,28(sp)
   814f4:	d8800c03 	ldbu	r2,48(sp)
   814f8:	d8800615 	stw	r2,24(sp)
   814fc:	d8000515 	stw	zero,20(sp)
   81500:	d8800b17 	ldw	r2,44(sp)
   81504:	d8800415 	stw	r2,16(sp)
   81508:	d8800917 	ldw	r2,36(sp)
   8150c:	d8800315 	stw	r2,12(sp)
   81510:	d8800817 	ldw	r2,32(sp)
   81514:	d8800215 	stw	r2,8(sp)
   81518:	d8800a17 	ldw	r2,40(sp)
   8151c:	d8800115 	stw	r2,4(sp)
   81520:	39ffffcc 	andi	r7,r7,65535
   81524:	d9c00015 	stw	r7,0(sp)
   81528:	000f883a 	mov	r7,zero
   8152c:	00812d40 	call	812d4 <alt_avalon_sgdma_construct_descriptor_burst>
   81530:	dfc00717 	ldw	ra,28(sp)
   81534:	dec00804 	addi	sp,sp,32
   81538:	f800283a 	ret

0008153c <alt_avalon_sgdma_construct_mem_to_stream_desc>:
   8153c:	defffa04 	addi	sp,sp,-24
   81540:	dfc00515 	stw	ra,20(sp)
   81544:	d8800903 	ldbu	r2,36(sp)
   81548:	d8800415 	stw	r2,16(sp)
   8154c:	d8000315 	stw	zero,12(sp)
   81550:	d8800817 	ldw	r2,32(sp)
   81554:	d8800215 	stw	r2,8(sp)
   81558:	d8800717 	ldw	r2,28(sp)
   8155c:	d8800115 	stw	r2,4(sp)
   81560:	d8800617 	ldw	r2,24(sp)
   81564:	d8800015 	stw	r2,0(sp)
   81568:	39ffffcc 	andi	r7,r7,65535
   8156c:	00814ec0 	call	814ec <alt_avalon_sgdma_construct_mem_to_stream_desc_burst>
   81570:	dfc00517 	ldw	ra,20(sp)
   81574:	dec00604 	addi	sp,sp,24
   81578:	f800283a 	ret

0008157c <alt_avalon_sgdma_construct_descriptor>:
   8157c:	defff804 	addi	sp,sp,-32
   81580:	dfc00715 	stw	ra,28(sp)
   81584:	d8800c03 	ldbu	r2,48(sp)
   81588:	d8800615 	stw	r2,24(sp)
   8158c:	d8000515 	stw	zero,20(sp)
   81590:	d8000415 	stw	zero,16(sp)
   81594:	d8800b17 	ldw	r2,44(sp)
   81598:	d8800315 	stw	r2,12(sp)
   8159c:	d8800a17 	ldw	r2,40(sp)
   815a0:	d8800215 	stw	r2,8(sp)
   815a4:	d8800917 	ldw	r2,36(sp)
   815a8:	d8800115 	stw	r2,4(sp)
   815ac:	d880080b 	ldhu	r2,32(sp)
   815b0:	d8800015 	stw	r2,0(sp)
   815b4:	00812d40 	call	812d4 <alt_avalon_sgdma_construct_descriptor_burst>
   815b8:	dfc00717 	ldw	ra,28(sp)
   815bc:	dec00804 	addi	sp,sp,32
   815c0:	f800283a 	ret

000815c4 <alt_avalon_sgdma_init>:
   815c4:	defffb04 	addi	sp,sp,-20
   815c8:	dfc00415 	stw	ra,16(sp)
   815cc:	dc800315 	stw	r18,12(sp)
   815d0:	dc400215 	stw	r17,8(sp)
   815d4:	dc000115 	stw	r16,4(sp)
   815d8:	2021883a 	mov	r16,r4
   815dc:	2823883a 	mov	r17,r5
   815e0:	3025883a 	mov	r18,r6
   815e4:	20c00317 	ldw	r3,12(r4)
   815e8:	00800074 	movhi	r2,1
   815ec:	18800435 	stwio	r2,16(r3)
   815f0:	20c00317 	ldw	r3,12(r4)
   815f4:	18800435 	stwio	r2,16(r3)
   815f8:	20800317 	ldw	r2,12(r4)
   815fc:	10000435 	stwio	zero,16(r2)
   81600:	20800317 	ldw	r2,12(r4)
   81604:	00c03fc4 	movi	r3,255
   81608:	10c00035 	stwio	r3,0(r2)
   8160c:	d1600004 	addi	r5,gp,-32768
   81610:	00817b00 	call	817b0 <alt_dev_llist_insert>
   81614:	d8000015 	stw	zero,0(sp)
   81618:	800f883a 	mov	r7,r16
   8161c:	01800234 	movhi	r6,8
   81620:	31841404 	addi	r6,r6,4176
   81624:	900b883a 	mov	r5,r18
   81628:	8809883a 	mov	r4,r17
   8162c:	00818a40 	call	818a4 <alt_ic_isr_register>
   81630:	dfc00417 	ldw	ra,16(sp)
   81634:	dc800317 	ldw	r18,12(sp)
   81638:	dc400217 	ldw	r17,8(sp)
   8163c:	dc000117 	ldw	r16,4(sp)
   81640:	dec00504 	addi	sp,sp,20
   81644:	f800283a 	ret

00081648 <alt_alarm_start>:
   81648:	d0a7cd17 	ldw	r2,-24780(gp)
   8164c:	10001a26 	beq	r2,zero,816b8 <alt_alarm_start+0x70>
   81650:	20001b26 	beq	r4,zero,816c0 <alt_alarm_start+0x78>
   81654:	21800315 	stw	r6,12(r4)
   81658:	21c00515 	stw	r7,20(r4)
   8165c:	0007303a 	rdctl	r3,status
   81660:	00bfff84 	movi	r2,-2
   81664:	1884703a 	and	r2,r3,r2
   81668:	1001703a 	wrctl	status,r2
   8166c:	d0a7cc17 	ldw	r2,-24784(gp)
   81670:	11800044 	addi	r6,r2,1
   81674:	314b883a 	add	r5,r6,r5
   81678:	21400215 	stw	r5,8(r4)
   8167c:	2880032e 	bgeu	r5,r2,8168c <alt_alarm_start+0x44>
   81680:	00800044 	movi	r2,1
   81684:	20800405 	stb	r2,16(r4)
   81688:	00000106 	br	81690 <alt_alarm_start+0x48>
   8168c:	20000405 	stb	zero,16(r4)
   81690:	d0a00904 	addi	r2,gp,-32732
   81694:	20800115 	stw	r2,4(r4)
   81698:	11400017 	ldw	r5,0(r2)
   8169c:	21400015 	stw	r5,0(r4)
   816a0:	11400017 	ldw	r5,0(r2)
   816a4:	29000115 	stw	r4,4(r5)
   816a8:	11000015 	stw	r4,0(r2)
   816ac:	1801703a 	wrctl	status,r3
   816b0:	0005883a 	mov	r2,zero
   816b4:	f800283a 	ret
   816b8:	00bfde84 	movi	r2,-134
   816bc:	f800283a 	ret
   816c0:	00bffa84 	movi	r2,-22
   816c4:	f800283a 	ret

000816c8 <close>:
   816c8:	defffd04 	addi	sp,sp,-12
   816cc:	dfc00215 	stw	ra,8(sp)
   816d0:	dc400115 	stw	r17,4(sp)
   816d4:	dc000015 	stw	r16,0(sp)
   816d8:	20002016 	blt	r4,zero,8175c <close+0x94>
   816dc:	2021883a 	mov	r16,r4
   816e0:	01400304 	movi	r5,12
   816e4:	00847100 	call	84710 <__mulsi3>
   816e8:	04400234 	movhi	r17,8
   816ec:	8c588604 	addi	r17,r17,25112
   816f0:	1463883a 	add	r17,r2,r17
   816f4:	88001926 	beq	r17,zero,8175c <close+0x94>
   816f8:	01400304 	movi	r5,12
   816fc:	8009883a 	mov	r4,r16
   81700:	00847100 	call	84710 <__mulsi3>
   81704:	00c00234 	movhi	r3,8
   81708:	18d88604 	addi	r3,r3,25112
   8170c:	1885883a 	add	r2,r3,r2
   81710:	10800017 	ldw	r2,0(r2)
   81714:	10800417 	ldw	r2,16(r2)
   81718:	10001926 	beq	r2,zero,81780 <close+0xb8>
   8171c:	8809883a 	mov	r4,r17
   81720:	103ee83a 	callr	r2
   81724:	1023883a 	mov	r17,r2
   81728:	8009883a 	mov	r4,r16
   8172c:	0081c880 	call	81c88 <alt_release_fd>
   81730:	0005883a 	mov	r2,zero
   81734:	8800150e 	bge	r17,zero,8178c <close+0xc4>
   81738:	d0a00717 	ldw	r2,-32740(gp)
   8173c:	10000226 	beq	r2,zero,81748 <close+0x80>
   81740:	103ee83a 	callr	r2
   81744:	00000106 	br	8174c <close+0x84>
   81748:	d0a7cf04 	addi	r2,gp,-24772
   8174c:	0463c83a 	sub	r17,zero,r17
   81750:	14400015 	stw	r17,0(r2)
   81754:	00bfffc4 	movi	r2,-1
   81758:	00000c06 	br	8178c <close+0xc4>
   8175c:	d0a00717 	ldw	r2,-32740(gp)
   81760:	10000226 	beq	r2,zero,8176c <close+0xa4>
   81764:	103ee83a 	callr	r2
   81768:	00000106 	br	81770 <close+0xa8>
   8176c:	d0a7cf04 	addi	r2,gp,-24772
   81770:	00c01444 	movi	r3,81
   81774:	10c00015 	stw	r3,0(r2)
   81778:	00bfffc4 	movi	r2,-1
   8177c:	00000306 	br	8178c <close+0xc4>
   81780:	8009883a 	mov	r4,r16
   81784:	0081c880 	call	81c88 <alt_release_fd>
   81788:	0005883a 	mov	r2,zero
   8178c:	dfc00217 	ldw	ra,8(sp)
   81790:	dc400117 	ldw	r17,4(sp)
   81794:	dc000017 	ldw	r16,0(sp)
   81798:	dec00304 	addi	sp,sp,12
   8179c:	f800283a 	ret

000817a0 <alt_dcache_flush>:
   817a0:	f800283a 	ret

000817a4 <alt_dcache_flush_all>:
   817a4:	f800283a 	ret

000817a8 <alt_dev_null_write>:
   817a8:	3005883a 	mov	r2,r6
   817ac:	f800283a 	ret

000817b0 <alt_dev_llist_insert>:
   817b0:	20000226 	beq	r4,zero,817bc <alt_dev_llist_insert+0xc>
   817b4:	20800217 	ldw	r2,8(r4)
   817b8:	10000f1e 	bne	r2,zero,817f8 <alt_dev_llist_insert+0x48>
   817bc:	d0a00717 	ldw	r2,-32740(gp)
   817c0:	10000426 	beq	r2,zero,817d4 <alt_dev_llist_insert+0x24>
   817c4:	deffff04 	addi	sp,sp,-4
   817c8:	dfc00015 	stw	ra,0(sp)
   817cc:	103ee83a 	callr	r2
   817d0:	00000506 	br	817e8 <alt_dev_llist_insert+0x38>
   817d4:	d0a7cf04 	addi	r2,gp,-24772
   817d8:	00c00584 	movi	r3,22
   817dc:	10c00015 	stw	r3,0(r2)
   817e0:	00bffa84 	movi	r2,-22
   817e4:	f800283a 	ret
   817e8:	00c00584 	movi	r3,22
   817ec:	10c00015 	stw	r3,0(r2)
   817f0:	00bffa84 	movi	r2,-22
   817f4:	00000806 	br	81818 <alt_dev_llist_insert+0x68>
   817f8:	21400115 	stw	r5,4(r4)
   817fc:	28800017 	ldw	r2,0(r5)
   81800:	20800015 	stw	r2,0(r4)
   81804:	28800017 	ldw	r2,0(r5)
   81808:	11000115 	stw	r4,4(r2)
   8180c:	29000015 	stw	r4,0(r5)
   81810:	0005883a 	mov	r2,zero
   81814:	f800283a 	ret
   81818:	dfc00017 	ldw	ra,0(sp)
   8181c:	dec00104 	addi	sp,sp,4
   81820:	f800283a 	ret

00081824 <alt_find_dev>:
   81824:	defffb04 	addi	sp,sp,-20
   81828:	dfc00415 	stw	ra,16(sp)
   8182c:	dcc00315 	stw	r19,12(sp)
   81830:	dc800215 	stw	r18,8(sp)
   81834:	dc400115 	stw	r17,4(sp)
   81838:	dc000015 	stw	r16,0(sp)
   8183c:	2027883a 	mov	r19,r4
   81840:	2823883a 	mov	r17,r5
   81844:	2c000017 	ldw	r16,0(r5)
   81848:	00824a00 	call	824a0 <strlen>
   8184c:	14800044 	addi	r18,r2,1
   81850:	8c000926 	beq	r17,r16,81878 <alt_find_dev+0x54>
   81854:	900d883a 	mov	r6,r18
   81858:	980b883a 	mov	r5,r19
   8185c:	81000217 	ldw	r4,8(r16)
   81860:	00820ec0 	call	820ec <memcmp>
   81864:	10000626 	beq	r2,zero,81880 <alt_find_dev+0x5c>
   81868:	84000017 	ldw	r16,0(r16)
   8186c:	8c3ff91e 	bne	r17,r16,81854 <tx_descriptor+0xfff817f4>
   81870:	0005883a 	mov	r2,zero
   81874:	00000306 	br	81884 <alt_find_dev+0x60>
   81878:	0005883a 	mov	r2,zero
   8187c:	00000106 	br	81884 <alt_find_dev+0x60>
   81880:	8005883a 	mov	r2,r16
   81884:	dfc00417 	ldw	ra,16(sp)
   81888:	dcc00317 	ldw	r19,12(sp)
   8188c:	dc800217 	ldw	r18,8(sp)
   81890:	dc400117 	ldw	r17,4(sp)
   81894:	dc000017 	ldw	r16,0(sp)
   81898:	dec00504 	addi	sp,sp,20
   8189c:	f800283a 	ret

000818a0 <alt_icache_flush_all>:
   818a0:	f800283a 	ret

000818a4 <alt_ic_isr_register>:
   818a4:	defffe04 	addi	sp,sp,-8
   818a8:	dfc00115 	stw	ra,4(sp)
   818ac:	d8800217 	ldw	r2,8(sp)
   818b0:	d8800015 	stw	r2,0(sp)
   818b4:	008194c0 	call	8194c <alt_iic_isr_register>
   818b8:	dfc00117 	ldw	ra,4(sp)
   818bc:	dec00204 	addi	sp,sp,8
   818c0:	f800283a 	ret

000818c4 <alt_ic_irq_enable>:
   818c4:	0009303a 	rdctl	r4,status
   818c8:	00bfff84 	movi	r2,-2
   818cc:	2084703a 	and	r2,r4,r2
   818d0:	1001703a 	wrctl	status,r2
   818d4:	d0a7cb17 	ldw	r2,-24788(gp)
   818d8:	00c00044 	movi	r3,1
   818dc:	194a983a 	sll	r5,r3,r5
   818e0:	288ab03a 	or	r5,r5,r2
   818e4:	d167cb15 	stw	r5,-24788(gp)
   818e8:	d0a7cb17 	ldw	r2,-24788(gp)
   818ec:	100170fa 	wrctl	ienable,r2
   818f0:	2001703a 	wrctl	status,r4
   818f4:	0005883a 	mov	r2,zero
   818f8:	f800283a 	ret

000818fc <alt_ic_irq_disable>:
   818fc:	0009303a 	rdctl	r4,status
   81900:	00bfff84 	movi	r2,-2
   81904:	2084703a 	and	r2,r4,r2
   81908:	1001703a 	wrctl	status,r2
   8190c:	d0a7cb17 	ldw	r2,-24788(gp)
   81910:	00ffff84 	movi	r3,-2
   81914:	194a183a 	rol	r5,r3,r5
   81918:	288a703a 	and	r5,r5,r2
   8191c:	d167cb15 	stw	r5,-24788(gp)
   81920:	d0a7cb17 	ldw	r2,-24788(gp)
   81924:	100170fa 	wrctl	ienable,r2
   81928:	2001703a 	wrctl	status,r4
   8192c:	0005883a 	mov	r2,zero
   81930:	f800283a 	ret

00081934 <alt_ic_irq_enabled>:
   81934:	000730fa 	rdctl	r3,ienable
   81938:	00800044 	movi	r2,1
   8193c:	1144983a 	sll	r2,r2,r5
   81940:	10c4703a 	and	r2,r2,r3
   81944:	1004c03a 	cmpne	r2,r2,zero
   81948:	f800283a 	ret

0008194c <alt_iic_isr_register>:
   8194c:	008007c4 	movi	r2,31
   81950:	11401316 	blt	r2,r5,819a0 <alt_iic_isr_register+0x54>
   81954:	defffe04 	addi	sp,sp,-8
   81958:	dfc00115 	stw	ra,4(sp)
   8195c:	dc000015 	stw	r16,0(sp)
   81960:	0021303a 	rdctl	r16,status
   81964:	00bfff84 	movi	r2,-2
   81968:	8084703a 	and	r2,r16,r2
   8196c:	1001703a 	wrctl	status,r2
   81970:	280490fa 	slli	r2,r5,3
   81974:	00c00274 	movhi	r3,9
   81978:	18e3d804 	addi	r3,r3,-28832
   8197c:	1885883a 	add	r2,r3,r2
   81980:	11800015 	stw	r6,0(r2)
   81984:	11c00115 	stw	r7,4(r2)
   81988:	30000226 	beq	r6,zero,81994 <alt_iic_isr_register+0x48>
   8198c:	00818c40 	call	818c4 <alt_ic_irq_enable>
   81990:	00000106 	br	81998 <alt_iic_isr_register+0x4c>
   81994:	00818fc0 	call	818fc <alt_ic_irq_disable>
   81998:	8001703a 	wrctl	status,r16
   8199c:	00000206 	br	819a8 <alt_iic_isr_register+0x5c>
   819a0:	00bffa84 	movi	r2,-22
   819a4:	f800283a 	ret
   819a8:	dfc00117 	ldw	ra,4(sp)
   819ac:	dc000017 	ldw	r16,0(sp)
   819b0:	dec00204 	addi	sp,sp,8
   819b4:	f800283a 	ret

000819b8 <alt_open_fd>:
   819b8:	defffc04 	addi	sp,sp,-16
   819bc:	dfc00315 	stw	ra,12(sp)
   819c0:	dc800215 	stw	r18,8(sp)
   819c4:	dc400115 	stw	r17,4(sp)
   819c8:	dc000015 	stw	r16,0(sp)
   819cc:	2025883a 	mov	r18,r4
   819d0:	2809883a 	mov	r4,r5
   819d4:	300b883a 	mov	r5,r6
   819d8:	380d883a 	mov	r6,r7
   819dc:	0081acc0 	call	81acc <open>
   819e0:	10000f16 	blt	r2,zero,81a20 <alt_open_fd+0x68>
   819e4:	1021883a 	mov	r16,r2
   819e8:	01400304 	movi	r5,12
   819ec:	1009883a 	mov	r4,r2
   819f0:	00847100 	call	84710 <__mulsi3>
   819f4:	04400234 	movhi	r17,8
   819f8:	8c588604 	addi	r17,r17,25112
   819fc:	88a3883a 	add	r17,r17,r2
   81a00:	88800017 	ldw	r2,0(r17)
   81a04:	90800015 	stw	r2,0(r18)
   81a08:	88800117 	ldw	r2,4(r17)
   81a0c:	90800115 	stw	r2,4(r18)
   81a10:	88800217 	ldw	r2,8(r17)
   81a14:	90800215 	stw	r2,8(r18)
   81a18:	8009883a 	mov	r4,r16
   81a1c:	0081c880 	call	81c88 <alt_release_fd>
   81a20:	dfc00317 	ldw	ra,12(sp)
   81a24:	dc800217 	ldw	r18,8(sp)
   81a28:	dc400117 	ldw	r17,4(sp)
   81a2c:	dc000017 	ldw	r16,0(sp)
   81a30:	dec00404 	addi	sp,sp,16
   81a34:	f800283a 	ret

00081a38 <alt_io_redirect>:
   81a38:	defffa04 	addi	sp,sp,-24
   81a3c:	dfc00515 	stw	ra,20(sp)
   81a40:	dd000415 	stw	r20,16(sp)
   81a44:	dcc00315 	stw	r19,12(sp)
   81a48:	dc800215 	stw	r18,8(sp)
   81a4c:	dc400115 	stw	r17,4(sp)
   81a50:	dc000015 	stw	r16,0(sp)
   81a54:	2829883a 	mov	r20,r5
   81a58:	3027883a 	mov	r19,r6
   81a5c:	04407fc4 	movi	r17,511
   81a60:	04800044 	movi	r18,1
   81a64:	04000234 	movhi	r16,8
   81a68:	84188904 	addi	r16,r16,25124
   81a6c:	880f883a 	mov	r7,r17
   81a70:	900d883a 	mov	r6,r18
   81a74:	200b883a 	mov	r5,r4
   81a78:	8009883a 	mov	r4,r16
   81a7c:	00819b80 	call	819b8 <alt_open_fd>
   81a80:	843ffd04 	addi	r16,r16,-12
   81a84:	880f883a 	mov	r7,r17
   81a88:	000d883a 	mov	r6,zero
   81a8c:	a00b883a 	mov	r5,r20
   81a90:	8009883a 	mov	r4,r16
   81a94:	00819b80 	call	819b8 <alt_open_fd>
   81a98:	880f883a 	mov	r7,r17
   81a9c:	900d883a 	mov	r6,r18
   81aa0:	980b883a 	mov	r5,r19
   81aa4:	81000604 	addi	r4,r16,24
   81aa8:	00819b80 	call	819b8 <alt_open_fd>
   81aac:	dfc00517 	ldw	ra,20(sp)
   81ab0:	dd000417 	ldw	r20,16(sp)
   81ab4:	dcc00317 	ldw	r19,12(sp)
   81ab8:	dc800217 	ldw	r18,8(sp)
   81abc:	dc400117 	ldw	r17,4(sp)
   81ac0:	dc000017 	ldw	r16,0(sp)
   81ac4:	dec00604 	addi	sp,sp,24
   81ac8:	f800283a 	ret

00081acc <open>:
   81acc:	defff704 	addi	sp,sp,-36
   81ad0:	dfc00815 	stw	ra,32(sp)
   81ad4:	ddc00715 	stw	r23,28(sp)
   81ad8:	dd800615 	stw	r22,24(sp)
   81adc:	dd400515 	stw	r21,20(sp)
   81ae0:	dd000415 	stw	r20,16(sp)
   81ae4:	dcc00315 	stw	r19,12(sp)
   81ae8:	dc800215 	stw	r18,8(sp)
   81aec:	dc400115 	stw	r17,4(sp)
   81af0:	dc000015 	stw	r16,0(sp)
   81af4:	202b883a 	mov	r21,r4
   81af8:	2829883a 	mov	r20,r5
   81afc:	302d883a 	mov	r22,r6
   81b00:	d1600304 	addi	r5,gp,-32756
   81b04:	00818240 	call	81824 <alt_find_dev>
   81b08:	10003e1e 	bne	r2,zero,81c04 <open+0x138>
   81b0c:	a809883a 	mov	r4,r21
   81b10:	0081df00 	call	81df0 <alt_find_file>
   81b14:	1023883a 	mov	r17,r2
   81b18:	10004b1e 	bne	r2,zero,81c48 <open+0x17c>
   81b1c:	047ffb44 	movi	r17,-19
   81b20:	043fffc4 	movi	r16,-1
   81b24:	00001506 	br	81b7c <open+0xb0>
   81b28:	11400017 	ldw	r5,0(r2)
   81b2c:	2980031e 	bne	r5,r6,81b3c <open+0x70>
   81b30:	21400017 	ldw	r5,0(r4)
   81b34:	2800010e 	bge	r5,zero,81b3c <open+0x70>
   81b38:	98800f1e 	bne	r19,r2,81b78 <open+0xac>
   81b3c:	18c00044 	addi	r3,r3,1
   81b40:	10800304 	addi	r2,r2,12
   81b44:	21000304 	addi	r4,r4,12
   81b48:	90fff72e 	bgeu	r18,r3,81b28 <tx_descriptor+0xfff81ac8>
   81b4c:	88800317 	ldw	r2,12(r17)
   81b50:	10001526 	beq	r2,zero,81ba8 <open+0xdc>
   81b54:	b00f883a 	mov	r7,r22
   81b58:	a00d883a 	mov	r6,r20
   81b5c:	a80b883a 	mov	r5,r21
   81b60:	9809883a 	mov	r4,r19
   81b64:	103ee83a 	callr	r2
   81b68:	1023883a 	mov	r17,r2
   81b6c:	8005883a 	mov	r2,r16
   81b70:	88003a0e 	bge	r17,zero,81c5c <open+0x190>
   81b74:	00000106 	br	81b7c <open+0xb0>
   81b78:	047ffcc4 	movi	r17,-13
   81b7c:	8009883a 	mov	r4,r16
   81b80:	0081c880 	call	81c88 <alt_release_fd>
   81b84:	d0a00717 	ldw	r2,-32740(gp)
   81b88:	10000226 	beq	r2,zero,81b94 <open+0xc8>
   81b8c:	103ee83a 	callr	r2
   81b90:	00000106 	br	81b98 <open+0xcc>
   81b94:	d0a7cf04 	addi	r2,gp,-24772
   81b98:	0463c83a 	sub	r17,zero,r17
   81b9c:	14400015 	stw	r17,0(r2)
   81ba0:	00bfffc4 	movi	r2,-1
   81ba4:	00002d06 	br	81c5c <open+0x190>
   81ba8:	8005883a 	mov	r2,r16
   81bac:	00002b06 	br	81c5c <open+0x190>
   81bb0:	8023883a 	mov	r17,r16
   81bb4:	003ff106 	br	81b7c <tx_descriptor+0xfff81b1c>
   81bb8:	8023883a 	mov	r17,r16
   81bbc:	003fef06 	br	81b7c <tx_descriptor+0xfff81b1c>
   81bc0:	01400304 	movi	r5,12
   81bc4:	8009883a 	mov	r4,r16
   81bc8:	00847100 	call	84710 <__mulsi3>
   81bcc:	05c00234 	movhi	r23,8
   81bd0:	bdd88604 	addi	r23,r23,25112
   81bd4:	15e7883a 	add	r19,r2,r23
   81bd8:	00900034 	movhi	r2,16384
   81bdc:	10bfffc4 	addi	r2,r2,-1
   81be0:	a084703a 	and	r2,r20,r2
   81be4:	10900034 	orhi	r2,r2,16384
   81be8:	98800215 	stw	r2,8(r19)
   81bec:	d4a00217 	ldw	r18,-32760(gp)
   81bf0:	99800017 	ldw	r6,0(r19)
   81bf4:	b805883a 	mov	r2,r23
   81bf8:	b9000204 	addi	r4,r23,8
   81bfc:	0007883a 	mov	r3,zero
   81c00:	003fc906 	br	81b28 <tx_descriptor+0xfff81ac8>
   81c04:	1023883a 	mov	r17,r2
   81c08:	1009883a 	mov	r4,r2
   81c0c:	0081eb00 	call	81eb0 <alt_get_fd>
   81c10:	1021883a 	mov	r16,r2
   81c14:	103fe616 	blt	r2,zero,81bb0 <tx_descriptor+0xfff81b50>
   81c18:	003fe906 	br	81bc0 <tx_descriptor+0xfff81b60>
   81c1c:	01400304 	movi	r5,12
   81c20:	8009883a 	mov	r4,r16
   81c24:	00847100 	call	84710 <__mulsi3>
   81c28:	04c00234 	movhi	r19,8
   81c2c:	9cd88604 	addi	r19,r19,25112
   81c30:	14e7883a 	add	r19,r2,r19
   81c34:	00900034 	movhi	r2,16384
   81c38:	10bfffc4 	addi	r2,r2,-1
   81c3c:	a084703a 	and	r2,r20,r2
   81c40:	98800215 	stw	r2,8(r19)
   81c44:	003fc106 	br	81b4c <tx_descriptor+0xfff81aec>
   81c48:	1009883a 	mov	r4,r2
   81c4c:	0081eb00 	call	81eb0 <alt_get_fd>
   81c50:	1021883a 	mov	r16,r2
   81c54:	103ff10e 	bge	r2,zero,81c1c <tx_descriptor+0xfff81bbc>
   81c58:	003fd706 	br	81bb8 <tx_descriptor+0xfff81b58>
   81c5c:	dfc00817 	ldw	ra,32(sp)
   81c60:	ddc00717 	ldw	r23,28(sp)
   81c64:	dd800617 	ldw	r22,24(sp)
   81c68:	dd400517 	ldw	r21,20(sp)
   81c6c:	dd000417 	ldw	r20,16(sp)
   81c70:	dcc00317 	ldw	r19,12(sp)
   81c74:	dc800217 	ldw	r18,8(sp)
   81c78:	dc400117 	ldw	r17,4(sp)
   81c7c:	dc000017 	ldw	r16,0(sp)
   81c80:	dec00904 	addi	sp,sp,36
   81c84:	f800283a 	ret

00081c88 <alt_release_fd>:
   81c88:	00800084 	movi	r2,2
   81c8c:	1100140e 	bge	r2,r4,81ce0 <alt_release_fd+0x58>
   81c90:	defffd04 	addi	sp,sp,-12
   81c94:	dfc00215 	stw	ra,8(sp)
   81c98:	dc400115 	stw	r17,4(sp)
   81c9c:	dc000015 	stw	r16,0(sp)
   81ca0:	2021883a 	mov	r16,r4
   81ca4:	04400234 	movhi	r17,8
   81ca8:	8c588604 	addi	r17,r17,25112
   81cac:	01400304 	movi	r5,12
   81cb0:	00847100 	call	84710 <__mulsi3>
   81cb4:	8885883a 	add	r2,r17,r2
   81cb8:	10000215 	stw	zero,8(r2)
   81cbc:	01400304 	movi	r5,12
   81cc0:	8009883a 	mov	r4,r16
   81cc4:	00847100 	call	84710 <__mulsi3>
   81cc8:	8885883a 	add	r2,r17,r2
   81ccc:	10000015 	stw	zero,0(r2)
   81cd0:	dfc00217 	ldw	ra,8(sp)
   81cd4:	dc400117 	ldw	r17,4(sp)
   81cd8:	dc000017 	ldw	r16,0(sp)
   81cdc:	dec00304 	addi	sp,sp,12
   81ce0:	f800283a 	ret

00081ce4 <alt_alarm_stop>:
   81ce4:	0007303a 	rdctl	r3,status
   81ce8:	00bfff84 	movi	r2,-2
   81cec:	1884703a 	and	r2,r3,r2
   81cf0:	1001703a 	wrctl	status,r2
   81cf4:	20800017 	ldw	r2,0(r4)
   81cf8:	21400117 	ldw	r5,4(r4)
   81cfc:	11400115 	stw	r5,4(r2)
   81d00:	20800117 	ldw	r2,4(r4)
   81d04:	21400017 	ldw	r5,0(r4)
   81d08:	11400015 	stw	r5,0(r2)
   81d0c:	21000115 	stw	r4,4(r4)
   81d10:	21000015 	stw	r4,0(r4)
   81d14:	1801703a 	wrctl	status,r3
   81d18:	f800283a 	ret

00081d1c <alt_tick>:
   81d1c:	defffb04 	addi	sp,sp,-20
   81d20:	dfc00415 	stw	ra,16(sp)
   81d24:	dcc00315 	stw	r19,12(sp)
   81d28:	dc800215 	stw	r18,8(sp)
   81d2c:	dc400115 	stw	r17,4(sp)
   81d30:	dc000015 	stw	r16,0(sp)
   81d34:	d0e00904 	addi	r3,gp,-32732
   81d38:	1c000017 	ldw	r16,0(r3)
   81d3c:	d0a7cc17 	ldw	r2,-24784(gp)
   81d40:	10800044 	addi	r2,r2,1
   81d44:	d0a7cc15 	stw	r2,-24784(gp)
   81d48:	80c02026 	beq	r16,r3,81dcc <alt_tick+0xb0>
   81d4c:	04c00044 	movi	r19,1
   81d50:	1825883a 	mov	r18,r3
   81d54:	84400017 	ldw	r17,0(r16)
   81d58:	80800403 	ldbu	r2,16(r16)
   81d5c:	10001526 	beq	r2,zero,81db4 <alt_tick+0x98>
   81d60:	d0a7cc17 	ldw	r2,-24784(gp)
   81d64:	1000171e 	bne	r2,zero,81dc4 <alt_tick+0xa8>
   81d68:	80000405 	stb	zero,16(r16)
   81d6c:	00001106 	br	81db4 <alt_tick+0x98>
   81d70:	8009883a 	mov	r4,r16
   81d74:	0081ce40 	call	81ce4 <alt_alarm_stop>
   81d78:	00000606 	br	81d94 <alt_tick+0x78>
   81d7c:	80c00217 	ldw	r3,8(r16)
   81d80:	10c5883a 	add	r2,r2,r3
   81d84:	80800215 	stw	r2,8(r16)
   81d88:	d0e7cc17 	ldw	r3,-24784(gp)
   81d8c:	10c0012e 	bgeu	r2,r3,81d94 <alt_tick+0x78>
   81d90:	84c00405 	stb	r19,16(r16)
   81d94:	8821883a 	mov	r16,r17
   81d98:	8cbfee1e 	bne	r17,r18,81d54 <tx_descriptor+0xfff81cf4>
   81d9c:	00000b06 	br	81dcc <alt_tick+0xb0>
   81da0:	80800317 	ldw	r2,12(r16)
   81da4:	81000517 	ldw	r4,20(r16)
   81da8:	103ee83a 	callr	r2
   81dac:	103ff31e 	bne	r2,zero,81d7c <tx_descriptor+0xfff81d1c>
   81db0:	003fef06 	br	81d70 <tx_descriptor+0xfff81d10>
   81db4:	d0e7cc17 	ldw	r3,-24784(gp)
   81db8:	80800217 	ldw	r2,8(r16)
   81dbc:	18bff536 	bltu	r3,r2,81d94 <tx_descriptor+0xfff81d34>
   81dc0:	003ff706 	br	81da0 <tx_descriptor+0xfff81d40>
   81dc4:	d0a7cc17 	ldw	r2,-24784(gp)
   81dc8:	003ff206 	br	81d94 <tx_descriptor+0xfff81d34>
   81dcc:	dfc00417 	ldw	ra,16(sp)
   81dd0:	dcc00317 	ldw	r19,12(sp)
   81dd4:	dc800217 	ldw	r18,8(sp)
   81dd8:	dc400117 	ldw	r17,4(sp)
   81ddc:	dc000017 	ldw	r16,0(sp)
   81de0:	dec00504 	addi	sp,sp,20
   81de4:	f800283a 	ret

00081de8 <altera_nios2_gen2_irq_init>:
   81de8:	000170fa 	wrctl	ienable,zero
   81dec:	f800283a 	ret

00081df0 <alt_find_file>:
   81df0:	defffa04 	addi	sp,sp,-24
   81df4:	dfc00515 	stw	ra,20(sp)
   81df8:	dd000415 	stw	r20,16(sp)
   81dfc:	dcc00315 	stw	r19,12(sp)
   81e00:	dc800215 	stw	r18,8(sp)
   81e04:	dc400115 	stw	r17,4(sp)
   81e08:	dc000015 	stw	r16,0(sp)
   81e0c:	d0a00504 	addi	r2,gp,-32748
   81e10:	14000017 	ldw	r16,0(r2)
   81e14:	80801b26 	beq	r16,r2,81e84 <alt_find_file+0x94>
   81e18:	2027883a 	mov	r19,r4
   81e1c:	04800bc4 	movi	r18,47
   81e20:	1029883a 	mov	r20,r2
   81e24:	84400217 	ldw	r17,8(r16)
   81e28:	8809883a 	mov	r4,r17
   81e2c:	00824a00 	call	824a0 <strlen>
   81e30:	1007883a 	mov	r3,r2
   81e34:	8889883a 	add	r4,r17,r2
   81e38:	213fffc7 	ldb	r4,-1(r4)
   81e3c:	2480011e 	bne	r4,r18,81e44 <alt_find_file+0x54>
   81e40:	10ffffc4 	addi	r3,r2,-1
   81e44:	180d883a 	mov	r6,r3
   81e48:	98c7883a 	add	r3,r19,r3
   81e4c:	18800003 	ldbu	r2,0(r3)
   81e50:	10c03fcc 	andi	r3,r2,255
   81e54:	18c0201c 	xori	r3,r3,128
   81e58:	18ffe004 	addi	r3,r3,-128
   81e5c:	1c800126 	beq	r3,r18,81e64 <alt_find_file+0x74>
   81e60:	1800041e 	bne	r3,zero,81e74 <alt_find_file+0x84>
   81e64:	980b883a 	mov	r5,r19
   81e68:	8809883a 	mov	r4,r17
   81e6c:	00820ec0 	call	820ec <memcmp>
   81e70:	10000626 	beq	r2,zero,81e8c <alt_find_file+0x9c>
   81e74:	84000017 	ldw	r16,0(r16)
   81e78:	853fea1e 	bne	r16,r20,81e24 <tx_descriptor+0xfff81dc4>
   81e7c:	0005883a 	mov	r2,zero
   81e80:	00000306 	br	81e90 <alt_find_file+0xa0>
   81e84:	0005883a 	mov	r2,zero
   81e88:	00000106 	br	81e90 <alt_find_file+0xa0>
   81e8c:	8005883a 	mov	r2,r16
   81e90:	dfc00517 	ldw	ra,20(sp)
   81e94:	dd000417 	ldw	r20,16(sp)
   81e98:	dcc00317 	ldw	r19,12(sp)
   81e9c:	dc800217 	ldw	r18,8(sp)
   81ea0:	dc400117 	ldw	r17,4(sp)
   81ea4:	dc000017 	ldw	r16,0(sp)
   81ea8:	dec00604 	addi	sp,sp,24
   81eac:	f800283a 	ret

00081eb0 <alt_get_fd>:
   81eb0:	defffd04 	addi	sp,sp,-12
   81eb4:	dfc00215 	stw	ra,8(sp)
   81eb8:	dc400115 	stw	r17,4(sp)
   81ebc:	dc000015 	stw	r16,0(sp)
   81ec0:	00800234 	movhi	r2,8
   81ec4:	10988604 	addi	r2,r2,25112
   81ec8:	10800017 	ldw	r2,0(r2)
   81ecc:	10000726 	beq	r2,zero,81eec <alt_get_fd+0x3c>
   81ed0:	00800234 	movhi	r2,8
   81ed4:	10988904 	addi	r2,r2,25124
   81ed8:	04000044 	movi	r16,1
   81edc:	01400804 	movi	r5,32
   81ee0:	10c00017 	ldw	r3,0(r2)
   81ee4:	18000e1e 	bne	r3,zero,81f20 <alt_get_fd+0x70>
   81ee8:	00000106 	br	81ef0 <alt_get_fd+0x40>
   81eec:	0021883a 	mov	r16,zero
   81ef0:	2023883a 	mov	r17,r4
   81ef4:	01400304 	movi	r5,12
   81ef8:	8009883a 	mov	r4,r16
   81efc:	00847100 	call	84710 <__mulsi3>
   81f00:	00c00234 	movhi	r3,8
   81f04:	18d88604 	addi	r3,r3,25112
   81f08:	1885883a 	add	r2,r3,r2
   81f0c:	14400015 	stw	r17,0(r2)
   81f10:	d0a00217 	ldw	r2,-32760(gp)
   81f14:	1400060e 	bge	r2,r16,81f30 <alt_get_fd+0x80>
   81f18:	d4200215 	stw	r16,-32760(gp)
   81f1c:	00000406 	br	81f30 <alt_get_fd+0x80>
   81f20:	84000044 	addi	r16,r16,1
   81f24:	10800304 	addi	r2,r2,12
   81f28:	817fed1e 	bne	r16,r5,81ee0 <tx_descriptor+0xfff81e80>
   81f2c:	043ffa04 	movi	r16,-24
   81f30:	8005883a 	mov	r2,r16
   81f34:	dfc00217 	ldw	ra,8(sp)
   81f38:	dc400117 	ldw	r17,4(sp)
   81f3c:	dc000017 	ldw	r16,0(sp)
   81f40:	dec00304 	addi	sp,sp,12
   81f44:	f800283a 	ret

00081f48 <alt_exception_cause_generated_bad_addr>:
   81f48:	213ffe84 	addi	r4,r4,-6
   81f4c:	008003c4 	movi	r2,15
   81f50:	11001636 	bltu	r2,r4,81fac <alt_exception_cause_generated_bad_addr+0x64>
   81f54:	200890ba 	slli	r4,r4,2
   81f58:	00800234 	movhi	r2,8
   81f5c:	1087db04 	addi	r2,r2,8044
   81f60:	2089883a 	add	r4,r4,r2
   81f64:	20800017 	ldw	r2,0(r4)
   81f68:	1000683a 	jmp	r2
   81f6c:	00081fb4 	movhi	zero,8318
   81f70:	00081fb4 	movhi	zero,8318
   81f74:	00081fac 	andhi	zero,zero,8318
   81f78:	00081fac 	andhi	zero,zero,8318
   81f7c:	00081fac 	andhi	zero,zero,8318
   81f80:	00081fb4 	movhi	zero,8318
   81f84:	00081fac 	andhi	zero,zero,8318
   81f88:	00081fac 	andhi	zero,zero,8318
   81f8c:	00081fb4 	movhi	zero,8318
   81f90:	00081fb4 	movhi	zero,8318
   81f94:	00081fac 	andhi	zero,zero,8318
   81f98:	00081fb4 	movhi	zero,8318
   81f9c:	00081fac 	andhi	zero,zero,8318
   81fa0:	00081fac 	andhi	zero,zero,8318
   81fa4:	00081fac 	andhi	zero,zero,8318
   81fa8:	00081fb4 	movhi	zero,8318
   81fac:	0005883a 	mov	r2,zero
   81fb0:	f800283a 	ret
   81fb4:	00800044 	movi	r2,1
   81fb8:	f800283a 	ret

00081fbc <exit>:
   81fbc:	defffe04 	addi	sp,sp,-8
   81fc0:	000b883a 	mov	r5,zero
   81fc4:	dc000015 	stw	r16,0(sp)
   81fc8:	dfc00115 	stw	ra,4(sp)
   81fcc:	2021883a 	mov	r16,r4
   81fd0:	00827e40 	call	827e4 <__call_exitprocs>
   81fd4:	00800234 	movhi	r2,8
   81fd8:	109b0604 	addi	r2,r2,27672
   81fdc:	11000017 	ldw	r4,0(r2)
   81fe0:	20800f17 	ldw	r2,60(r4)
   81fe4:	10000126 	beq	r2,zero,81fec <exit+0x30>
   81fe8:	103ee83a 	callr	r2
   81fec:	8009883a 	mov	r4,r16
   81ff0:	00847380 	call	84738 <_exit>

00081ff4 <_getc_r>:
   81ff4:	defffd04 	addi	sp,sp,-12
   81ff8:	dc000115 	stw	r16,4(sp)
   81ffc:	dfc00215 	stw	ra,8(sp)
   82000:	2021883a 	mov	r16,r4
   82004:	20000226 	beq	r4,zero,82010 <_getc_r+0x1c>
   82008:	20800e17 	ldw	r2,56(r4)
   8200c:	10000c26 	beq	r2,zero,82040 <_getc_r+0x4c>
   82010:	28800117 	ldw	r2,4(r5)
   82014:	10bfffc4 	addi	r2,r2,-1
   82018:	28800115 	stw	r2,4(r5)
   8201c:	10000c16 	blt	r2,zero,82050 <_getc_r+0x5c>
   82020:	28800017 	ldw	r2,0(r5)
   82024:	10c00044 	addi	r3,r2,1
   82028:	28c00015 	stw	r3,0(r5)
   8202c:	10800003 	ldbu	r2,0(r2)
   82030:	dfc00217 	ldw	ra,8(sp)
   82034:	dc000117 	ldw	r16,4(sp)
   82038:	dec00304 	addi	sp,sp,12
   8203c:	f800283a 	ret
   82040:	d9400015 	stw	r5,0(sp)
   82044:	0082f6c0 	call	82f6c <__sinit>
   82048:	d9400017 	ldw	r5,0(sp)
   8204c:	003ff006 	br	82010 <tx_descriptor+0xfff81fb0>
   82050:	8009883a 	mov	r4,r16
   82054:	dfc00217 	ldw	ra,8(sp)
   82058:	dc000117 	ldw	r16,4(sp)
   8205c:	dec00304 	addi	sp,sp,12
   82060:	00824181 	jmpi	82418 <__srget_r>

00082064 <getc>:
   82064:	00800234 	movhi	r2,8
   82068:	defffd04 	addi	sp,sp,-12
   8206c:	109b0704 	addi	r2,r2,27676
   82070:	dc400115 	stw	r17,4(sp)
   82074:	14400017 	ldw	r17,0(r2)
   82078:	dc000015 	stw	r16,0(sp)
   8207c:	dfc00215 	stw	ra,8(sp)
   82080:	2021883a 	mov	r16,r4
   82084:	88000226 	beq	r17,zero,82090 <getc+0x2c>
   82088:	88800e17 	ldw	r2,56(r17)
   8208c:	10000d26 	beq	r2,zero,820c4 <getc+0x60>
   82090:	80800117 	ldw	r2,4(r16)
   82094:	10bfffc4 	addi	r2,r2,-1
   82098:	80800115 	stw	r2,4(r16)
   8209c:	10000c16 	blt	r2,zero,820d0 <getc+0x6c>
   820a0:	80800017 	ldw	r2,0(r16)
   820a4:	10c00044 	addi	r3,r2,1
   820a8:	80c00015 	stw	r3,0(r16)
   820ac:	10800003 	ldbu	r2,0(r2)
   820b0:	dfc00217 	ldw	ra,8(sp)
   820b4:	dc400117 	ldw	r17,4(sp)
   820b8:	dc000017 	ldw	r16,0(sp)
   820bc:	dec00304 	addi	sp,sp,12
   820c0:	f800283a 	ret
   820c4:	8809883a 	mov	r4,r17
   820c8:	0082f6c0 	call	82f6c <__sinit>
   820cc:	003ff006 	br	82090 <tx_descriptor+0xfff82030>
   820d0:	800b883a 	mov	r5,r16
   820d4:	8809883a 	mov	r4,r17
   820d8:	dfc00217 	ldw	ra,8(sp)
   820dc:	dc400117 	ldw	r17,4(sp)
   820e0:	dc000017 	ldw	r16,0(sp)
   820e4:	dec00304 	addi	sp,sp,12
   820e8:	00824181 	jmpi	82418 <__srget_r>

000820ec <memcmp>:
   820ec:	01c000c4 	movi	r7,3
   820f0:	3980192e 	bgeu	r7,r6,82158 <memcmp+0x6c>
   820f4:	2144b03a 	or	r2,r4,r5
   820f8:	11c4703a 	and	r2,r2,r7
   820fc:	10000f26 	beq	r2,zero,8213c <memcmp+0x50>
   82100:	20800003 	ldbu	r2,0(r4)
   82104:	28c00003 	ldbu	r3,0(r5)
   82108:	10c0151e 	bne	r2,r3,82160 <memcmp+0x74>
   8210c:	31bfff84 	addi	r6,r6,-2
   82110:	01ffffc4 	movi	r7,-1
   82114:	00000406 	br	82128 <memcmp+0x3c>
   82118:	20800003 	ldbu	r2,0(r4)
   8211c:	28c00003 	ldbu	r3,0(r5)
   82120:	31bfffc4 	addi	r6,r6,-1
   82124:	10c00e1e 	bne	r2,r3,82160 <memcmp+0x74>
   82128:	21000044 	addi	r4,r4,1
   8212c:	29400044 	addi	r5,r5,1
   82130:	31fff91e 	bne	r6,r7,82118 <tx_descriptor+0xfff820b8>
   82134:	0005883a 	mov	r2,zero
   82138:	f800283a 	ret
   8213c:	20c00017 	ldw	r3,0(r4)
   82140:	28800017 	ldw	r2,0(r5)
   82144:	18bfee1e 	bne	r3,r2,82100 <tx_descriptor+0xfff820a0>
   82148:	31bfff04 	addi	r6,r6,-4
   8214c:	21000104 	addi	r4,r4,4
   82150:	29400104 	addi	r5,r5,4
   82154:	39bff936 	bltu	r7,r6,8213c <tx_descriptor+0xfff820dc>
   82158:	303fe91e 	bne	r6,zero,82100 <tx_descriptor+0xfff820a0>
   8215c:	003ff506 	br	82134 <tx_descriptor+0xfff820d4>
   82160:	10c5c83a 	sub	r2,r2,r3
   82164:	f800283a 	ret

00082168 <memcpy>:
   82168:	defffd04 	addi	sp,sp,-12
   8216c:	dfc00215 	stw	ra,8(sp)
   82170:	dc400115 	stw	r17,4(sp)
   82174:	dc000015 	stw	r16,0(sp)
   82178:	00c003c4 	movi	r3,15
   8217c:	2005883a 	mov	r2,r4
   82180:	1980452e 	bgeu	r3,r6,82298 <memcpy+0x130>
   82184:	2906b03a 	or	r3,r5,r4
   82188:	18c000cc 	andi	r3,r3,3
   8218c:	1800441e 	bne	r3,zero,822a0 <memcpy+0x138>
   82190:	347ffc04 	addi	r17,r6,-16
   82194:	8822d13a 	srli	r17,r17,4
   82198:	28c00104 	addi	r3,r5,4
   8219c:	23400104 	addi	r13,r4,4
   821a0:	8820913a 	slli	r16,r17,4
   821a4:	2b000204 	addi	r12,r5,8
   821a8:	22c00204 	addi	r11,r4,8
   821ac:	84000504 	addi	r16,r16,20
   821b0:	2a800304 	addi	r10,r5,12
   821b4:	22400304 	addi	r9,r4,12
   821b8:	2c21883a 	add	r16,r5,r16
   821bc:	2811883a 	mov	r8,r5
   821c0:	200f883a 	mov	r7,r4
   821c4:	41000017 	ldw	r4,0(r8)
   821c8:	1fc00017 	ldw	ra,0(r3)
   821cc:	63c00017 	ldw	r15,0(r12)
   821d0:	39000015 	stw	r4,0(r7)
   821d4:	53800017 	ldw	r14,0(r10)
   821d8:	6fc00015 	stw	ra,0(r13)
   821dc:	5bc00015 	stw	r15,0(r11)
   821e0:	4b800015 	stw	r14,0(r9)
   821e4:	18c00404 	addi	r3,r3,16
   821e8:	39c00404 	addi	r7,r7,16
   821ec:	42000404 	addi	r8,r8,16
   821f0:	6b400404 	addi	r13,r13,16
   821f4:	63000404 	addi	r12,r12,16
   821f8:	5ac00404 	addi	r11,r11,16
   821fc:	52800404 	addi	r10,r10,16
   82200:	4a400404 	addi	r9,r9,16
   82204:	1c3fef1e 	bne	r3,r16,821c4 <tx_descriptor+0xfff82164>
   82208:	89c00044 	addi	r7,r17,1
   8220c:	380e913a 	slli	r7,r7,4
   82210:	310003cc 	andi	r4,r6,15
   82214:	02c000c4 	movi	r11,3
   82218:	11c7883a 	add	r3,r2,r7
   8221c:	29cb883a 	add	r5,r5,r7
   82220:	5900212e 	bgeu	r11,r4,822a8 <memcpy+0x140>
   82224:	1813883a 	mov	r9,r3
   82228:	2811883a 	mov	r8,r5
   8222c:	200f883a 	mov	r7,r4
   82230:	42800017 	ldw	r10,0(r8)
   82234:	4a400104 	addi	r9,r9,4
   82238:	39ffff04 	addi	r7,r7,-4
   8223c:	4abfff15 	stw	r10,-4(r9)
   82240:	42000104 	addi	r8,r8,4
   82244:	59fffa36 	bltu	r11,r7,82230 <tx_descriptor+0xfff821d0>
   82248:	213fff04 	addi	r4,r4,-4
   8224c:	2008d0ba 	srli	r4,r4,2
   82250:	318000cc 	andi	r6,r6,3
   82254:	21000044 	addi	r4,r4,1
   82258:	2109883a 	add	r4,r4,r4
   8225c:	2109883a 	add	r4,r4,r4
   82260:	1907883a 	add	r3,r3,r4
   82264:	290b883a 	add	r5,r5,r4
   82268:	30000626 	beq	r6,zero,82284 <memcpy+0x11c>
   8226c:	198d883a 	add	r6,r3,r6
   82270:	29c00003 	ldbu	r7,0(r5)
   82274:	18c00044 	addi	r3,r3,1
   82278:	29400044 	addi	r5,r5,1
   8227c:	19ffffc5 	stb	r7,-1(r3)
   82280:	19bffb1e 	bne	r3,r6,82270 <tx_descriptor+0xfff82210>
   82284:	dfc00217 	ldw	ra,8(sp)
   82288:	dc400117 	ldw	r17,4(sp)
   8228c:	dc000017 	ldw	r16,0(sp)
   82290:	dec00304 	addi	sp,sp,12
   82294:	f800283a 	ret
   82298:	2007883a 	mov	r3,r4
   8229c:	003ff206 	br	82268 <tx_descriptor+0xfff82208>
   822a0:	2007883a 	mov	r3,r4
   822a4:	003ff106 	br	8226c <tx_descriptor+0xfff8220c>
   822a8:	200d883a 	mov	r6,r4
   822ac:	003fee06 	br	82268 <tx_descriptor+0xfff82208>

000822b0 <_putc_r>:
   822b0:	defffc04 	addi	sp,sp,-16
   822b4:	dc000215 	stw	r16,8(sp)
   822b8:	dfc00315 	stw	ra,12(sp)
   822bc:	2021883a 	mov	r16,r4
   822c0:	20000226 	beq	r4,zero,822cc <_putc_r+0x1c>
   822c4:	20800e17 	ldw	r2,56(r4)
   822c8:	10001b26 	beq	r2,zero,82338 <_putc_r+0x88>
   822cc:	30800217 	ldw	r2,8(r6)
   822d0:	10bfffc4 	addi	r2,r2,-1
   822d4:	30800215 	stw	r2,8(r6)
   822d8:	10000a16 	blt	r2,zero,82304 <_putc_r+0x54>
   822dc:	30800017 	ldw	r2,0(r6)
   822e0:	11400005 	stb	r5,0(r2)
   822e4:	30800017 	ldw	r2,0(r6)
   822e8:	10c00044 	addi	r3,r2,1
   822ec:	30c00015 	stw	r3,0(r6)
   822f0:	10800003 	ldbu	r2,0(r2)
   822f4:	dfc00317 	ldw	ra,12(sp)
   822f8:	dc000217 	ldw	r16,8(sp)
   822fc:	dec00404 	addi	sp,sp,16
   82300:	f800283a 	ret
   82304:	30c00617 	ldw	r3,24(r6)
   82308:	10c00616 	blt	r2,r3,82324 <_putc_r+0x74>
   8230c:	30800017 	ldw	r2,0(r6)
   82310:	00c00284 	movi	r3,10
   82314:	11400005 	stb	r5,0(r2)
   82318:	30800017 	ldw	r2,0(r6)
   8231c:	11400003 	ldbu	r5,0(r2)
   82320:	28fff11e 	bne	r5,r3,822e8 <tx_descriptor+0xfff82288>
   82324:	8009883a 	mov	r4,r16
   82328:	dfc00317 	ldw	ra,12(sp)
   8232c:	dc000217 	ldw	r16,8(sp)
   82330:	dec00404 	addi	sp,sp,16
   82334:	00825381 	jmpi	82538 <__swbuf_r>
   82338:	d9400015 	stw	r5,0(sp)
   8233c:	d9800115 	stw	r6,4(sp)
   82340:	0082f6c0 	call	82f6c <__sinit>
   82344:	d9800117 	ldw	r6,4(sp)
   82348:	d9400017 	ldw	r5,0(sp)
   8234c:	003fdf06 	br	822cc <tx_descriptor+0xfff8226c>

00082350 <putc>:
   82350:	00800234 	movhi	r2,8
   82354:	defffc04 	addi	sp,sp,-16
   82358:	109b0704 	addi	r2,r2,27676
   8235c:	dc000115 	stw	r16,4(sp)
   82360:	14000017 	ldw	r16,0(r2)
   82364:	dc400215 	stw	r17,8(sp)
   82368:	dfc00315 	stw	ra,12(sp)
   8236c:	2023883a 	mov	r17,r4
   82370:	80000226 	beq	r16,zero,8237c <putc+0x2c>
   82374:	80800e17 	ldw	r2,56(r16)
   82378:	10001a26 	beq	r2,zero,823e4 <putc+0x94>
   8237c:	28800217 	ldw	r2,8(r5)
   82380:	10bfffc4 	addi	r2,r2,-1
   82384:	28800215 	stw	r2,8(r5)
   82388:	10000b16 	blt	r2,zero,823b8 <putc+0x68>
   8238c:	28800017 	ldw	r2,0(r5)
   82390:	14400005 	stb	r17,0(r2)
   82394:	28800017 	ldw	r2,0(r5)
   82398:	10c00044 	addi	r3,r2,1
   8239c:	28c00015 	stw	r3,0(r5)
   823a0:	10800003 	ldbu	r2,0(r2)
   823a4:	dfc00317 	ldw	ra,12(sp)
   823a8:	dc400217 	ldw	r17,8(sp)
   823ac:	dc000117 	ldw	r16,4(sp)
   823b0:	dec00404 	addi	sp,sp,16
   823b4:	f800283a 	ret
   823b8:	28c00617 	ldw	r3,24(r5)
   823bc:	10c00e16 	blt	r2,r3,823f8 <putc+0xa8>
   823c0:	28800017 	ldw	r2,0(r5)
   823c4:	01000284 	movi	r4,10
   823c8:	14400005 	stb	r17,0(r2)
   823cc:	28800017 	ldw	r2,0(r5)
   823d0:	10c00003 	ldbu	r3,0(r2)
   823d4:	193ff01e 	bne	r3,r4,82398 <tx_descriptor+0xfff82338>
   823d8:	280d883a 	mov	r6,r5
   823dc:	180b883a 	mov	r5,r3
   823e0:	00000706 	br	82400 <putc+0xb0>
   823e4:	8009883a 	mov	r4,r16
   823e8:	d9400015 	stw	r5,0(sp)
   823ec:	0082f6c0 	call	82f6c <__sinit>
   823f0:	d9400017 	ldw	r5,0(sp)
   823f4:	003fe106 	br	8237c <tx_descriptor+0xfff8231c>
   823f8:	280d883a 	mov	r6,r5
   823fc:	880b883a 	mov	r5,r17
   82400:	8009883a 	mov	r4,r16
   82404:	dfc00317 	ldw	ra,12(sp)
   82408:	dc400217 	ldw	r17,8(sp)
   8240c:	dc000117 	ldw	r16,4(sp)
   82410:	dec00404 	addi	sp,sp,16
   82414:	00825381 	jmpi	82538 <__swbuf_r>

00082418 <__srget_r>:
   82418:	defffd04 	addi	sp,sp,-12
   8241c:	dc400115 	stw	r17,4(sp)
   82420:	dc000015 	stw	r16,0(sp)
   82424:	dfc00215 	stw	ra,8(sp)
   82428:	2023883a 	mov	r17,r4
   8242c:	2821883a 	mov	r16,r5
   82430:	20000226 	beq	r4,zero,8243c <__srget_r+0x24>
   82434:	20800e17 	ldw	r2,56(r4)
   82438:	10001026 	beq	r2,zero,8247c <__srget_r+0x64>
   8243c:	800b883a 	mov	r5,r16
   82440:	8809883a 	mov	r4,r17
   82444:	00840840 	call	84084 <__srefill_r>
   82448:	10000e1e 	bne	r2,zero,82484 <__srget_r+0x6c>
   8244c:	80c00017 	ldw	r3,0(r16)
   82450:	80800117 	ldw	r2,4(r16)
   82454:	19000044 	addi	r4,r3,1
   82458:	10bfffc4 	addi	r2,r2,-1
   8245c:	80800115 	stw	r2,4(r16)
   82460:	81000015 	stw	r4,0(r16)
   82464:	18800003 	ldbu	r2,0(r3)
   82468:	dfc00217 	ldw	ra,8(sp)
   8246c:	dc400117 	ldw	r17,4(sp)
   82470:	dc000017 	ldw	r16,0(sp)
   82474:	dec00304 	addi	sp,sp,12
   82478:	f800283a 	ret
   8247c:	0082f6c0 	call	82f6c <__sinit>
   82480:	003fee06 	br	8243c <tx_descriptor+0xfff823dc>
   82484:	00bfffc4 	movi	r2,-1
   82488:	003ff706 	br	82468 <tx_descriptor+0xfff82408>

0008248c <__srget>:
   8248c:	00800234 	movhi	r2,8
   82490:	109b0704 	addi	r2,r2,27676
   82494:	200b883a 	mov	r5,r4
   82498:	11000017 	ldw	r4,0(r2)
   8249c:	00824181 	jmpi	82418 <__srget_r>

000824a0 <strlen>:
   824a0:	208000cc 	andi	r2,r4,3
   824a4:	10002026 	beq	r2,zero,82528 <strlen+0x88>
   824a8:	20800007 	ldb	r2,0(r4)
   824ac:	10002026 	beq	r2,zero,82530 <strlen+0x90>
   824b0:	2005883a 	mov	r2,r4
   824b4:	00000206 	br	824c0 <strlen+0x20>
   824b8:	10c00007 	ldb	r3,0(r2)
   824bc:	18001826 	beq	r3,zero,82520 <strlen+0x80>
   824c0:	10800044 	addi	r2,r2,1
   824c4:	10c000cc 	andi	r3,r2,3
   824c8:	183ffb1e 	bne	r3,zero,824b8 <tx_descriptor+0xfff82458>
   824cc:	10c00017 	ldw	r3,0(r2)
   824d0:	01ffbff4 	movhi	r7,65279
   824d4:	39ffbfc4 	addi	r7,r7,-257
   824d8:	00ca303a 	nor	r5,zero,r3
   824dc:	01a02074 	movhi	r6,32897
   824e0:	19c7883a 	add	r3,r3,r7
   824e4:	31a02004 	addi	r6,r6,-32640
   824e8:	1946703a 	and	r3,r3,r5
   824ec:	1986703a 	and	r3,r3,r6
   824f0:	1800091e 	bne	r3,zero,82518 <strlen+0x78>
   824f4:	10800104 	addi	r2,r2,4
   824f8:	10c00017 	ldw	r3,0(r2)
   824fc:	19cb883a 	add	r5,r3,r7
   82500:	00c6303a 	nor	r3,zero,r3
   82504:	28c6703a 	and	r3,r5,r3
   82508:	1986703a 	and	r3,r3,r6
   8250c:	183ff926 	beq	r3,zero,824f4 <tx_descriptor+0xfff82494>
   82510:	00000106 	br	82518 <strlen+0x78>
   82514:	10800044 	addi	r2,r2,1
   82518:	10c00007 	ldb	r3,0(r2)
   8251c:	183ffd1e 	bne	r3,zero,82514 <tx_descriptor+0xfff824b4>
   82520:	1105c83a 	sub	r2,r2,r4
   82524:	f800283a 	ret
   82528:	2005883a 	mov	r2,r4
   8252c:	003fe706 	br	824cc <tx_descriptor+0xfff8246c>
   82530:	0005883a 	mov	r2,zero
   82534:	f800283a 	ret

00082538 <__swbuf_r>:
   82538:	defffb04 	addi	sp,sp,-20
   8253c:	dcc00315 	stw	r19,12(sp)
   82540:	dc800215 	stw	r18,8(sp)
   82544:	dc000015 	stw	r16,0(sp)
   82548:	dfc00415 	stw	ra,16(sp)
   8254c:	dc400115 	stw	r17,4(sp)
   82550:	2025883a 	mov	r18,r4
   82554:	2827883a 	mov	r19,r5
   82558:	3021883a 	mov	r16,r6
   8255c:	20000226 	beq	r4,zero,82568 <__swbuf_r+0x30>
   82560:	20800e17 	ldw	r2,56(r4)
   82564:	10004226 	beq	r2,zero,82670 <__swbuf_r+0x138>
   82568:	80800617 	ldw	r2,24(r16)
   8256c:	8100030b 	ldhu	r4,12(r16)
   82570:	80800215 	stw	r2,8(r16)
   82574:	2080020c 	andi	r2,r4,8
   82578:	10003626 	beq	r2,zero,82654 <__swbuf_r+0x11c>
   8257c:	80c00417 	ldw	r3,16(r16)
   82580:	18003426 	beq	r3,zero,82654 <__swbuf_r+0x11c>
   82584:	2088000c 	andi	r2,r4,8192
   82588:	9c403fcc 	andi	r17,r19,255
   8258c:	10001a26 	beq	r2,zero,825f8 <__swbuf_r+0xc0>
   82590:	80800017 	ldw	r2,0(r16)
   82594:	81000517 	ldw	r4,20(r16)
   82598:	10c7c83a 	sub	r3,r2,r3
   8259c:	1900200e 	bge	r3,r4,82620 <__swbuf_r+0xe8>
   825a0:	18c00044 	addi	r3,r3,1
   825a4:	81000217 	ldw	r4,8(r16)
   825a8:	11400044 	addi	r5,r2,1
   825ac:	81400015 	stw	r5,0(r16)
   825b0:	213fffc4 	addi	r4,r4,-1
   825b4:	81000215 	stw	r4,8(r16)
   825b8:	14c00005 	stb	r19,0(r2)
   825bc:	80800517 	ldw	r2,20(r16)
   825c0:	10c01e26 	beq	r2,r3,8263c <__swbuf_r+0x104>
   825c4:	8080030b 	ldhu	r2,12(r16)
   825c8:	1080004c 	andi	r2,r2,1
   825cc:	10000226 	beq	r2,zero,825d8 <__swbuf_r+0xa0>
   825d0:	00800284 	movi	r2,10
   825d4:	88801926 	beq	r17,r2,8263c <__swbuf_r+0x104>
   825d8:	8805883a 	mov	r2,r17
   825dc:	dfc00417 	ldw	ra,16(sp)
   825e0:	dcc00317 	ldw	r19,12(sp)
   825e4:	dc800217 	ldw	r18,8(sp)
   825e8:	dc400117 	ldw	r17,4(sp)
   825ec:	dc000017 	ldw	r16,0(sp)
   825f0:	dec00504 	addi	sp,sp,20
   825f4:	f800283a 	ret
   825f8:	81401917 	ldw	r5,100(r16)
   825fc:	00b7ffc4 	movi	r2,-8193
   82600:	21080014 	ori	r4,r4,8192
   82604:	2884703a 	and	r2,r5,r2
   82608:	80801915 	stw	r2,100(r16)
   8260c:	80800017 	ldw	r2,0(r16)
   82610:	8100030d 	sth	r4,12(r16)
   82614:	81000517 	ldw	r4,20(r16)
   82618:	10c7c83a 	sub	r3,r2,r3
   8261c:	193fe016 	blt	r3,r4,825a0 <tx_descriptor+0xfff82540>
   82620:	800b883a 	mov	r5,r16
   82624:	9009883a 	mov	r4,r18
   82628:	0082b800 	call	82b80 <_fflush_r>
   8262c:	1000071e 	bne	r2,zero,8264c <__swbuf_r+0x114>
   82630:	80800017 	ldw	r2,0(r16)
   82634:	00c00044 	movi	r3,1
   82638:	003fda06 	br	825a4 <tx_descriptor+0xfff82544>
   8263c:	800b883a 	mov	r5,r16
   82640:	9009883a 	mov	r4,r18
   82644:	0082b800 	call	82b80 <_fflush_r>
   82648:	103fe326 	beq	r2,zero,825d8 <tx_descriptor+0xfff82578>
   8264c:	00bfffc4 	movi	r2,-1
   82650:	003fe206 	br	825dc <tx_descriptor+0xfff8257c>
   82654:	800b883a 	mov	r5,r16
   82658:	9009883a 	mov	r4,r18
   8265c:	00826900 	call	82690 <__swsetup_r>
   82660:	103ffa1e 	bne	r2,zero,8264c <tx_descriptor+0xfff825ec>
   82664:	8100030b 	ldhu	r4,12(r16)
   82668:	80c00417 	ldw	r3,16(r16)
   8266c:	003fc506 	br	82584 <tx_descriptor+0xfff82524>
   82670:	0082f6c0 	call	82f6c <__sinit>
   82674:	003fbc06 	br	82568 <tx_descriptor+0xfff82508>

00082678 <__swbuf>:
   82678:	00800234 	movhi	r2,8
   8267c:	109b0704 	addi	r2,r2,27676
   82680:	280d883a 	mov	r6,r5
   82684:	200b883a 	mov	r5,r4
   82688:	11000017 	ldw	r4,0(r2)
   8268c:	00825381 	jmpi	82538 <__swbuf_r>

00082690 <__swsetup_r>:
   82690:	00800234 	movhi	r2,8
   82694:	defffd04 	addi	sp,sp,-12
   82698:	109b0704 	addi	r2,r2,27676
   8269c:	dc400115 	stw	r17,4(sp)
   826a0:	2023883a 	mov	r17,r4
   826a4:	11000017 	ldw	r4,0(r2)
   826a8:	dc000015 	stw	r16,0(sp)
   826ac:	dfc00215 	stw	ra,8(sp)
   826b0:	2821883a 	mov	r16,r5
   826b4:	20000226 	beq	r4,zero,826c0 <__swsetup_r+0x30>
   826b8:	20800e17 	ldw	r2,56(r4)
   826bc:	10003126 	beq	r2,zero,82784 <__swsetup_r+0xf4>
   826c0:	8080030b 	ldhu	r2,12(r16)
   826c4:	10c0020c 	andi	r3,r2,8
   826c8:	1009883a 	mov	r4,r2
   826cc:	18000f26 	beq	r3,zero,8270c <__swsetup_r+0x7c>
   826d0:	80c00417 	ldw	r3,16(r16)
   826d4:	18001526 	beq	r3,zero,8272c <__swsetup_r+0x9c>
   826d8:	1100004c 	andi	r4,r2,1
   826dc:	20001c1e 	bne	r4,zero,82750 <__swsetup_r+0xc0>
   826e0:	1080008c 	andi	r2,r2,2
   826e4:	1000291e 	bne	r2,zero,8278c <__swsetup_r+0xfc>
   826e8:	80800517 	ldw	r2,20(r16)
   826ec:	80800215 	stw	r2,8(r16)
   826f0:	18001c26 	beq	r3,zero,82764 <__swsetup_r+0xd4>
   826f4:	0005883a 	mov	r2,zero
   826f8:	dfc00217 	ldw	ra,8(sp)
   826fc:	dc400117 	ldw	r17,4(sp)
   82700:	dc000017 	ldw	r16,0(sp)
   82704:	dec00304 	addi	sp,sp,12
   82708:	f800283a 	ret
   8270c:	2080040c 	andi	r2,r4,16
   82710:	10002e26 	beq	r2,zero,827cc <__swsetup_r+0x13c>
   82714:	2080010c 	andi	r2,r4,4
   82718:	10001e1e 	bne	r2,zero,82794 <__swsetup_r+0x104>
   8271c:	80c00417 	ldw	r3,16(r16)
   82720:	20800214 	ori	r2,r4,8
   82724:	8080030d 	sth	r2,12(r16)
   82728:	183feb1e 	bne	r3,zero,826d8 <tx_descriptor+0xfff82678>
   8272c:	1100a00c 	andi	r4,r2,640
   82730:	01408004 	movi	r5,512
   82734:	217fe826 	beq	r4,r5,826d8 <tx_descriptor+0xfff82678>
   82738:	800b883a 	mov	r5,r16
   8273c:	8809883a 	mov	r4,r17
   82740:	00835780 	call	83578 <__smakebuf_r>
   82744:	8080030b 	ldhu	r2,12(r16)
   82748:	80c00417 	ldw	r3,16(r16)
   8274c:	003fe206 	br	826d8 <tx_descriptor+0xfff82678>
   82750:	80800517 	ldw	r2,20(r16)
   82754:	80000215 	stw	zero,8(r16)
   82758:	0085c83a 	sub	r2,zero,r2
   8275c:	80800615 	stw	r2,24(r16)
   82760:	183fe41e 	bne	r3,zero,826f4 <tx_descriptor+0xfff82694>
   82764:	80c0030b 	ldhu	r3,12(r16)
   82768:	0005883a 	mov	r2,zero
   8276c:	1900200c 	andi	r4,r3,128
   82770:	203fe126 	beq	r4,zero,826f8 <tx_descriptor+0xfff82698>
   82774:	18c01014 	ori	r3,r3,64
   82778:	80c0030d 	sth	r3,12(r16)
   8277c:	00bfffc4 	movi	r2,-1
   82780:	003fdd06 	br	826f8 <tx_descriptor+0xfff82698>
   82784:	0082f6c0 	call	82f6c <__sinit>
   82788:	003fcd06 	br	826c0 <tx_descriptor+0xfff82660>
   8278c:	0005883a 	mov	r2,zero
   82790:	003fd606 	br	826ec <tx_descriptor+0xfff8268c>
   82794:	81400c17 	ldw	r5,48(r16)
   82798:	28000626 	beq	r5,zero,827b4 <__swsetup_r+0x124>
   8279c:	80801004 	addi	r2,r16,64
   827a0:	28800326 	beq	r5,r2,827b0 <__swsetup_r+0x120>
   827a4:	8809883a 	mov	r4,r17
   827a8:	00830e00 	call	830e0 <_free_r>
   827ac:	8100030b 	ldhu	r4,12(r16)
   827b0:	80000c15 	stw	zero,48(r16)
   827b4:	80c00417 	ldw	r3,16(r16)
   827b8:	00bff6c4 	movi	r2,-37
   827bc:	1108703a 	and	r4,r2,r4
   827c0:	80000115 	stw	zero,4(r16)
   827c4:	80c00015 	stw	r3,0(r16)
   827c8:	003fd506 	br	82720 <tx_descriptor+0xfff826c0>
   827cc:	00800244 	movi	r2,9
   827d0:	88800015 	stw	r2,0(r17)
   827d4:	20801014 	ori	r2,r4,64
   827d8:	8080030d 	sth	r2,12(r16)
   827dc:	00bfffc4 	movi	r2,-1
   827e0:	003fc506 	br	826f8 <tx_descriptor+0xfff82698>

000827e4 <__call_exitprocs>:
   827e4:	defff504 	addi	sp,sp,-44
   827e8:	df000915 	stw	fp,36(sp)
   827ec:	dd400615 	stw	r21,24(sp)
   827f0:	dc800315 	stw	r18,12(sp)
   827f4:	dfc00a15 	stw	ra,40(sp)
   827f8:	ddc00815 	stw	r23,32(sp)
   827fc:	dd800715 	stw	r22,28(sp)
   82800:	dd000515 	stw	r20,20(sp)
   82804:	dcc00415 	stw	r19,16(sp)
   82808:	dc400215 	stw	r17,8(sp)
   8280c:	dc000115 	stw	r16,4(sp)
   82810:	d9000015 	stw	r4,0(sp)
   82814:	2839883a 	mov	fp,r5
   82818:	04800044 	movi	r18,1
   8281c:	057fffc4 	movi	r21,-1
   82820:	00800234 	movhi	r2,8
   82824:	109b0604 	addi	r2,r2,27672
   82828:	12000017 	ldw	r8,0(r2)
   8282c:	45005217 	ldw	r20,328(r8)
   82830:	44c05204 	addi	r19,r8,328
   82834:	a0001c26 	beq	r20,zero,828a8 <__call_exitprocs+0xc4>
   82838:	a0800117 	ldw	r2,4(r20)
   8283c:	15ffffc4 	addi	r23,r2,-1
   82840:	b8000d16 	blt	r23,zero,82878 <__call_exitprocs+0x94>
   82844:	14000044 	addi	r16,r2,1
   82848:	8421883a 	add	r16,r16,r16
   8284c:	8421883a 	add	r16,r16,r16
   82850:	84402004 	addi	r17,r16,128
   82854:	a463883a 	add	r17,r20,r17
   82858:	a421883a 	add	r16,r20,r16
   8285c:	e0001e26 	beq	fp,zero,828d8 <__call_exitprocs+0xf4>
   82860:	80804017 	ldw	r2,256(r16)
   82864:	e0801c26 	beq	fp,r2,828d8 <__call_exitprocs+0xf4>
   82868:	bdffffc4 	addi	r23,r23,-1
   8286c:	843fff04 	addi	r16,r16,-4
   82870:	8c7fff04 	addi	r17,r17,-4
   82874:	bd7ff91e 	bne	r23,r21,8285c <tx_descriptor+0xfff827fc>
   82878:	00800034 	movhi	r2,0
   8287c:	10800004 	addi	r2,r2,0
   82880:	10000926 	beq	r2,zero,828a8 <__call_exitprocs+0xc4>
   82884:	a0800117 	ldw	r2,4(r20)
   82888:	1000301e 	bne	r2,zero,8294c <__call_exitprocs+0x168>
   8288c:	a0800017 	ldw	r2,0(r20)
   82890:	10003226 	beq	r2,zero,8295c <__call_exitprocs+0x178>
   82894:	a009883a 	mov	r4,r20
   82898:	98800015 	stw	r2,0(r19)
   8289c:	00000000 	call	0 <__alt_mem_main_memory-0x80000>
   828a0:	9d000017 	ldw	r20,0(r19)
   828a4:	a03fe41e 	bne	r20,zero,82838 <tx_descriptor+0xfff827d8>
   828a8:	dfc00a17 	ldw	ra,40(sp)
   828ac:	df000917 	ldw	fp,36(sp)
   828b0:	ddc00817 	ldw	r23,32(sp)
   828b4:	dd800717 	ldw	r22,28(sp)
   828b8:	dd400617 	ldw	r21,24(sp)
   828bc:	dd000517 	ldw	r20,20(sp)
   828c0:	dcc00417 	ldw	r19,16(sp)
   828c4:	dc800317 	ldw	r18,12(sp)
   828c8:	dc400217 	ldw	r17,8(sp)
   828cc:	dc000117 	ldw	r16,4(sp)
   828d0:	dec00b04 	addi	sp,sp,44
   828d4:	f800283a 	ret
   828d8:	a0800117 	ldw	r2,4(r20)
   828dc:	80c00017 	ldw	r3,0(r16)
   828e0:	10bfffc4 	addi	r2,r2,-1
   828e4:	15c01426 	beq	r2,r23,82938 <__call_exitprocs+0x154>
   828e8:	80000015 	stw	zero,0(r16)
   828ec:	183fde26 	beq	r3,zero,82868 <tx_descriptor+0xfff82808>
   828f0:	95c8983a 	sll	r4,r18,r23
   828f4:	a0806217 	ldw	r2,392(r20)
   828f8:	a5800117 	ldw	r22,4(r20)
   828fc:	2084703a 	and	r2,r4,r2
   82900:	10000b26 	beq	r2,zero,82930 <__call_exitprocs+0x14c>
   82904:	a0806317 	ldw	r2,396(r20)
   82908:	2088703a 	and	r4,r4,r2
   8290c:	20000c1e 	bne	r4,zero,82940 <__call_exitprocs+0x15c>
   82910:	89400017 	ldw	r5,0(r17)
   82914:	d9000017 	ldw	r4,0(sp)
   82918:	183ee83a 	callr	r3
   8291c:	a0800117 	ldw	r2,4(r20)
   82920:	15bfbf1e 	bne	r2,r22,82820 <tx_descriptor+0xfff827c0>
   82924:	98800017 	ldw	r2,0(r19)
   82928:	153fcf26 	beq	r2,r20,82868 <tx_descriptor+0xfff82808>
   8292c:	003fbc06 	br	82820 <tx_descriptor+0xfff827c0>
   82930:	183ee83a 	callr	r3
   82934:	003ff906 	br	8291c <tx_descriptor+0xfff828bc>
   82938:	a5c00115 	stw	r23,4(r20)
   8293c:	003feb06 	br	828ec <tx_descriptor+0xfff8288c>
   82940:	89000017 	ldw	r4,0(r17)
   82944:	183ee83a 	callr	r3
   82948:	003ff406 	br	8291c <tx_descriptor+0xfff828bc>
   8294c:	a0800017 	ldw	r2,0(r20)
   82950:	a027883a 	mov	r19,r20
   82954:	1029883a 	mov	r20,r2
   82958:	003fb606 	br	82834 <tx_descriptor+0xfff827d4>
   8295c:	0005883a 	mov	r2,zero
   82960:	003ffb06 	br	82950 <tx_descriptor+0xfff828f0>

00082964 <__sflush_r>:
   82964:	2880030b 	ldhu	r2,12(r5)
   82968:	defffb04 	addi	sp,sp,-20
   8296c:	dcc00315 	stw	r19,12(sp)
   82970:	dc400115 	stw	r17,4(sp)
   82974:	dfc00415 	stw	ra,16(sp)
   82978:	dc800215 	stw	r18,8(sp)
   8297c:	dc000015 	stw	r16,0(sp)
   82980:	10c0020c 	andi	r3,r2,8
   82984:	2823883a 	mov	r17,r5
   82988:	2027883a 	mov	r19,r4
   8298c:	1800311e 	bne	r3,zero,82a54 <__sflush_r+0xf0>
   82990:	28c00117 	ldw	r3,4(r5)
   82994:	10820014 	ori	r2,r2,2048
   82998:	2880030d 	sth	r2,12(r5)
   8299c:	00c04b0e 	bge	zero,r3,82acc <__sflush_r+0x168>
   829a0:	8a000a17 	ldw	r8,40(r17)
   829a4:	40002326 	beq	r8,zero,82a34 <__sflush_r+0xd0>
   829a8:	9c000017 	ldw	r16,0(r19)
   829ac:	10c4000c 	andi	r3,r2,4096
   829b0:	98000015 	stw	zero,0(r19)
   829b4:	18004826 	beq	r3,zero,82ad8 <__sflush_r+0x174>
   829b8:	89801417 	ldw	r6,80(r17)
   829bc:	10c0010c 	andi	r3,r2,4
   829c0:	18000626 	beq	r3,zero,829dc <__sflush_r+0x78>
   829c4:	88c00117 	ldw	r3,4(r17)
   829c8:	88800c17 	ldw	r2,48(r17)
   829cc:	30cdc83a 	sub	r6,r6,r3
   829d0:	10000226 	beq	r2,zero,829dc <__sflush_r+0x78>
   829d4:	88800f17 	ldw	r2,60(r17)
   829d8:	308dc83a 	sub	r6,r6,r2
   829dc:	89400717 	ldw	r5,28(r17)
   829e0:	000f883a 	mov	r7,zero
   829e4:	9809883a 	mov	r4,r19
   829e8:	403ee83a 	callr	r8
   829ec:	00ffffc4 	movi	r3,-1
   829f0:	10c04426 	beq	r2,r3,82b04 <__sflush_r+0x1a0>
   829f4:	88c0030b 	ldhu	r3,12(r17)
   829f8:	89000417 	ldw	r4,16(r17)
   829fc:	88000115 	stw	zero,4(r17)
   82a00:	197dffcc 	andi	r5,r3,63487
   82a04:	8940030d 	sth	r5,12(r17)
   82a08:	89000015 	stw	r4,0(r17)
   82a0c:	18c4000c 	andi	r3,r3,4096
   82a10:	18002c1e 	bne	r3,zero,82ac4 <__sflush_r+0x160>
   82a14:	89400c17 	ldw	r5,48(r17)
   82a18:	9c000015 	stw	r16,0(r19)
   82a1c:	28000526 	beq	r5,zero,82a34 <__sflush_r+0xd0>
   82a20:	88801004 	addi	r2,r17,64
   82a24:	28800226 	beq	r5,r2,82a30 <__sflush_r+0xcc>
   82a28:	9809883a 	mov	r4,r19
   82a2c:	00830e00 	call	830e0 <_free_r>
   82a30:	88000c15 	stw	zero,48(r17)
   82a34:	0005883a 	mov	r2,zero
   82a38:	dfc00417 	ldw	ra,16(sp)
   82a3c:	dcc00317 	ldw	r19,12(sp)
   82a40:	dc800217 	ldw	r18,8(sp)
   82a44:	dc400117 	ldw	r17,4(sp)
   82a48:	dc000017 	ldw	r16,0(sp)
   82a4c:	dec00504 	addi	sp,sp,20
   82a50:	f800283a 	ret
   82a54:	2c800417 	ldw	r18,16(r5)
   82a58:	903ff626 	beq	r18,zero,82a34 <tx_descriptor+0xfff829d4>
   82a5c:	2c000017 	ldw	r16,0(r5)
   82a60:	108000cc 	andi	r2,r2,3
   82a64:	2c800015 	stw	r18,0(r5)
   82a68:	84a1c83a 	sub	r16,r16,r18
   82a6c:	1000131e 	bne	r2,zero,82abc <__sflush_r+0x158>
   82a70:	28800517 	ldw	r2,20(r5)
   82a74:	88800215 	stw	r2,8(r17)
   82a78:	04000316 	blt	zero,r16,82a88 <__sflush_r+0x124>
   82a7c:	003fed06 	br	82a34 <tx_descriptor+0xfff829d4>
   82a80:	90a5883a 	add	r18,r18,r2
   82a84:	043feb0e 	bge	zero,r16,82a34 <tx_descriptor+0xfff829d4>
   82a88:	88800917 	ldw	r2,36(r17)
   82a8c:	89400717 	ldw	r5,28(r17)
   82a90:	800f883a 	mov	r7,r16
   82a94:	900d883a 	mov	r6,r18
   82a98:	9809883a 	mov	r4,r19
   82a9c:	103ee83a 	callr	r2
   82aa0:	80a1c83a 	sub	r16,r16,r2
   82aa4:	00bff616 	blt	zero,r2,82a80 <tx_descriptor+0xfff82a20>
   82aa8:	88c0030b 	ldhu	r3,12(r17)
   82aac:	00bfffc4 	movi	r2,-1
   82ab0:	18c01014 	ori	r3,r3,64
   82ab4:	88c0030d 	sth	r3,12(r17)
   82ab8:	003fdf06 	br	82a38 <tx_descriptor+0xfff829d8>
   82abc:	0005883a 	mov	r2,zero
   82ac0:	003fec06 	br	82a74 <tx_descriptor+0xfff82a14>
   82ac4:	88801415 	stw	r2,80(r17)
   82ac8:	003fd206 	br	82a14 <tx_descriptor+0xfff829b4>
   82acc:	28c00f17 	ldw	r3,60(r5)
   82ad0:	00ffb316 	blt	zero,r3,829a0 <tx_descriptor+0xfff82940>
   82ad4:	003fd706 	br	82a34 <tx_descriptor+0xfff829d4>
   82ad8:	89400717 	ldw	r5,28(r17)
   82adc:	000d883a 	mov	r6,zero
   82ae0:	01c00044 	movi	r7,1
   82ae4:	9809883a 	mov	r4,r19
   82ae8:	403ee83a 	callr	r8
   82aec:	100d883a 	mov	r6,r2
   82af0:	00bfffc4 	movi	r2,-1
   82af4:	30801426 	beq	r6,r2,82b48 <__sflush_r+0x1e4>
   82af8:	8880030b 	ldhu	r2,12(r17)
   82afc:	8a000a17 	ldw	r8,40(r17)
   82b00:	003fae06 	br	829bc <tx_descriptor+0xfff8295c>
   82b04:	98c00017 	ldw	r3,0(r19)
   82b08:	183fba26 	beq	r3,zero,829f4 <tx_descriptor+0xfff82994>
   82b0c:	01000744 	movi	r4,29
   82b10:	19000626 	beq	r3,r4,82b2c <__sflush_r+0x1c8>
   82b14:	01000584 	movi	r4,22
   82b18:	19000426 	beq	r3,r4,82b2c <__sflush_r+0x1c8>
   82b1c:	88c0030b 	ldhu	r3,12(r17)
   82b20:	18c01014 	ori	r3,r3,64
   82b24:	88c0030d 	sth	r3,12(r17)
   82b28:	003fc306 	br	82a38 <tx_descriptor+0xfff829d8>
   82b2c:	8880030b 	ldhu	r2,12(r17)
   82b30:	88c00417 	ldw	r3,16(r17)
   82b34:	88000115 	stw	zero,4(r17)
   82b38:	10bdffcc 	andi	r2,r2,63487
   82b3c:	8880030d 	sth	r2,12(r17)
   82b40:	88c00015 	stw	r3,0(r17)
   82b44:	003fb306 	br	82a14 <tx_descriptor+0xfff829b4>
   82b48:	98800017 	ldw	r2,0(r19)
   82b4c:	103fea26 	beq	r2,zero,82af8 <tx_descriptor+0xfff82a98>
   82b50:	00c00744 	movi	r3,29
   82b54:	10c00226 	beq	r2,r3,82b60 <__sflush_r+0x1fc>
   82b58:	00c00584 	movi	r3,22
   82b5c:	10c0031e 	bne	r2,r3,82b6c <__sflush_r+0x208>
   82b60:	9c000015 	stw	r16,0(r19)
   82b64:	0005883a 	mov	r2,zero
   82b68:	003fb306 	br	82a38 <tx_descriptor+0xfff829d8>
   82b6c:	88c0030b 	ldhu	r3,12(r17)
   82b70:	3005883a 	mov	r2,r6
   82b74:	18c01014 	ori	r3,r3,64
   82b78:	88c0030d 	sth	r3,12(r17)
   82b7c:	003fae06 	br	82a38 <tx_descriptor+0xfff829d8>

00082b80 <_fflush_r>:
   82b80:	defffd04 	addi	sp,sp,-12
   82b84:	dc000115 	stw	r16,4(sp)
   82b88:	dfc00215 	stw	ra,8(sp)
   82b8c:	2021883a 	mov	r16,r4
   82b90:	20000226 	beq	r4,zero,82b9c <_fflush_r+0x1c>
   82b94:	20800e17 	ldw	r2,56(r4)
   82b98:	10000c26 	beq	r2,zero,82bcc <_fflush_r+0x4c>
   82b9c:	2880030f 	ldh	r2,12(r5)
   82ba0:	1000051e 	bne	r2,zero,82bb8 <_fflush_r+0x38>
   82ba4:	0005883a 	mov	r2,zero
   82ba8:	dfc00217 	ldw	ra,8(sp)
   82bac:	dc000117 	ldw	r16,4(sp)
   82bb0:	dec00304 	addi	sp,sp,12
   82bb4:	f800283a 	ret
   82bb8:	8009883a 	mov	r4,r16
   82bbc:	dfc00217 	ldw	ra,8(sp)
   82bc0:	dc000117 	ldw	r16,4(sp)
   82bc4:	dec00304 	addi	sp,sp,12
   82bc8:	00829641 	jmpi	82964 <__sflush_r>
   82bcc:	d9400015 	stw	r5,0(sp)
   82bd0:	0082f6c0 	call	82f6c <__sinit>
   82bd4:	d9400017 	ldw	r5,0(sp)
   82bd8:	003ff006 	br	82b9c <tx_descriptor+0xfff82b3c>

00082bdc <fflush>:
   82bdc:	20000526 	beq	r4,zero,82bf4 <fflush+0x18>
   82be0:	00800234 	movhi	r2,8
   82be4:	109b0704 	addi	r2,r2,27676
   82be8:	200b883a 	mov	r5,r4
   82bec:	11000017 	ldw	r4,0(r2)
   82bf0:	0082b801 	jmpi	82b80 <_fflush_r>
   82bf4:	00800234 	movhi	r2,8
   82bf8:	109b0604 	addi	r2,r2,27672
   82bfc:	11000017 	ldw	r4,0(r2)
   82c00:	01400234 	movhi	r5,8
   82c04:	294ae004 	addi	r5,r5,11136
   82c08:	00834b41 	jmpi	834b4 <_fwalk_reent>

00082c0c <__fp_unlock>:
   82c0c:	0005883a 	mov	r2,zero
   82c10:	f800283a 	ret

00082c14 <_cleanup_r>:
   82c14:	01400234 	movhi	r5,8
   82c18:	29512704 	addi	r5,r5,17564
   82c1c:	00834b41 	jmpi	834b4 <_fwalk_reent>

00082c20 <__sinit.part.1>:
   82c20:	defff704 	addi	sp,sp,-36
   82c24:	00c00234 	movhi	r3,8
   82c28:	dfc00815 	stw	ra,32(sp)
   82c2c:	ddc00715 	stw	r23,28(sp)
   82c30:	dd800615 	stw	r22,24(sp)
   82c34:	dd400515 	stw	r21,20(sp)
   82c38:	dd000415 	stw	r20,16(sp)
   82c3c:	dcc00315 	stw	r19,12(sp)
   82c40:	dc800215 	stw	r18,8(sp)
   82c44:	dc400115 	stw	r17,4(sp)
   82c48:	dc000015 	stw	r16,0(sp)
   82c4c:	18cb0504 	addi	r3,r3,11284
   82c50:	24000117 	ldw	r16,4(r4)
   82c54:	20c00f15 	stw	r3,60(r4)
   82c58:	2080bb04 	addi	r2,r4,748
   82c5c:	00c000c4 	movi	r3,3
   82c60:	20c0b915 	stw	r3,740(r4)
   82c64:	2080ba15 	stw	r2,744(r4)
   82c68:	2000b815 	stw	zero,736(r4)
   82c6c:	05c00204 	movi	r23,8
   82c70:	00800104 	movi	r2,4
   82c74:	2025883a 	mov	r18,r4
   82c78:	b80d883a 	mov	r6,r23
   82c7c:	81001704 	addi	r4,r16,92
   82c80:	000b883a 	mov	r5,zero
   82c84:	80000015 	stw	zero,0(r16)
   82c88:	80000115 	stw	zero,4(r16)
   82c8c:	80000215 	stw	zero,8(r16)
   82c90:	8080030d 	sth	r2,12(r16)
   82c94:	80001915 	stw	zero,100(r16)
   82c98:	8000038d 	sth	zero,14(r16)
   82c9c:	80000415 	stw	zero,16(r16)
   82ca0:	80000515 	stw	zero,20(r16)
   82ca4:	80000615 	stw	zero,24(r16)
   82ca8:	0083f400 	call	83f40 <memset>
   82cac:	05800234 	movhi	r22,8
   82cb0:	94400217 	ldw	r17,8(r18)
   82cb4:	05400234 	movhi	r21,8
   82cb8:	05000234 	movhi	r20,8
   82cbc:	04c00234 	movhi	r19,8
   82cc0:	b590ab04 	addi	r22,r22,17068
   82cc4:	ad50c204 	addi	r21,r21,17160
   82cc8:	a510e104 	addi	r20,r20,17284
   82ccc:	9cd0f804 	addi	r19,r19,17376
   82cd0:	85800815 	stw	r22,32(r16)
   82cd4:	85400915 	stw	r21,36(r16)
   82cd8:	85000a15 	stw	r20,40(r16)
   82cdc:	84c00b15 	stw	r19,44(r16)
   82ce0:	84000715 	stw	r16,28(r16)
   82ce4:	00800284 	movi	r2,10
   82ce8:	8880030d 	sth	r2,12(r17)
   82cec:	00800044 	movi	r2,1
   82cf0:	b80d883a 	mov	r6,r23
   82cf4:	89001704 	addi	r4,r17,92
   82cf8:	000b883a 	mov	r5,zero
   82cfc:	88000015 	stw	zero,0(r17)
   82d00:	88000115 	stw	zero,4(r17)
   82d04:	88000215 	stw	zero,8(r17)
   82d08:	88001915 	stw	zero,100(r17)
   82d0c:	8880038d 	sth	r2,14(r17)
   82d10:	88000415 	stw	zero,16(r17)
   82d14:	88000515 	stw	zero,20(r17)
   82d18:	88000615 	stw	zero,24(r17)
   82d1c:	0083f400 	call	83f40 <memset>
   82d20:	94000317 	ldw	r16,12(r18)
   82d24:	00800484 	movi	r2,18
   82d28:	8c400715 	stw	r17,28(r17)
   82d2c:	8d800815 	stw	r22,32(r17)
   82d30:	8d400915 	stw	r21,36(r17)
   82d34:	8d000a15 	stw	r20,40(r17)
   82d38:	8cc00b15 	stw	r19,44(r17)
   82d3c:	8080030d 	sth	r2,12(r16)
   82d40:	00800084 	movi	r2,2
   82d44:	80000015 	stw	zero,0(r16)
   82d48:	80000115 	stw	zero,4(r16)
   82d4c:	80000215 	stw	zero,8(r16)
   82d50:	80001915 	stw	zero,100(r16)
   82d54:	8080038d 	sth	r2,14(r16)
   82d58:	80000415 	stw	zero,16(r16)
   82d5c:	80000515 	stw	zero,20(r16)
   82d60:	80000615 	stw	zero,24(r16)
   82d64:	b80d883a 	mov	r6,r23
   82d68:	000b883a 	mov	r5,zero
   82d6c:	81001704 	addi	r4,r16,92
   82d70:	0083f400 	call	83f40 <memset>
   82d74:	00800044 	movi	r2,1
   82d78:	84000715 	stw	r16,28(r16)
   82d7c:	85800815 	stw	r22,32(r16)
   82d80:	85400915 	stw	r21,36(r16)
   82d84:	85000a15 	stw	r20,40(r16)
   82d88:	84c00b15 	stw	r19,44(r16)
   82d8c:	90800e15 	stw	r2,56(r18)
   82d90:	dfc00817 	ldw	ra,32(sp)
   82d94:	ddc00717 	ldw	r23,28(sp)
   82d98:	dd800617 	ldw	r22,24(sp)
   82d9c:	dd400517 	ldw	r21,20(sp)
   82da0:	dd000417 	ldw	r20,16(sp)
   82da4:	dcc00317 	ldw	r19,12(sp)
   82da8:	dc800217 	ldw	r18,8(sp)
   82dac:	dc400117 	ldw	r17,4(sp)
   82db0:	dc000017 	ldw	r16,0(sp)
   82db4:	dec00904 	addi	sp,sp,36
   82db8:	f800283a 	ret

00082dbc <__fp_lock>:
   82dbc:	0005883a 	mov	r2,zero
   82dc0:	f800283a 	ret

00082dc4 <__sfmoreglue>:
   82dc4:	defffc04 	addi	sp,sp,-16
   82dc8:	dc800215 	stw	r18,8(sp)
   82dcc:	2825883a 	mov	r18,r5
   82dd0:	dc000015 	stw	r16,0(sp)
   82dd4:	01401a04 	movi	r5,104
   82dd8:	2021883a 	mov	r16,r4
   82ddc:	913fffc4 	addi	r4,r18,-1
   82de0:	dfc00315 	stw	ra,12(sp)
   82de4:	dc400115 	stw	r17,4(sp)
   82de8:	00847100 	call	84710 <__mulsi3>
   82dec:	8009883a 	mov	r4,r16
   82df0:	11401d04 	addi	r5,r2,116
   82df4:	1023883a 	mov	r17,r2
   82df8:	00837340 	call	83734 <_malloc_r>
   82dfc:	1021883a 	mov	r16,r2
   82e00:	10000726 	beq	r2,zero,82e20 <__sfmoreglue+0x5c>
   82e04:	11000304 	addi	r4,r2,12
   82e08:	10000015 	stw	zero,0(r2)
   82e0c:	14800115 	stw	r18,4(r2)
   82e10:	11000215 	stw	r4,8(r2)
   82e14:	89801a04 	addi	r6,r17,104
   82e18:	000b883a 	mov	r5,zero
   82e1c:	0083f400 	call	83f40 <memset>
   82e20:	8005883a 	mov	r2,r16
   82e24:	dfc00317 	ldw	ra,12(sp)
   82e28:	dc800217 	ldw	r18,8(sp)
   82e2c:	dc400117 	ldw	r17,4(sp)
   82e30:	dc000017 	ldw	r16,0(sp)
   82e34:	dec00404 	addi	sp,sp,16
   82e38:	f800283a 	ret

00082e3c <__sfp>:
   82e3c:	defffb04 	addi	sp,sp,-20
   82e40:	dc000015 	stw	r16,0(sp)
   82e44:	04000234 	movhi	r16,8
   82e48:	841b0604 	addi	r16,r16,27672
   82e4c:	dcc00315 	stw	r19,12(sp)
   82e50:	2027883a 	mov	r19,r4
   82e54:	81000017 	ldw	r4,0(r16)
   82e58:	dfc00415 	stw	ra,16(sp)
   82e5c:	dc800215 	stw	r18,8(sp)
   82e60:	20800e17 	ldw	r2,56(r4)
   82e64:	dc400115 	stw	r17,4(sp)
   82e68:	1000021e 	bne	r2,zero,82e74 <__sfp+0x38>
   82e6c:	0082c200 	call	82c20 <__sinit.part.1>
   82e70:	81000017 	ldw	r4,0(r16)
   82e74:	2480b804 	addi	r18,r4,736
   82e78:	047fffc4 	movi	r17,-1
   82e7c:	91000117 	ldw	r4,4(r18)
   82e80:	94000217 	ldw	r16,8(r18)
   82e84:	213fffc4 	addi	r4,r4,-1
   82e88:	20000a16 	blt	r4,zero,82eb4 <__sfp+0x78>
   82e8c:	8080030f 	ldh	r2,12(r16)
   82e90:	10000c26 	beq	r2,zero,82ec4 <__sfp+0x88>
   82e94:	80c01d04 	addi	r3,r16,116
   82e98:	00000206 	br	82ea4 <__sfp+0x68>
   82e9c:	18bfe60f 	ldh	r2,-104(r3)
   82ea0:	10000826 	beq	r2,zero,82ec4 <__sfp+0x88>
   82ea4:	213fffc4 	addi	r4,r4,-1
   82ea8:	1c3ffd04 	addi	r16,r3,-12
   82eac:	18c01a04 	addi	r3,r3,104
   82eb0:	247ffa1e 	bne	r4,r17,82e9c <tx_descriptor+0xfff82e3c>
   82eb4:	90800017 	ldw	r2,0(r18)
   82eb8:	10001d26 	beq	r2,zero,82f30 <__sfp+0xf4>
   82ebc:	1025883a 	mov	r18,r2
   82ec0:	003fee06 	br	82e7c <tx_descriptor+0xfff82e1c>
   82ec4:	00bfffc4 	movi	r2,-1
   82ec8:	8080038d 	sth	r2,14(r16)
   82ecc:	00800044 	movi	r2,1
   82ed0:	8080030d 	sth	r2,12(r16)
   82ed4:	80001915 	stw	zero,100(r16)
   82ed8:	80000015 	stw	zero,0(r16)
   82edc:	80000215 	stw	zero,8(r16)
   82ee0:	80000115 	stw	zero,4(r16)
   82ee4:	80000415 	stw	zero,16(r16)
   82ee8:	80000515 	stw	zero,20(r16)
   82eec:	80000615 	stw	zero,24(r16)
   82ef0:	01800204 	movi	r6,8
   82ef4:	000b883a 	mov	r5,zero
   82ef8:	81001704 	addi	r4,r16,92
   82efc:	0083f400 	call	83f40 <memset>
   82f00:	8005883a 	mov	r2,r16
   82f04:	80000c15 	stw	zero,48(r16)
   82f08:	80000d15 	stw	zero,52(r16)
   82f0c:	80001115 	stw	zero,68(r16)
   82f10:	80001215 	stw	zero,72(r16)
   82f14:	dfc00417 	ldw	ra,16(sp)
   82f18:	dcc00317 	ldw	r19,12(sp)
   82f1c:	dc800217 	ldw	r18,8(sp)
   82f20:	dc400117 	ldw	r17,4(sp)
   82f24:	dc000017 	ldw	r16,0(sp)
   82f28:	dec00504 	addi	sp,sp,20
   82f2c:	f800283a 	ret
   82f30:	01400104 	movi	r5,4
   82f34:	9809883a 	mov	r4,r19
   82f38:	0082dc40 	call	82dc4 <__sfmoreglue>
   82f3c:	90800015 	stw	r2,0(r18)
   82f40:	103fde1e 	bne	r2,zero,82ebc <tx_descriptor+0xfff82e5c>
   82f44:	00800304 	movi	r2,12
   82f48:	98800015 	stw	r2,0(r19)
   82f4c:	0005883a 	mov	r2,zero
   82f50:	003ff006 	br	82f14 <tx_descriptor+0xfff82eb4>

00082f54 <_cleanup>:
   82f54:	00800234 	movhi	r2,8
   82f58:	109b0604 	addi	r2,r2,27672
   82f5c:	11000017 	ldw	r4,0(r2)
   82f60:	01400234 	movhi	r5,8
   82f64:	29512704 	addi	r5,r5,17564
   82f68:	00834b41 	jmpi	834b4 <_fwalk_reent>

00082f6c <__sinit>:
   82f6c:	20800e17 	ldw	r2,56(r4)
   82f70:	10000126 	beq	r2,zero,82f78 <__sinit+0xc>
   82f74:	f800283a 	ret
   82f78:	0082c201 	jmpi	82c20 <__sinit.part.1>

00082f7c <__sfp_lock_acquire>:
   82f7c:	f800283a 	ret

00082f80 <__sfp_lock_release>:
   82f80:	f800283a 	ret

00082f84 <__sinit_lock_acquire>:
   82f84:	f800283a 	ret

00082f88 <__sinit_lock_release>:
   82f88:	f800283a 	ret

00082f8c <__fp_lock_all>:
   82f8c:	00800234 	movhi	r2,8
   82f90:	109b0704 	addi	r2,r2,27676
   82f94:	11000017 	ldw	r4,0(r2)
   82f98:	01400234 	movhi	r5,8
   82f9c:	294b6f04 	addi	r5,r5,11708
   82fa0:	00833f01 	jmpi	833f0 <_fwalk>

00082fa4 <__fp_unlock_all>:
   82fa4:	00800234 	movhi	r2,8
   82fa8:	109b0704 	addi	r2,r2,27676
   82fac:	11000017 	ldw	r4,0(r2)
   82fb0:	01400234 	movhi	r5,8
   82fb4:	294b0304 	addi	r5,r5,11276
   82fb8:	00833f01 	jmpi	833f0 <_fwalk>

00082fbc <_malloc_trim_r>:
   82fbc:	defffb04 	addi	sp,sp,-20
   82fc0:	dcc00315 	stw	r19,12(sp)
   82fc4:	04c00234 	movhi	r19,8
   82fc8:	dc800215 	stw	r18,8(sp)
   82fcc:	dc400115 	stw	r17,4(sp)
   82fd0:	dc000015 	stw	r16,0(sp)
   82fd4:	dfc00415 	stw	ra,16(sp)
   82fd8:	2821883a 	mov	r16,r5
   82fdc:	9cd9f904 	addi	r19,r19,26596
   82fe0:	2025883a 	mov	r18,r4
   82fe4:	00849780 	call	84978 <__malloc_lock>
   82fe8:	98800217 	ldw	r2,8(r19)
   82fec:	14400117 	ldw	r17,4(r2)
   82ff0:	00bfff04 	movi	r2,-4
   82ff4:	88a2703a 	and	r17,r17,r2
   82ff8:	8c21c83a 	sub	r16,r17,r16
   82ffc:	8403fbc4 	addi	r16,r16,4079
   83000:	8020d33a 	srli	r16,r16,12
   83004:	0083ffc4 	movi	r2,4095
   83008:	843fffc4 	addi	r16,r16,-1
   8300c:	8020933a 	slli	r16,r16,12
   83010:	1400060e 	bge	r2,r16,8302c <_malloc_trim_r+0x70>
   83014:	000b883a 	mov	r5,zero
   83018:	9009883a 	mov	r4,r18
   8301c:	00842580 	call	84258 <_sbrk_r>
   83020:	98c00217 	ldw	r3,8(r19)
   83024:	1c47883a 	add	r3,r3,r17
   83028:	10c00a26 	beq	r2,r3,83054 <_malloc_trim_r+0x98>
   8302c:	9009883a 	mov	r4,r18
   83030:	008497c0 	call	8497c <__malloc_unlock>
   83034:	0005883a 	mov	r2,zero
   83038:	dfc00417 	ldw	ra,16(sp)
   8303c:	dcc00317 	ldw	r19,12(sp)
   83040:	dc800217 	ldw	r18,8(sp)
   83044:	dc400117 	ldw	r17,4(sp)
   83048:	dc000017 	ldw	r16,0(sp)
   8304c:	dec00504 	addi	sp,sp,20
   83050:	f800283a 	ret
   83054:	040bc83a 	sub	r5,zero,r16
   83058:	9009883a 	mov	r4,r18
   8305c:	00842580 	call	84258 <_sbrk_r>
   83060:	00ffffc4 	movi	r3,-1
   83064:	10c00d26 	beq	r2,r3,8309c <_malloc_trim_r+0xe0>
   83068:	00c00274 	movhi	r3,9
   8306c:	18e3ce04 	addi	r3,r3,-28872
   83070:	18800017 	ldw	r2,0(r3)
   83074:	99000217 	ldw	r4,8(r19)
   83078:	8c23c83a 	sub	r17,r17,r16
   8307c:	8c400054 	ori	r17,r17,1
   83080:	1421c83a 	sub	r16,r2,r16
   83084:	24400115 	stw	r17,4(r4)
   83088:	9009883a 	mov	r4,r18
   8308c:	1c000015 	stw	r16,0(r3)
   83090:	008497c0 	call	8497c <__malloc_unlock>
   83094:	00800044 	movi	r2,1
   83098:	003fe706 	br	83038 <tx_descriptor+0xfff82fd8>
   8309c:	000b883a 	mov	r5,zero
   830a0:	9009883a 	mov	r4,r18
   830a4:	00842580 	call	84258 <_sbrk_r>
   830a8:	99000217 	ldw	r4,8(r19)
   830ac:	014003c4 	movi	r5,15
   830b0:	1107c83a 	sub	r3,r2,r4
   830b4:	28ffdd0e 	bge	r5,r3,8302c <tx_descriptor+0xfff82fcc>
   830b8:	01400234 	movhi	r5,8
   830bc:	295b0804 	addi	r5,r5,27680
   830c0:	29400017 	ldw	r5,0(r5)
   830c4:	18c00054 	ori	r3,r3,1
   830c8:	20c00115 	stw	r3,4(r4)
   830cc:	00c00274 	movhi	r3,9
   830d0:	1145c83a 	sub	r2,r2,r5
   830d4:	18e3ce04 	addi	r3,r3,-28872
   830d8:	18800015 	stw	r2,0(r3)
   830dc:	003fd306 	br	8302c <tx_descriptor+0xfff82fcc>

000830e0 <_free_r>:
   830e0:	28004126 	beq	r5,zero,831e8 <_free_r+0x108>
   830e4:	defffd04 	addi	sp,sp,-12
   830e8:	dc400115 	stw	r17,4(sp)
   830ec:	dc000015 	stw	r16,0(sp)
   830f0:	2023883a 	mov	r17,r4
   830f4:	2821883a 	mov	r16,r5
   830f8:	dfc00215 	stw	ra,8(sp)
   830fc:	00849780 	call	84978 <__malloc_lock>
   83100:	81ffff17 	ldw	r7,-4(r16)
   83104:	00bfff84 	movi	r2,-2
   83108:	01000234 	movhi	r4,8
   8310c:	81bffe04 	addi	r6,r16,-8
   83110:	3884703a 	and	r2,r7,r2
   83114:	2119f904 	addi	r4,r4,26596
   83118:	308b883a 	add	r5,r6,r2
   8311c:	2a400117 	ldw	r9,4(r5)
   83120:	22000217 	ldw	r8,8(r4)
   83124:	00ffff04 	movi	r3,-4
   83128:	48c6703a 	and	r3,r9,r3
   8312c:	2a005726 	beq	r5,r8,8328c <_free_r+0x1ac>
   83130:	28c00115 	stw	r3,4(r5)
   83134:	39c0004c 	andi	r7,r7,1
   83138:	3800091e 	bne	r7,zero,83160 <_free_r+0x80>
   8313c:	823ffe17 	ldw	r8,-8(r16)
   83140:	22400204 	addi	r9,r4,8
   83144:	320dc83a 	sub	r6,r6,r8
   83148:	31c00217 	ldw	r7,8(r6)
   8314c:	1205883a 	add	r2,r2,r8
   83150:	3a406526 	beq	r7,r9,832e8 <_free_r+0x208>
   83154:	32000317 	ldw	r8,12(r6)
   83158:	3a000315 	stw	r8,12(r7)
   8315c:	41c00215 	stw	r7,8(r8)
   83160:	28cf883a 	add	r7,r5,r3
   83164:	39c00117 	ldw	r7,4(r7)
   83168:	39c0004c 	andi	r7,r7,1
   8316c:	38003a26 	beq	r7,zero,83258 <_free_r+0x178>
   83170:	10c00054 	ori	r3,r2,1
   83174:	30c00115 	stw	r3,4(r6)
   83178:	3087883a 	add	r3,r6,r2
   8317c:	18800015 	stw	r2,0(r3)
   83180:	00c07fc4 	movi	r3,511
   83184:	18801936 	bltu	r3,r2,831ec <_free_r+0x10c>
   83188:	1004d0fa 	srli	r2,r2,3
   8318c:	01c00044 	movi	r7,1
   83190:	21400117 	ldw	r5,4(r4)
   83194:	10c00044 	addi	r3,r2,1
   83198:	18c7883a 	add	r3,r3,r3
   8319c:	1005d0ba 	srai	r2,r2,2
   831a0:	18c7883a 	add	r3,r3,r3
   831a4:	18c7883a 	add	r3,r3,r3
   831a8:	1907883a 	add	r3,r3,r4
   831ac:	3884983a 	sll	r2,r7,r2
   831b0:	19c00017 	ldw	r7,0(r3)
   831b4:	1a3ffe04 	addi	r8,r3,-8
   831b8:	1144b03a 	or	r2,r2,r5
   831bc:	32000315 	stw	r8,12(r6)
   831c0:	31c00215 	stw	r7,8(r6)
   831c4:	20800115 	stw	r2,4(r4)
   831c8:	19800015 	stw	r6,0(r3)
   831cc:	39800315 	stw	r6,12(r7)
   831d0:	8809883a 	mov	r4,r17
   831d4:	dfc00217 	ldw	ra,8(sp)
   831d8:	dc400117 	ldw	r17,4(sp)
   831dc:	dc000017 	ldw	r16,0(sp)
   831e0:	dec00304 	addi	sp,sp,12
   831e4:	008497c1 	jmpi	8497c <__malloc_unlock>
   831e8:	f800283a 	ret
   831ec:	100ad27a 	srli	r5,r2,9
   831f0:	00c00104 	movi	r3,4
   831f4:	19404a36 	bltu	r3,r5,83320 <_free_r+0x240>
   831f8:	100ad1ba 	srli	r5,r2,6
   831fc:	28c00e44 	addi	r3,r5,57
   83200:	18c7883a 	add	r3,r3,r3
   83204:	29400e04 	addi	r5,r5,56
   83208:	18c7883a 	add	r3,r3,r3
   8320c:	18c7883a 	add	r3,r3,r3
   83210:	1909883a 	add	r4,r3,r4
   83214:	20c00017 	ldw	r3,0(r4)
   83218:	01c00234 	movhi	r7,8
   8321c:	213ffe04 	addi	r4,r4,-8
   83220:	39d9f904 	addi	r7,r7,26596
   83224:	20c04426 	beq	r4,r3,83338 <_free_r+0x258>
   83228:	01ffff04 	movi	r7,-4
   8322c:	19400117 	ldw	r5,4(r3)
   83230:	29ca703a 	and	r5,r5,r7
   83234:	1140022e 	bgeu	r2,r5,83240 <_free_r+0x160>
   83238:	18c00217 	ldw	r3,8(r3)
   8323c:	20fffb1e 	bne	r4,r3,8322c <tx_descriptor+0xfff831cc>
   83240:	19000317 	ldw	r4,12(r3)
   83244:	31000315 	stw	r4,12(r6)
   83248:	30c00215 	stw	r3,8(r6)
   8324c:	21800215 	stw	r6,8(r4)
   83250:	19800315 	stw	r6,12(r3)
   83254:	003fde06 	br	831d0 <tx_descriptor+0xfff83170>
   83258:	29c00217 	ldw	r7,8(r5)
   8325c:	10c5883a 	add	r2,r2,r3
   83260:	00c00234 	movhi	r3,8
   83264:	18d9fb04 	addi	r3,r3,26604
   83268:	38c03b26 	beq	r7,r3,83358 <_free_r+0x278>
   8326c:	2a000317 	ldw	r8,12(r5)
   83270:	11400054 	ori	r5,r2,1
   83274:	3087883a 	add	r3,r6,r2
   83278:	3a000315 	stw	r8,12(r7)
   8327c:	41c00215 	stw	r7,8(r8)
   83280:	31400115 	stw	r5,4(r6)
   83284:	18800015 	stw	r2,0(r3)
   83288:	003fbd06 	br	83180 <tx_descriptor+0xfff83120>
   8328c:	39c0004c 	andi	r7,r7,1
   83290:	10c5883a 	add	r2,r2,r3
   83294:	3800071e 	bne	r7,zero,832b4 <_free_r+0x1d4>
   83298:	81fffe17 	ldw	r7,-8(r16)
   8329c:	31cdc83a 	sub	r6,r6,r7
   832a0:	30c00317 	ldw	r3,12(r6)
   832a4:	31400217 	ldw	r5,8(r6)
   832a8:	11c5883a 	add	r2,r2,r7
   832ac:	28c00315 	stw	r3,12(r5)
   832b0:	19400215 	stw	r5,8(r3)
   832b4:	10c00054 	ori	r3,r2,1
   832b8:	30c00115 	stw	r3,4(r6)
   832bc:	00c00234 	movhi	r3,8
   832c0:	18db0904 	addi	r3,r3,27684
   832c4:	18c00017 	ldw	r3,0(r3)
   832c8:	21800215 	stw	r6,8(r4)
   832cc:	10ffc036 	bltu	r2,r3,831d0 <tx_descriptor+0xfff83170>
   832d0:	00800274 	movhi	r2,9
   832d4:	10a2cd04 	addi	r2,r2,-29900
   832d8:	11400017 	ldw	r5,0(r2)
   832dc:	8809883a 	mov	r4,r17
   832e0:	0082fbc0 	call	82fbc <_malloc_trim_r>
   832e4:	003fba06 	br	831d0 <tx_descriptor+0xfff83170>
   832e8:	28c9883a 	add	r4,r5,r3
   832ec:	21000117 	ldw	r4,4(r4)
   832f0:	2100004c 	andi	r4,r4,1
   832f4:	2000391e 	bne	r4,zero,833dc <_free_r+0x2fc>
   832f8:	29c00217 	ldw	r7,8(r5)
   832fc:	29000317 	ldw	r4,12(r5)
   83300:	1885883a 	add	r2,r3,r2
   83304:	10c00054 	ori	r3,r2,1
   83308:	39000315 	stw	r4,12(r7)
   8330c:	21c00215 	stw	r7,8(r4)
   83310:	30c00115 	stw	r3,4(r6)
   83314:	308d883a 	add	r6,r6,r2
   83318:	30800015 	stw	r2,0(r6)
   8331c:	003fac06 	br	831d0 <tx_descriptor+0xfff83170>
   83320:	00c00504 	movi	r3,20
   83324:	19401536 	bltu	r3,r5,8337c <_free_r+0x29c>
   83328:	28c01704 	addi	r3,r5,92
   8332c:	18c7883a 	add	r3,r3,r3
   83330:	294016c4 	addi	r5,r5,91
   83334:	003fb406 	br	83208 <tx_descriptor+0xfff831a8>
   83338:	280bd0ba 	srai	r5,r5,2
   8333c:	00c00044 	movi	r3,1
   83340:	38800117 	ldw	r2,4(r7)
   83344:	194a983a 	sll	r5,r3,r5
   83348:	2007883a 	mov	r3,r4
   8334c:	2884b03a 	or	r2,r5,r2
   83350:	38800115 	stw	r2,4(r7)
   83354:	003fbb06 	br	83244 <tx_descriptor+0xfff831e4>
   83358:	21800515 	stw	r6,20(r4)
   8335c:	21800415 	stw	r6,16(r4)
   83360:	10c00054 	ori	r3,r2,1
   83364:	31c00315 	stw	r7,12(r6)
   83368:	31c00215 	stw	r7,8(r6)
   8336c:	30c00115 	stw	r3,4(r6)
   83370:	308d883a 	add	r6,r6,r2
   83374:	30800015 	stw	r2,0(r6)
   83378:	003f9506 	br	831d0 <tx_descriptor+0xfff83170>
   8337c:	00c01504 	movi	r3,84
   83380:	19400536 	bltu	r3,r5,83398 <_free_r+0x2b8>
   83384:	100ad33a 	srli	r5,r2,12
   83388:	28c01bc4 	addi	r3,r5,111
   8338c:	18c7883a 	add	r3,r3,r3
   83390:	29401b84 	addi	r5,r5,110
   83394:	003f9c06 	br	83208 <tx_descriptor+0xfff831a8>
   83398:	00c05504 	movi	r3,340
   8339c:	19400536 	bltu	r3,r5,833b4 <_free_r+0x2d4>
   833a0:	100ad3fa 	srli	r5,r2,15
   833a4:	28c01e04 	addi	r3,r5,120
   833a8:	18c7883a 	add	r3,r3,r3
   833ac:	29401dc4 	addi	r5,r5,119
   833b0:	003f9506 	br	83208 <tx_descriptor+0xfff831a8>
   833b4:	00c15504 	movi	r3,1364
   833b8:	19400536 	bltu	r3,r5,833d0 <_free_r+0x2f0>
   833bc:	100ad4ba 	srli	r5,r2,18
   833c0:	28c01f44 	addi	r3,r5,125
   833c4:	18c7883a 	add	r3,r3,r3
   833c8:	29401f04 	addi	r5,r5,124
   833cc:	003f8e06 	br	83208 <tx_descriptor+0xfff831a8>
   833d0:	00c03f84 	movi	r3,254
   833d4:	01401f84 	movi	r5,126
   833d8:	003f8b06 	br	83208 <tx_descriptor+0xfff831a8>
   833dc:	10c00054 	ori	r3,r2,1
   833e0:	30c00115 	stw	r3,4(r6)
   833e4:	308d883a 	add	r6,r6,r2
   833e8:	30800015 	stw	r2,0(r6)
   833ec:	003f7806 	br	831d0 <tx_descriptor+0xfff83170>

000833f0 <_fwalk>:
   833f0:	defff704 	addi	sp,sp,-36
   833f4:	dd000415 	stw	r20,16(sp)
   833f8:	dfc00815 	stw	ra,32(sp)
   833fc:	ddc00715 	stw	r23,28(sp)
   83400:	dd800615 	stw	r22,24(sp)
   83404:	dd400515 	stw	r21,20(sp)
   83408:	dcc00315 	stw	r19,12(sp)
   8340c:	dc800215 	stw	r18,8(sp)
   83410:	dc400115 	stw	r17,4(sp)
   83414:	dc000015 	stw	r16,0(sp)
   83418:	2500b804 	addi	r20,r4,736
   8341c:	a0002326 	beq	r20,zero,834ac <_fwalk+0xbc>
   83420:	282b883a 	mov	r21,r5
   83424:	002f883a 	mov	r23,zero
   83428:	05800044 	movi	r22,1
   8342c:	04ffffc4 	movi	r19,-1
   83430:	a4400117 	ldw	r17,4(r20)
   83434:	a4800217 	ldw	r18,8(r20)
   83438:	8c7fffc4 	addi	r17,r17,-1
   8343c:	88000d16 	blt	r17,zero,83474 <_fwalk+0x84>
   83440:	94000304 	addi	r16,r18,12
   83444:	94800384 	addi	r18,r18,14
   83448:	8080000b 	ldhu	r2,0(r16)
   8344c:	8c7fffc4 	addi	r17,r17,-1
   83450:	813ffd04 	addi	r4,r16,-12
   83454:	b080042e 	bgeu	r22,r2,83468 <_fwalk+0x78>
   83458:	9080000f 	ldh	r2,0(r18)
   8345c:	14c00226 	beq	r2,r19,83468 <_fwalk+0x78>
   83460:	a83ee83a 	callr	r21
   83464:	b8aeb03a 	or	r23,r23,r2
   83468:	84001a04 	addi	r16,r16,104
   8346c:	94801a04 	addi	r18,r18,104
   83470:	8cfff51e 	bne	r17,r19,83448 <tx_descriptor+0xfff833e8>
   83474:	a5000017 	ldw	r20,0(r20)
   83478:	a03fed1e 	bne	r20,zero,83430 <tx_descriptor+0xfff833d0>
   8347c:	b805883a 	mov	r2,r23
   83480:	dfc00817 	ldw	ra,32(sp)
   83484:	ddc00717 	ldw	r23,28(sp)
   83488:	dd800617 	ldw	r22,24(sp)
   8348c:	dd400517 	ldw	r21,20(sp)
   83490:	dd000417 	ldw	r20,16(sp)
   83494:	dcc00317 	ldw	r19,12(sp)
   83498:	dc800217 	ldw	r18,8(sp)
   8349c:	dc400117 	ldw	r17,4(sp)
   834a0:	dc000017 	ldw	r16,0(sp)
   834a4:	dec00904 	addi	sp,sp,36
   834a8:	f800283a 	ret
   834ac:	002f883a 	mov	r23,zero
   834b0:	003ff206 	br	8347c <tx_descriptor+0xfff8341c>

000834b4 <_fwalk_reent>:
   834b4:	defff704 	addi	sp,sp,-36
   834b8:	dd000415 	stw	r20,16(sp)
   834bc:	dfc00815 	stw	ra,32(sp)
   834c0:	ddc00715 	stw	r23,28(sp)
   834c4:	dd800615 	stw	r22,24(sp)
   834c8:	dd400515 	stw	r21,20(sp)
   834cc:	dcc00315 	stw	r19,12(sp)
   834d0:	dc800215 	stw	r18,8(sp)
   834d4:	dc400115 	stw	r17,4(sp)
   834d8:	dc000015 	stw	r16,0(sp)
   834dc:	2500b804 	addi	r20,r4,736
   834e0:	a0002326 	beq	r20,zero,83570 <_fwalk_reent+0xbc>
   834e4:	282b883a 	mov	r21,r5
   834e8:	2027883a 	mov	r19,r4
   834ec:	002f883a 	mov	r23,zero
   834f0:	05800044 	movi	r22,1
   834f4:	04bfffc4 	movi	r18,-1
   834f8:	a4400117 	ldw	r17,4(r20)
   834fc:	a4000217 	ldw	r16,8(r20)
   83500:	8c7fffc4 	addi	r17,r17,-1
   83504:	88000c16 	blt	r17,zero,83538 <_fwalk_reent+0x84>
   83508:	84000304 	addi	r16,r16,12
   8350c:	8080000b 	ldhu	r2,0(r16)
   83510:	8c7fffc4 	addi	r17,r17,-1
   83514:	817ffd04 	addi	r5,r16,-12
   83518:	b080052e 	bgeu	r22,r2,83530 <_fwalk_reent+0x7c>
   8351c:	8080008f 	ldh	r2,2(r16)
   83520:	9809883a 	mov	r4,r19
   83524:	14800226 	beq	r2,r18,83530 <_fwalk_reent+0x7c>
   83528:	a83ee83a 	callr	r21
   8352c:	b8aeb03a 	or	r23,r23,r2
   83530:	84001a04 	addi	r16,r16,104
   83534:	8cbff51e 	bne	r17,r18,8350c <tx_descriptor+0xfff834ac>
   83538:	a5000017 	ldw	r20,0(r20)
   8353c:	a03fee1e 	bne	r20,zero,834f8 <tx_descriptor+0xfff83498>
   83540:	b805883a 	mov	r2,r23
   83544:	dfc00817 	ldw	ra,32(sp)
   83548:	ddc00717 	ldw	r23,28(sp)
   8354c:	dd800617 	ldw	r22,24(sp)
   83550:	dd400517 	ldw	r21,20(sp)
   83554:	dd000417 	ldw	r20,16(sp)
   83558:	dcc00317 	ldw	r19,12(sp)
   8355c:	dc800217 	ldw	r18,8(sp)
   83560:	dc400117 	ldw	r17,4(sp)
   83564:	dc000017 	ldw	r16,0(sp)
   83568:	dec00904 	addi	sp,sp,36
   8356c:	f800283a 	ret
   83570:	002f883a 	mov	r23,zero
   83574:	003ff206 	br	83540 <tx_descriptor+0xfff834e0>

00083578 <__smakebuf_r>:
   83578:	2880030b 	ldhu	r2,12(r5)
   8357c:	10c0008c 	andi	r3,r2,2
   83580:	1800411e 	bne	r3,zero,83688 <__smakebuf_r+0x110>
   83584:	deffec04 	addi	sp,sp,-80
   83588:	dc000f15 	stw	r16,60(sp)
   8358c:	2821883a 	mov	r16,r5
   83590:	2940038f 	ldh	r5,14(r5)
   83594:	dc401015 	stw	r17,64(sp)
   83598:	dfc01315 	stw	ra,76(sp)
   8359c:	dcc01215 	stw	r19,72(sp)
   835a0:	dc801115 	stw	r18,68(sp)
   835a4:	2023883a 	mov	r17,r4
   835a8:	28001c16 	blt	r5,zero,8361c <__smakebuf_r+0xa4>
   835ac:	d80d883a 	mov	r6,sp
   835b0:	00845a00 	call	845a0 <_fstat_r>
   835b4:	10001816 	blt	r2,zero,83618 <__smakebuf_r+0xa0>
   835b8:	d8800117 	ldw	r2,4(sp)
   835bc:	00e00014 	movui	r3,32768
   835c0:	10bc000c 	andi	r2,r2,61440
   835c4:	14c80020 	cmpeqi	r19,r2,8192
   835c8:	10c03726 	beq	r2,r3,836a8 <__smakebuf_r+0x130>
   835cc:	80c0030b 	ldhu	r3,12(r16)
   835d0:	18c20014 	ori	r3,r3,2048
   835d4:	80c0030d 	sth	r3,12(r16)
   835d8:	00c80004 	movi	r3,8192
   835dc:	10c0521e 	bne	r2,r3,83728 <__smakebuf_r+0x1b0>
   835e0:	8140038f 	ldh	r5,14(r16)
   835e4:	8809883a 	mov	r4,r17
   835e8:	00845fc0 	call	845fc <_isatty_r>
   835ec:	10004c26 	beq	r2,zero,83720 <__smakebuf_r+0x1a8>
   835f0:	8080030b 	ldhu	r2,12(r16)
   835f4:	80c010c4 	addi	r3,r16,67
   835f8:	80c00015 	stw	r3,0(r16)
   835fc:	10800054 	ori	r2,r2,1
   83600:	8080030d 	sth	r2,12(r16)
   83604:	00800044 	movi	r2,1
   83608:	80c00415 	stw	r3,16(r16)
   8360c:	80800515 	stw	r2,20(r16)
   83610:	04810004 	movi	r18,1024
   83614:	00000706 	br	83634 <__smakebuf_r+0xbc>
   83618:	8080030b 	ldhu	r2,12(r16)
   8361c:	10c0200c 	andi	r3,r2,128
   83620:	18001f1e 	bne	r3,zero,836a0 <__smakebuf_r+0x128>
   83624:	04810004 	movi	r18,1024
   83628:	10820014 	ori	r2,r2,2048
   8362c:	8080030d 	sth	r2,12(r16)
   83630:	0027883a 	mov	r19,zero
   83634:	900b883a 	mov	r5,r18
   83638:	8809883a 	mov	r4,r17
   8363c:	00837340 	call	83734 <_malloc_r>
   83640:	10002c26 	beq	r2,zero,836f4 <__smakebuf_r+0x17c>
   83644:	80c0030b 	ldhu	r3,12(r16)
   83648:	01000234 	movhi	r4,8
   8364c:	210b0504 	addi	r4,r4,11284
   83650:	89000f15 	stw	r4,60(r17)
   83654:	18c02014 	ori	r3,r3,128
   83658:	80c0030d 	sth	r3,12(r16)
   8365c:	80800015 	stw	r2,0(r16)
   83660:	80800415 	stw	r2,16(r16)
   83664:	84800515 	stw	r18,20(r16)
   83668:	98001a1e 	bne	r19,zero,836d4 <__smakebuf_r+0x15c>
   8366c:	dfc01317 	ldw	ra,76(sp)
   83670:	dcc01217 	ldw	r19,72(sp)
   83674:	dc801117 	ldw	r18,68(sp)
   83678:	dc401017 	ldw	r17,64(sp)
   8367c:	dc000f17 	ldw	r16,60(sp)
   83680:	dec01404 	addi	sp,sp,80
   83684:	f800283a 	ret
   83688:	288010c4 	addi	r2,r5,67
   8368c:	28800015 	stw	r2,0(r5)
   83690:	28800415 	stw	r2,16(r5)
   83694:	00800044 	movi	r2,1
   83698:	28800515 	stw	r2,20(r5)
   8369c:	f800283a 	ret
   836a0:	04801004 	movi	r18,64
   836a4:	003fe006 	br	83628 <tx_descriptor+0xfff835c8>
   836a8:	81000a17 	ldw	r4,40(r16)
   836ac:	00c00234 	movhi	r3,8
   836b0:	18d0e104 	addi	r3,r3,17284
   836b4:	20ffc51e 	bne	r4,r3,835cc <tx_descriptor+0xfff8356c>
   836b8:	8080030b 	ldhu	r2,12(r16)
   836bc:	04810004 	movi	r18,1024
   836c0:	84801315 	stw	r18,76(r16)
   836c4:	1484b03a 	or	r2,r2,r18
   836c8:	8080030d 	sth	r2,12(r16)
   836cc:	0027883a 	mov	r19,zero
   836d0:	003fd806 	br	83634 <tx_descriptor+0xfff835d4>
   836d4:	8140038f 	ldh	r5,14(r16)
   836d8:	8809883a 	mov	r4,r17
   836dc:	00845fc0 	call	845fc <_isatty_r>
   836e0:	103fe226 	beq	r2,zero,8366c <tx_descriptor+0xfff8360c>
   836e4:	8080030b 	ldhu	r2,12(r16)
   836e8:	10800054 	ori	r2,r2,1
   836ec:	8080030d 	sth	r2,12(r16)
   836f0:	003fde06 	br	8366c <tx_descriptor+0xfff8360c>
   836f4:	8080030b 	ldhu	r2,12(r16)
   836f8:	10c0800c 	andi	r3,r2,512
   836fc:	183fdb1e 	bne	r3,zero,8366c <tx_descriptor+0xfff8360c>
   83700:	10800094 	ori	r2,r2,2
   83704:	80c010c4 	addi	r3,r16,67
   83708:	8080030d 	sth	r2,12(r16)
   8370c:	00800044 	movi	r2,1
   83710:	80c00015 	stw	r3,0(r16)
   83714:	80c00415 	stw	r3,16(r16)
   83718:	80800515 	stw	r2,20(r16)
   8371c:	003fd306 	br	8366c <tx_descriptor+0xfff8360c>
   83720:	04810004 	movi	r18,1024
   83724:	003fc306 	br	83634 <tx_descriptor+0xfff835d4>
   83728:	0027883a 	mov	r19,zero
   8372c:	04810004 	movi	r18,1024
   83730:	003fc006 	br	83634 <tx_descriptor+0xfff835d4>

00083734 <_malloc_r>:
   83734:	defff504 	addi	sp,sp,-44
   83738:	dc800315 	stw	r18,12(sp)
   8373c:	dfc00a15 	stw	ra,40(sp)
   83740:	df000915 	stw	fp,36(sp)
   83744:	ddc00815 	stw	r23,32(sp)
   83748:	dd800715 	stw	r22,28(sp)
   8374c:	dd400615 	stw	r21,24(sp)
   83750:	dd000515 	stw	r20,20(sp)
   83754:	dcc00415 	stw	r19,16(sp)
   83758:	dc400215 	stw	r17,8(sp)
   8375c:	dc000115 	stw	r16,4(sp)
   83760:	288002c4 	addi	r2,r5,11
   83764:	00c00584 	movi	r3,22
   83768:	2025883a 	mov	r18,r4
   8376c:	18807f2e 	bgeu	r3,r2,8396c <_malloc_r+0x238>
   83770:	047ffe04 	movi	r17,-8
   83774:	1462703a 	and	r17,r2,r17
   83778:	8800a316 	blt	r17,zero,83a08 <_malloc_r+0x2d4>
   8377c:	8940a236 	bltu	r17,r5,83a08 <_malloc_r+0x2d4>
   83780:	00849780 	call	84978 <__malloc_lock>
   83784:	00807dc4 	movi	r2,503
   83788:	1441e92e 	bgeu	r2,r17,83f30 <_malloc_r+0x7fc>
   8378c:	8804d27a 	srli	r2,r17,9
   83790:	1000a126 	beq	r2,zero,83a18 <_malloc_r+0x2e4>
   83794:	00c00104 	movi	r3,4
   83798:	18811e36 	bltu	r3,r2,83c14 <_malloc_r+0x4e0>
   8379c:	8804d1ba 	srli	r2,r17,6
   837a0:	12000e44 	addi	r8,r2,57
   837a4:	11c00e04 	addi	r7,r2,56
   837a8:	4209883a 	add	r4,r8,r8
   837ac:	04c00234 	movhi	r19,8
   837b0:	2109883a 	add	r4,r4,r4
   837b4:	9cd9f904 	addi	r19,r19,26596
   837b8:	2109883a 	add	r4,r4,r4
   837bc:	9909883a 	add	r4,r19,r4
   837c0:	24000117 	ldw	r16,4(r4)
   837c4:	213ffe04 	addi	r4,r4,-8
   837c8:	24009726 	beq	r4,r16,83a28 <_malloc_r+0x2f4>
   837cc:	80800117 	ldw	r2,4(r16)
   837d0:	01bfff04 	movi	r6,-4
   837d4:	014003c4 	movi	r5,15
   837d8:	1184703a 	and	r2,r2,r6
   837dc:	1447c83a 	sub	r3,r2,r17
   837e0:	28c00716 	blt	r5,r3,83800 <_malloc_r+0xcc>
   837e4:	1800920e 	bge	r3,zero,83a30 <_malloc_r+0x2fc>
   837e8:	84000317 	ldw	r16,12(r16)
   837ec:	24008e26 	beq	r4,r16,83a28 <_malloc_r+0x2f4>
   837f0:	80800117 	ldw	r2,4(r16)
   837f4:	1184703a 	and	r2,r2,r6
   837f8:	1447c83a 	sub	r3,r2,r17
   837fc:	28fff90e 	bge	r5,r3,837e4 <tx_descriptor+0xfff83784>
   83800:	3809883a 	mov	r4,r7
   83804:	01800234 	movhi	r6,8
   83808:	9c000417 	ldw	r16,16(r19)
   8380c:	3199f904 	addi	r6,r6,26596
   83810:	32000204 	addi	r8,r6,8
   83814:	82013426 	beq	r16,r8,83ce8 <_malloc_r+0x5b4>
   83818:	80c00117 	ldw	r3,4(r16)
   8381c:	00bfff04 	movi	r2,-4
   83820:	188e703a 	and	r7,r3,r2
   83824:	3c45c83a 	sub	r2,r7,r17
   83828:	00c003c4 	movi	r3,15
   8382c:	18811f16 	blt	r3,r2,83cac <_malloc_r+0x578>
   83830:	32000515 	stw	r8,20(r6)
   83834:	32000415 	stw	r8,16(r6)
   83838:	10007f0e 	bge	r2,zero,83a38 <_malloc_r+0x304>
   8383c:	00807fc4 	movi	r2,511
   83840:	11c0fd36 	bltu	r2,r7,83c38 <_malloc_r+0x504>
   83844:	3806d0fa 	srli	r3,r7,3
   83848:	01c00044 	movi	r7,1
   8384c:	30800117 	ldw	r2,4(r6)
   83850:	19400044 	addi	r5,r3,1
   83854:	294b883a 	add	r5,r5,r5
   83858:	1807d0ba 	srai	r3,r3,2
   8385c:	294b883a 	add	r5,r5,r5
   83860:	294b883a 	add	r5,r5,r5
   83864:	298b883a 	add	r5,r5,r6
   83868:	38c6983a 	sll	r3,r7,r3
   8386c:	29c00017 	ldw	r7,0(r5)
   83870:	2a7ffe04 	addi	r9,r5,-8
   83874:	1886b03a 	or	r3,r3,r2
   83878:	82400315 	stw	r9,12(r16)
   8387c:	81c00215 	stw	r7,8(r16)
   83880:	30c00115 	stw	r3,4(r6)
   83884:	2c000015 	stw	r16,0(r5)
   83888:	3c000315 	stw	r16,12(r7)
   8388c:	2005d0ba 	srai	r2,r4,2
   83890:	01400044 	movi	r5,1
   83894:	288a983a 	sll	r5,r5,r2
   83898:	19406f36 	bltu	r3,r5,83a58 <_malloc_r+0x324>
   8389c:	28c4703a 	and	r2,r5,r3
   838a0:	10000a1e 	bne	r2,zero,838cc <_malloc_r+0x198>
   838a4:	00bfff04 	movi	r2,-4
   838a8:	294b883a 	add	r5,r5,r5
   838ac:	2088703a 	and	r4,r4,r2
   838b0:	28c4703a 	and	r2,r5,r3
   838b4:	21000104 	addi	r4,r4,4
   838b8:	1000041e 	bne	r2,zero,838cc <_malloc_r+0x198>
   838bc:	294b883a 	add	r5,r5,r5
   838c0:	28c4703a 	and	r2,r5,r3
   838c4:	21000104 	addi	r4,r4,4
   838c8:	103ffc26 	beq	r2,zero,838bc <tx_descriptor+0xfff8385c>
   838cc:	02bfff04 	movi	r10,-4
   838d0:	024003c4 	movi	r9,15
   838d4:	21800044 	addi	r6,r4,1
   838d8:	318d883a 	add	r6,r6,r6
   838dc:	318d883a 	add	r6,r6,r6
   838e0:	318d883a 	add	r6,r6,r6
   838e4:	998d883a 	add	r6,r19,r6
   838e8:	333ffe04 	addi	r12,r6,-8
   838ec:	2017883a 	mov	r11,r4
   838f0:	31800104 	addi	r6,r6,4
   838f4:	34000017 	ldw	r16,0(r6)
   838f8:	31fffd04 	addi	r7,r6,-12
   838fc:	81c0041e 	bne	r16,r7,83910 <_malloc_r+0x1dc>
   83900:	0000fb06 	br	83cf0 <_malloc_r+0x5bc>
   83904:	1801030e 	bge	r3,zero,83d14 <_malloc_r+0x5e0>
   83908:	84000317 	ldw	r16,12(r16)
   8390c:	81c0f826 	beq	r16,r7,83cf0 <_malloc_r+0x5bc>
   83910:	80800117 	ldw	r2,4(r16)
   83914:	1284703a 	and	r2,r2,r10
   83918:	1447c83a 	sub	r3,r2,r17
   8391c:	48fff90e 	bge	r9,r3,83904 <tx_descriptor+0xfff838a4>
   83920:	80800317 	ldw	r2,12(r16)
   83924:	81000217 	ldw	r4,8(r16)
   83928:	89400054 	ori	r5,r17,1
   8392c:	81400115 	stw	r5,4(r16)
   83930:	20800315 	stw	r2,12(r4)
   83934:	11000215 	stw	r4,8(r2)
   83938:	8463883a 	add	r17,r16,r17
   8393c:	9c400515 	stw	r17,20(r19)
   83940:	9c400415 	stw	r17,16(r19)
   83944:	18800054 	ori	r2,r3,1
   83948:	88800115 	stw	r2,4(r17)
   8394c:	8a000315 	stw	r8,12(r17)
   83950:	8a000215 	stw	r8,8(r17)
   83954:	88e3883a 	add	r17,r17,r3
   83958:	88c00015 	stw	r3,0(r17)
   8395c:	9009883a 	mov	r4,r18
   83960:	008497c0 	call	8497c <__malloc_unlock>
   83964:	80800204 	addi	r2,r16,8
   83968:	00001b06 	br	839d8 <_malloc_r+0x2a4>
   8396c:	04400404 	movi	r17,16
   83970:	89402536 	bltu	r17,r5,83a08 <_malloc_r+0x2d4>
   83974:	00849780 	call	84978 <__malloc_lock>
   83978:	00800184 	movi	r2,6
   8397c:	01000084 	movi	r4,2
   83980:	04c00234 	movhi	r19,8
   83984:	1085883a 	add	r2,r2,r2
   83988:	9cd9f904 	addi	r19,r19,26596
   8398c:	1085883a 	add	r2,r2,r2
   83990:	9885883a 	add	r2,r19,r2
   83994:	14000117 	ldw	r16,4(r2)
   83998:	10fffe04 	addi	r3,r2,-8
   8399c:	80c0d926 	beq	r16,r3,83d04 <_malloc_r+0x5d0>
   839a0:	80c00117 	ldw	r3,4(r16)
   839a4:	81000317 	ldw	r4,12(r16)
   839a8:	00bfff04 	movi	r2,-4
   839ac:	1884703a 	and	r2,r3,r2
   839b0:	81400217 	ldw	r5,8(r16)
   839b4:	8085883a 	add	r2,r16,r2
   839b8:	10c00117 	ldw	r3,4(r2)
   839bc:	29000315 	stw	r4,12(r5)
   839c0:	21400215 	stw	r5,8(r4)
   839c4:	18c00054 	ori	r3,r3,1
   839c8:	10c00115 	stw	r3,4(r2)
   839cc:	9009883a 	mov	r4,r18
   839d0:	008497c0 	call	8497c <__malloc_unlock>
   839d4:	80800204 	addi	r2,r16,8
   839d8:	dfc00a17 	ldw	ra,40(sp)
   839dc:	df000917 	ldw	fp,36(sp)
   839e0:	ddc00817 	ldw	r23,32(sp)
   839e4:	dd800717 	ldw	r22,28(sp)
   839e8:	dd400617 	ldw	r21,24(sp)
   839ec:	dd000517 	ldw	r20,20(sp)
   839f0:	dcc00417 	ldw	r19,16(sp)
   839f4:	dc800317 	ldw	r18,12(sp)
   839f8:	dc400217 	ldw	r17,8(sp)
   839fc:	dc000117 	ldw	r16,4(sp)
   83a00:	dec00b04 	addi	sp,sp,44
   83a04:	f800283a 	ret
   83a08:	00800304 	movi	r2,12
   83a0c:	90800015 	stw	r2,0(r18)
   83a10:	0005883a 	mov	r2,zero
   83a14:	003ff006 	br	839d8 <tx_descriptor+0xfff83978>
   83a18:	01002004 	movi	r4,128
   83a1c:	02001004 	movi	r8,64
   83a20:	01c00fc4 	movi	r7,63
   83a24:	003f6106 	br	837ac <tx_descriptor+0xfff8374c>
   83a28:	4009883a 	mov	r4,r8
   83a2c:	003f7506 	br	83804 <tx_descriptor+0xfff837a4>
   83a30:	81000317 	ldw	r4,12(r16)
   83a34:	003fde06 	br	839b0 <tx_descriptor+0xfff83950>
   83a38:	81c5883a 	add	r2,r16,r7
   83a3c:	11400117 	ldw	r5,4(r2)
   83a40:	9009883a 	mov	r4,r18
   83a44:	29400054 	ori	r5,r5,1
   83a48:	11400115 	stw	r5,4(r2)
   83a4c:	008497c0 	call	8497c <__malloc_unlock>
   83a50:	80800204 	addi	r2,r16,8
   83a54:	003fe006 	br	839d8 <tx_descriptor+0xfff83978>
   83a58:	9c000217 	ldw	r16,8(r19)
   83a5c:	00bfff04 	movi	r2,-4
   83a60:	85800117 	ldw	r22,4(r16)
   83a64:	b0ac703a 	and	r22,r22,r2
   83a68:	b4400336 	bltu	r22,r17,83a78 <_malloc_r+0x344>
   83a6c:	b445c83a 	sub	r2,r22,r17
   83a70:	00c003c4 	movi	r3,15
   83a74:	18805d16 	blt	r3,r2,83bec <_malloc_r+0x4b8>
   83a78:	05c00234 	movhi	r23,8
   83a7c:	00800274 	movhi	r2,9
   83a80:	10a2cd04 	addi	r2,r2,-29900
   83a84:	bddb0804 	addi	r23,r23,27680
   83a88:	15400017 	ldw	r21,0(r2)
   83a8c:	b8c00017 	ldw	r3,0(r23)
   83a90:	00bfffc4 	movi	r2,-1
   83a94:	858d883a 	add	r6,r16,r22
   83a98:	8d6b883a 	add	r21,r17,r21
   83a9c:	1880ea26 	beq	r3,r2,83e48 <_malloc_r+0x714>
   83aa0:	ad4403c4 	addi	r21,r21,4111
   83aa4:	00bc0004 	movi	r2,-4096
   83aa8:	a8aa703a 	and	r21,r21,r2
   83aac:	a80b883a 	mov	r5,r21
   83ab0:	9009883a 	mov	r4,r18
   83ab4:	d9800015 	stw	r6,0(sp)
   83ab8:	00842580 	call	84258 <_sbrk_r>
   83abc:	1029883a 	mov	r20,r2
   83ac0:	00bfffc4 	movi	r2,-1
   83ac4:	d9800017 	ldw	r6,0(sp)
   83ac8:	a080e826 	beq	r20,r2,83e6c <_malloc_r+0x738>
   83acc:	a180a636 	bltu	r20,r6,83d68 <_malloc_r+0x634>
   83ad0:	07000274 	movhi	fp,9
   83ad4:	e723ce04 	addi	fp,fp,-28872
   83ad8:	e0800017 	ldw	r2,0(fp)
   83adc:	a887883a 	add	r3,r21,r2
   83ae0:	e0c00015 	stw	r3,0(fp)
   83ae4:	3500e626 	beq	r6,r20,83e80 <_malloc_r+0x74c>
   83ae8:	b9000017 	ldw	r4,0(r23)
   83aec:	00bfffc4 	movi	r2,-1
   83af0:	2080ee26 	beq	r4,r2,83eac <_malloc_r+0x778>
   83af4:	a185c83a 	sub	r2,r20,r6
   83af8:	10c5883a 	add	r2,r2,r3
   83afc:	e0800015 	stw	r2,0(fp)
   83b00:	a0c001cc 	andi	r3,r20,7
   83b04:	1800bc26 	beq	r3,zero,83df8 <_malloc_r+0x6c4>
   83b08:	a0e9c83a 	sub	r20,r20,r3
   83b0c:	00840204 	movi	r2,4104
   83b10:	a5000204 	addi	r20,r20,8
   83b14:	10c7c83a 	sub	r3,r2,r3
   83b18:	a545883a 	add	r2,r20,r21
   83b1c:	1083ffcc 	andi	r2,r2,4095
   83b20:	18abc83a 	sub	r21,r3,r2
   83b24:	a80b883a 	mov	r5,r21
   83b28:	9009883a 	mov	r4,r18
   83b2c:	00842580 	call	84258 <_sbrk_r>
   83b30:	00ffffc4 	movi	r3,-1
   83b34:	10c0e126 	beq	r2,r3,83ebc <_malloc_r+0x788>
   83b38:	1505c83a 	sub	r2,r2,r20
   83b3c:	1545883a 	add	r2,r2,r21
   83b40:	10800054 	ori	r2,r2,1
   83b44:	e0c00017 	ldw	r3,0(fp)
   83b48:	9d000215 	stw	r20,8(r19)
   83b4c:	a0800115 	stw	r2,4(r20)
   83b50:	a8c7883a 	add	r3,r21,r3
   83b54:	e0c00015 	stw	r3,0(fp)
   83b58:	84c00e26 	beq	r16,r19,83b94 <_malloc_r+0x460>
   83b5c:	018003c4 	movi	r6,15
   83b60:	3580a72e 	bgeu	r6,r22,83e00 <_malloc_r+0x6cc>
   83b64:	81400117 	ldw	r5,4(r16)
   83b68:	013ffe04 	movi	r4,-8
   83b6c:	b0bffd04 	addi	r2,r22,-12
   83b70:	1104703a 	and	r2,r2,r4
   83b74:	2900004c 	andi	r4,r5,1
   83b78:	2088b03a 	or	r4,r4,r2
   83b7c:	81000115 	stw	r4,4(r16)
   83b80:	01400144 	movi	r5,5
   83b84:	8089883a 	add	r4,r16,r2
   83b88:	21400115 	stw	r5,4(r4)
   83b8c:	21400215 	stw	r5,8(r4)
   83b90:	3080cd36 	bltu	r6,r2,83ec8 <_malloc_r+0x794>
   83b94:	00800274 	movhi	r2,9
   83b98:	10a2cc04 	addi	r2,r2,-29904
   83b9c:	11000017 	ldw	r4,0(r2)
   83ba0:	20c0012e 	bgeu	r4,r3,83ba8 <_malloc_r+0x474>
   83ba4:	10c00015 	stw	r3,0(r2)
   83ba8:	00800274 	movhi	r2,9
   83bac:	10a2cb04 	addi	r2,r2,-29908
   83bb0:	11000017 	ldw	r4,0(r2)
   83bb4:	9c000217 	ldw	r16,8(r19)
   83bb8:	20c0012e 	bgeu	r4,r3,83bc0 <_malloc_r+0x48c>
   83bbc:	10c00015 	stw	r3,0(r2)
   83bc0:	80c00117 	ldw	r3,4(r16)
   83bc4:	00bfff04 	movi	r2,-4
   83bc8:	1886703a 	and	r3,r3,r2
   83bcc:	1c45c83a 	sub	r2,r3,r17
   83bd0:	1c400236 	bltu	r3,r17,83bdc <_malloc_r+0x4a8>
   83bd4:	00c003c4 	movi	r3,15
   83bd8:	18800416 	blt	r3,r2,83bec <_malloc_r+0x4b8>
   83bdc:	9009883a 	mov	r4,r18
   83be0:	008497c0 	call	8497c <__malloc_unlock>
   83be4:	0005883a 	mov	r2,zero
   83be8:	003f7b06 	br	839d8 <tx_descriptor+0xfff83978>
   83bec:	88c00054 	ori	r3,r17,1
   83bf0:	80c00115 	stw	r3,4(r16)
   83bf4:	8463883a 	add	r17,r16,r17
   83bf8:	10800054 	ori	r2,r2,1
   83bfc:	9c400215 	stw	r17,8(r19)
   83c00:	88800115 	stw	r2,4(r17)
   83c04:	9009883a 	mov	r4,r18
   83c08:	008497c0 	call	8497c <__malloc_unlock>
   83c0c:	80800204 	addi	r2,r16,8
   83c10:	003f7106 	br	839d8 <tx_descriptor+0xfff83978>
   83c14:	00c00504 	movi	r3,20
   83c18:	18804a2e 	bgeu	r3,r2,83d44 <_malloc_r+0x610>
   83c1c:	00c01504 	movi	r3,84
   83c20:	18806e36 	bltu	r3,r2,83ddc <_malloc_r+0x6a8>
   83c24:	8804d33a 	srli	r2,r17,12
   83c28:	12001bc4 	addi	r8,r2,111
   83c2c:	11c01b84 	addi	r7,r2,110
   83c30:	4209883a 	add	r4,r8,r8
   83c34:	003edd06 	br	837ac <tx_descriptor+0xfff8374c>
   83c38:	3804d27a 	srli	r2,r7,9
   83c3c:	00c00104 	movi	r3,4
   83c40:	1880442e 	bgeu	r3,r2,83d54 <_malloc_r+0x620>
   83c44:	00c00504 	movi	r3,20
   83c48:	18808136 	bltu	r3,r2,83e50 <_malloc_r+0x71c>
   83c4c:	11401704 	addi	r5,r2,92
   83c50:	10c016c4 	addi	r3,r2,91
   83c54:	294b883a 	add	r5,r5,r5
   83c58:	294b883a 	add	r5,r5,r5
   83c5c:	294b883a 	add	r5,r5,r5
   83c60:	994b883a 	add	r5,r19,r5
   83c64:	28800017 	ldw	r2,0(r5)
   83c68:	01800234 	movhi	r6,8
   83c6c:	297ffe04 	addi	r5,r5,-8
   83c70:	3199f904 	addi	r6,r6,26596
   83c74:	28806526 	beq	r5,r2,83e0c <_malloc_r+0x6d8>
   83c78:	01bfff04 	movi	r6,-4
   83c7c:	10c00117 	ldw	r3,4(r2)
   83c80:	1986703a 	and	r3,r3,r6
   83c84:	38c0022e 	bgeu	r7,r3,83c90 <_malloc_r+0x55c>
   83c88:	10800217 	ldw	r2,8(r2)
   83c8c:	28bffb1e 	bne	r5,r2,83c7c <tx_descriptor+0xfff83c1c>
   83c90:	11400317 	ldw	r5,12(r2)
   83c94:	98c00117 	ldw	r3,4(r19)
   83c98:	81400315 	stw	r5,12(r16)
   83c9c:	80800215 	stw	r2,8(r16)
   83ca0:	2c000215 	stw	r16,8(r5)
   83ca4:	14000315 	stw	r16,12(r2)
   83ca8:	003ef806 	br	8388c <tx_descriptor+0xfff8382c>
   83cac:	88c00054 	ori	r3,r17,1
   83cb0:	80c00115 	stw	r3,4(r16)
   83cb4:	8463883a 	add	r17,r16,r17
   83cb8:	34400515 	stw	r17,20(r6)
   83cbc:	34400415 	stw	r17,16(r6)
   83cc0:	10c00054 	ori	r3,r2,1
   83cc4:	8a000315 	stw	r8,12(r17)
   83cc8:	8a000215 	stw	r8,8(r17)
   83ccc:	88c00115 	stw	r3,4(r17)
   83cd0:	88a3883a 	add	r17,r17,r2
   83cd4:	88800015 	stw	r2,0(r17)
   83cd8:	9009883a 	mov	r4,r18
   83cdc:	008497c0 	call	8497c <__malloc_unlock>
   83ce0:	80800204 	addi	r2,r16,8
   83ce4:	003f3c06 	br	839d8 <tx_descriptor+0xfff83978>
   83ce8:	30c00117 	ldw	r3,4(r6)
   83cec:	003ee706 	br	8388c <tx_descriptor+0xfff8382c>
   83cf0:	5ac00044 	addi	r11,r11,1
   83cf4:	588000cc 	andi	r2,r11,3
   83cf8:	31800204 	addi	r6,r6,8
   83cfc:	103efd1e 	bne	r2,zero,838f4 <tx_descriptor+0xfff83894>
   83d00:	00002406 	br	83d94 <_malloc_r+0x660>
   83d04:	14000317 	ldw	r16,12(r2)
   83d08:	143f251e 	bne	r2,r16,839a0 <tx_descriptor+0xfff83940>
   83d0c:	21000084 	addi	r4,r4,2
   83d10:	003ebc06 	br	83804 <tx_descriptor+0xfff837a4>
   83d14:	8085883a 	add	r2,r16,r2
   83d18:	10c00117 	ldw	r3,4(r2)
   83d1c:	81000317 	ldw	r4,12(r16)
   83d20:	81400217 	ldw	r5,8(r16)
   83d24:	18c00054 	ori	r3,r3,1
   83d28:	10c00115 	stw	r3,4(r2)
   83d2c:	29000315 	stw	r4,12(r5)
   83d30:	21400215 	stw	r5,8(r4)
   83d34:	9009883a 	mov	r4,r18
   83d38:	008497c0 	call	8497c <__malloc_unlock>
   83d3c:	80800204 	addi	r2,r16,8
   83d40:	003f2506 	br	839d8 <tx_descriptor+0xfff83978>
   83d44:	12001704 	addi	r8,r2,92
   83d48:	11c016c4 	addi	r7,r2,91
   83d4c:	4209883a 	add	r4,r8,r8
   83d50:	003e9606 	br	837ac <tx_descriptor+0xfff8374c>
   83d54:	3804d1ba 	srli	r2,r7,6
   83d58:	11400e44 	addi	r5,r2,57
   83d5c:	10c00e04 	addi	r3,r2,56
   83d60:	294b883a 	add	r5,r5,r5
   83d64:	003fbc06 	br	83c58 <tx_descriptor+0xfff83bf8>
   83d68:	84ff5926 	beq	r16,r19,83ad0 <tx_descriptor+0xfff83a70>
   83d6c:	00800234 	movhi	r2,8
   83d70:	1099f904 	addi	r2,r2,26596
   83d74:	14000217 	ldw	r16,8(r2)
   83d78:	00bfff04 	movi	r2,-4
   83d7c:	80c00117 	ldw	r3,4(r16)
   83d80:	1886703a 	and	r3,r3,r2
   83d84:	003f9106 	br	83bcc <tx_descriptor+0xfff83b6c>
   83d88:	60800217 	ldw	r2,8(r12)
   83d8c:	213fffc4 	addi	r4,r4,-1
   83d90:	1300651e 	bne	r2,r12,83f28 <_malloc_r+0x7f4>
   83d94:	208000cc 	andi	r2,r4,3
   83d98:	633ffe04 	addi	r12,r12,-8
   83d9c:	103ffa1e 	bne	r2,zero,83d88 <tx_descriptor+0xfff83d28>
   83da0:	98800117 	ldw	r2,4(r19)
   83da4:	0146303a 	nor	r3,zero,r5
   83da8:	1884703a 	and	r2,r3,r2
   83dac:	98800115 	stw	r2,4(r19)
   83db0:	294b883a 	add	r5,r5,r5
   83db4:	117f2836 	bltu	r2,r5,83a58 <tx_descriptor+0xfff839f8>
   83db8:	283f2726 	beq	r5,zero,83a58 <tx_descriptor+0xfff839f8>
   83dbc:	2886703a 	and	r3,r5,r2
   83dc0:	5809883a 	mov	r4,r11
   83dc4:	183ec31e 	bne	r3,zero,838d4 <tx_descriptor+0xfff83874>
   83dc8:	294b883a 	add	r5,r5,r5
   83dcc:	2886703a 	and	r3,r5,r2
   83dd0:	21000104 	addi	r4,r4,4
   83dd4:	183ffc26 	beq	r3,zero,83dc8 <tx_descriptor+0xfff83d68>
   83dd8:	003ebe06 	br	838d4 <tx_descriptor+0xfff83874>
   83ddc:	00c05504 	movi	r3,340
   83de0:	18801236 	bltu	r3,r2,83e2c <_malloc_r+0x6f8>
   83de4:	8804d3fa 	srli	r2,r17,15
   83de8:	12001e04 	addi	r8,r2,120
   83dec:	11c01dc4 	addi	r7,r2,119
   83df0:	4209883a 	add	r4,r8,r8
   83df4:	003e6d06 	br	837ac <tx_descriptor+0xfff8374c>
   83df8:	00c40004 	movi	r3,4096
   83dfc:	003f4606 	br	83b18 <tx_descriptor+0xfff83ab8>
   83e00:	00800044 	movi	r2,1
   83e04:	a0800115 	stw	r2,4(r20)
   83e08:	003f7406 	br	83bdc <tx_descriptor+0xfff83b7c>
   83e0c:	1805d0ba 	srai	r2,r3,2
   83e10:	01c00044 	movi	r7,1
   83e14:	30c00117 	ldw	r3,4(r6)
   83e18:	388e983a 	sll	r7,r7,r2
   83e1c:	2805883a 	mov	r2,r5
   83e20:	38c6b03a 	or	r3,r7,r3
   83e24:	30c00115 	stw	r3,4(r6)
   83e28:	003f9b06 	br	83c98 <tx_descriptor+0xfff83c38>
   83e2c:	00c15504 	movi	r3,1364
   83e30:	18801a36 	bltu	r3,r2,83e9c <_malloc_r+0x768>
   83e34:	8804d4ba 	srli	r2,r17,18
   83e38:	12001f44 	addi	r8,r2,125
   83e3c:	11c01f04 	addi	r7,r2,124
   83e40:	4209883a 	add	r4,r8,r8
   83e44:	003e5906 	br	837ac <tx_descriptor+0xfff8374c>
   83e48:	ad400404 	addi	r21,r21,16
   83e4c:	003f1706 	br	83aac <tx_descriptor+0xfff83a4c>
   83e50:	00c01504 	movi	r3,84
   83e54:	18802336 	bltu	r3,r2,83ee4 <_malloc_r+0x7b0>
   83e58:	3804d33a 	srli	r2,r7,12
   83e5c:	11401bc4 	addi	r5,r2,111
   83e60:	10c01b84 	addi	r3,r2,110
   83e64:	294b883a 	add	r5,r5,r5
   83e68:	003f7b06 	br	83c58 <tx_descriptor+0xfff83bf8>
   83e6c:	9c000217 	ldw	r16,8(r19)
   83e70:	00bfff04 	movi	r2,-4
   83e74:	80c00117 	ldw	r3,4(r16)
   83e78:	1886703a 	and	r3,r3,r2
   83e7c:	003f5306 	br	83bcc <tx_descriptor+0xfff83b6c>
   83e80:	3083ffcc 	andi	r2,r6,4095
   83e84:	103f181e 	bne	r2,zero,83ae8 <tx_descriptor+0xfff83a88>
   83e88:	99000217 	ldw	r4,8(r19)
   83e8c:	b545883a 	add	r2,r22,r21
   83e90:	10800054 	ori	r2,r2,1
   83e94:	20800115 	stw	r2,4(r4)
   83e98:	003f3e06 	br	83b94 <tx_descriptor+0xfff83b34>
   83e9c:	01003f84 	movi	r4,254
   83ea0:	02001fc4 	movi	r8,127
   83ea4:	01c01f84 	movi	r7,126
   83ea8:	003e4006 	br	837ac <tx_descriptor+0xfff8374c>
   83eac:	00800234 	movhi	r2,8
   83eb0:	109b0804 	addi	r2,r2,27680
   83eb4:	15000015 	stw	r20,0(r2)
   83eb8:	003f1106 	br	83b00 <tx_descriptor+0xfff83aa0>
   83ebc:	00800044 	movi	r2,1
   83ec0:	002b883a 	mov	r21,zero
   83ec4:	003f1f06 	br	83b44 <tx_descriptor+0xfff83ae4>
   83ec8:	81400204 	addi	r5,r16,8
   83ecc:	9009883a 	mov	r4,r18
   83ed0:	00830e00 	call	830e0 <_free_r>
   83ed4:	00800274 	movhi	r2,9
   83ed8:	10a3ce04 	addi	r2,r2,-28872
   83edc:	10c00017 	ldw	r3,0(r2)
   83ee0:	003f2c06 	br	83b94 <tx_descriptor+0xfff83b34>
   83ee4:	00c05504 	movi	r3,340
   83ee8:	18800536 	bltu	r3,r2,83f00 <_malloc_r+0x7cc>
   83eec:	3804d3fa 	srli	r2,r7,15
   83ef0:	11401e04 	addi	r5,r2,120
   83ef4:	10c01dc4 	addi	r3,r2,119
   83ef8:	294b883a 	add	r5,r5,r5
   83efc:	003f5606 	br	83c58 <tx_descriptor+0xfff83bf8>
   83f00:	00c15504 	movi	r3,1364
   83f04:	18800536 	bltu	r3,r2,83f1c <_malloc_r+0x7e8>
   83f08:	3804d4ba 	srli	r2,r7,18
   83f0c:	11401f44 	addi	r5,r2,125
   83f10:	10c01f04 	addi	r3,r2,124
   83f14:	294b883a 	add	r5,r5,r5
   83f18:	003f4f06 	br	83c58 <tx_descriptor+0xfff83bf8>
   83f1c:	01403f84 	movi	r5,254
   83f20:	00c01f84 	movi	r3,126
   83f24:	003f4c06 	br	83c58 <tx_descriptor+0xfff83bf8>
   83f28:	98800117 	ldw	r2,4(r19)
   83f2c:	003fa006 	br	83db0 <tx_descriptor+0xfff83d50>
   83f30:	8808d0fa 	srli	r4,r17,3
   83f34:	20800044 	addi	r2,r4,1
   83f38:	1085883a 	add	r2,r2,r2
   83f3c:	003e9006 	br	83980 <tx_descriptor+0xfff83920>

00083f40 <memset>:
   83f40:	20c000cc 	andi	r3,r4,3
   83f44:	2005883a 	mov	r2,r4
   83f48:	18004426 	beq	r3,zero,8405c <memset+0x11c>
   83f4c:	31ffffc4 	addi	r7,r6,-1
   83f50:	30004026 	beq	r6,zero,84054 <memset+0x114>
   83f54:	2813883a 	mov	r9,r5
   83f58:	200d883a 	mov	r6,r4
   83f5c:	2007883a 	mov	r3,r4
   83f60:	00000406 	br	83f74 <memset+0x34>
   83f64:	3a3fffc4 	addi	r8,r7,-1
   83f68:	31800044 	addi	r6,r6,1
   83f6c:	38003926 	beq	r7,zero,84054 <memset+0x114>
   83f70:	400f883a 	mov	r7,r8
   83f74:	18c00044 	addi	r3,r3,1
   83f78:	32400005 	stb	r9,0(r6)
   83f7c:	1a0000cc 	andi	r8,r3,3
   83f80:	403ff81e 	bne	r8,zero,83f64 <tx_descriptor+0xfff83f04>
   83f84:	010000c4 	movi	r4,3
   83f88:	21c02d2e 	bgeu	r4,r7,84040 <memset+0x100>
   83f8c:	29003fcc 	andi	r4,r5,255
   83f90:	200c923a 	slli	r6,r4,8
   83f94:	3108b03a 	or	r4,r6,r4
   83f98:	200c943a 	slli	r6,r4,16
   83f9c:	218cb03a 	or	r6,r4,r6
   83fa0:	010003c4 	movi	r4,15
   83fa4:	21c0182e 	bgeu	r4,r7,84008 <memset+0xc8>
   83fa8:	3b3ffc04 	addi	r12,r7,-16
   83fac:	6018d13a 	srli	r12,r12,4
   83fb0:	1a000104 	addi	r8,r3,4
   83fb4:	1ac00204 	addi	r11,r3,8
   83fb8:	6008913a 	slli	r4,r12,4
   83fbc:	1a800304 	addi	r10,r3,12
   83fc0:	1813883a 	mov	r9,r3
   83fc4:	21000504 	addi	r4,r4,20
   83fc8:	1909883a 	add	r4,r3,r4
   83fcc:	49800015 	stw	r6,0(r9)
   83fd0:	41800015 	stw	r6,0(r8)
   83fd4:	59800015 	stw	r6,0(r11)
   83fd8:	51800015 	stw	r6,0(r10)
   83fdc:	42000404 	addi	r8,r8,16
   83fe0:	4a400404 	addi	r9,r9,16
   83fe4:	5ac00404 	addi	r11,r11,16
   83fe8:	52800404 	addi	r10,r10,16
   83fec:	413ff71e 	bne	r8,r4,83fcc <tx_descriptor+0xfff83f6c>
   83ff0:	63000044 	addi	r12,r12,1
   83ff4:	6018913a 	slli	r12,r12,4
   83ff8:	39c003cc 	andi	r7,r7,15
   83ffc:	010000c4 	movi	r4,3
   84000:	1b07883a 	add	r3,r3,r12
   84004:	21c00e2e 	bgeu	r4,r7,84040 <memset+0x100>
   84008:	1813883a 	mov	r9,r3
   8400c:	3811883a 	mov	r8,r7
   84010:	010000c4 	movi	r4,3
   84014:	49800015 	stw	r6,0(r9)
   84018:	423fff04 	addi	r8,r8,-4
   8401c:	4a400104 	addi	r9,r9,4
   84020:	223ffc36 	bltu	r4,r8,84014 <tx_descriptor+0xfff83fb4>
   84024:	393fff04 	addi	r4,r7,-4
   84028:	2008d0ba 	srli	r4,r4,2
   8402c:	39c000cc 	andi	r7,r7,3
   84030:	21000044 	addi	r4,r4,1
   84034:	2109883a 	add	r4,r4,r4
   84038:	2109883a 	add	r4,r4,r4
   8403c:	1907883a 	add	r3,r3,r4
   84040:	38000526 	beq	r7,zero,84058 <memset+0x118>
   84044:	19cf883a 	add	r7,r3,r7
   84048:	19400005 	stb	r5,0(r3)
   8404c:	18c00044 	addi	r3,r3,1
   84050:	38fffd1e 	bne	r7,r3,84048 <tx_descriptor+0xfff83fe8>
   84054:	f800283a 	ret
   84058:	f800283a 	ret
   8405c:	2007883a 	mov	r3,r4
   84060:	300f883a 	mov	r7,r6
   84064:	003fc706 	br	83f84 <tx_descriptor+0xfff83f24>

00084068 <lflush>:
   84068:	2080030b 	ldhu	r2,12(r4)
   8406c:	00c00244 	movi	r3,9
   84070:	1080024c 	andi	r2,r2,9
   84074:	10c00226 	beq	r2,r3,84080 <lflush+0x18>
   84078:	0005883a 	mov	r2,zero
   8407c:	f800283a 	ret
   84080:	0082bdc1 	jmpi	82bdc <fflush>

00084084 <__srefill_r>:
   84084:	defffc04 	addi	sp,sp,-16
   84088:	dc400115 	stw	r17,4(sp)
   8408c:	dc000015 	stw	r16,0(sp)
   84090:	dfc00315 	stw	ra,12(sp)
   84094:	dc800215 	stw	r18,8(sp)
   84098:	2023883a 	mov	r17,r4
   8409c:	2821883a 	mov	r16,r5
   840a0:	20000226 	beq	r4,zero,840ac <__srefill_r+0x28>
   840a4:	20800e17 	ldw	r2,56(r4)
   840a8:	10003c26 	beq	r2,zero,8419c <__srefill_r+0x118>
   840ac:	80c0030b 	ldhu	r3,12(r16)
   840b0:	1908000c 	andi	r4,r3,8192
   840b4:	1805883a 	mov	r2,r3
   840b8:	2000071e 	bne	r4,zero,840d8 <__srefill_r+0x54>
   840bc:	81001917 	ldw	r4,100(r16)
   840c0:	18880014 	ori	r2,r3,8192
   840c4:	00f7ffc4 	movi	r3,-8193
   840c8:	20c8703a 	and	r4,r4,r3
   840cc:	8080030d 	sth	r2,12(r16)
   840d0:	1007883a 	mov	r3,r2
   840d4:	81001915 	stw	r4,100(r16)
   840d8:	80000115 	stw	zero,4(r16)
   840dc:	1100080c 	andi	r4,r2,32
   840e0:	2000571e 	bne	r4,zero,84240 <__srefill_r+0x1bc>
   840e4:	1100010c 	andi	r4,r2,4
   840e8:	20001f26 	beq	r4,zero,84168 <__srefill_r+0xe4>
   840ec:	81400c17 	ldw	r5,48(r16)
   840f0:	28000826 	beq	r5,zero,84114 <__srefill_r+0x90>
   840f4:	80801004 	addi	r2,r16,64
   840f8:	28800226 	beq	r5,r2,84104 <__srefill_r+0x80>
   840fc:	8809883a 	mov	r4,r17
   84100:	00830e00 	call	830e0 <_free_r>
   84104:	80800f17 	ldw	r2,60(r16)
   84108:	80000c15 	stw	zero,48(r16)
   8410c:	80800115 	stw	r2,4(r16)
   84110:	1000391e 	bne	r2,zero,841f8 <__srefill_r+0x174>
   84114:	80800417 	ldw	r2,16(r16)
   84118:	10004b26 	beq	r2,zero,84248 <__srefill_r+0x1c4>
   8411c:	8480030b 	ldhu	r18,12(r16)
   84120:	908000cc 	andi	r2,r18,3
   84124:	10001f1e 	bne	r2,zero,841a4 <__srefill_r+0x120>
   84128:	81800417 	ldw	r6,16(r16)
   8412c:	80800817 	ldw	r2,32(r16)
   84130:	81c00517 	ldw	r7,20(r16)
   84134:	81400717 	ldw	r5,28(r16)
   84138:	81800015 	stw	r6,0(r16)
   8413c:	8809883a 	mov	r4,r17
   84140:	103ee83a 	callr	r2
   84144:	80800115 	stw	r2,4(r16)
   84148:	00800e0e 	bge	zero,r2,84184 <__srefill_r+0x100>
   8414c:	0005883a 	mov	r2,zero
   84150:	dfc00317 	ldw	ra,12(sp)
   84154:	dc800217 	ldw	r18,8(sp)
   84158:	dc400117 	ldw	r17,4(sp)
   8415c:	dc000017 	ldw	r16,0(sp)
   84160:	dec00404 	addi	sp,sp,16
   84164:	f800283a 	ret
   84168:	1100040c 	andi	r4,r2,16
   8416c:	20003026 	beq	r4,zero,84230 <__srefill_r+0x1ac>
   84170:	1080020c 	andi	r2,r2,8
   84174:	1000241e 	bne	r2,zero,84208 <__srefill_r+0x184>
   84178:	18c00114 	ori	r3,r3,4
   8417c:	80c0030d 	sth	r3,12(r16)
   84180:	003fe406 	br	84114 <tx_descriptor+0xfff840b4>
   84184:	80c0030b 	ldhu	r3,12(r16)
   84188:	1000161e 	bne	r2,zero,841e4 <__srefill_r+0x160>
   8418c:	18c00814 	ori	r3,r3,32
   84190:	00bfffc4 	movi	r2,-1
   84194:	80c0030d 	sth	r3,12(r16)
   84198:	003fed06 	br	84150 <tx_descriptor+0xfff840f0>
   8419c:	0082f6c0 	call	82f6c <__sinit>
   841a0:	003fc206 	br	840ac <tx_descriptor+0xfff8404c>
   841a4:	00800234 	movhi	r2,8
   841a8:	109b0604 	addi	r2,r2,27672
   841ac:	11000017 	ldw	r4,0(r2)
   841b0:	01400234 	movhi	r5,8
   841b4:	00800044 	movi	r2,1
   841b8:	29501a04 	addi	r5,r5,16488
   841bc:	8080030d 	sth	r2,12(r16)
   841c0:	00833f00 	call	833f0 <_fwalk>
   841c4:	00800244 	movi	r2,9
   841c8:	8480030d 	sth	r18,12(r16)
   841cc:	9480024c 	andi	r18,r18,9
   841d0:	90bfd51e 	bne	r18,r2,84128 <tx_descriptor+0xfff840c8>
   841d4:	800b883a 	mov	r5,r16
   841d8:	8809883a 	mov	r4,r17
   841dc:	00829640 	call	82964 <__sflush_r>
   841e0:	003fd106 	br	84128 <tx_descriptor+0xfff840c8>
   841e4:	18c01014 	ori	r3,r3,64
   841e8:	80000115 	stw	zero,4(r16)
   841ec:	00bfffc4 	movi	r2,-1
   841f0:	80c0030d 	sth	r3,12(r16)
   841f4:	003fd606 	br	84150 <tx_descriptor+0xfff840f0>
   841f8:	80c00e17 	ldw	r3,56(r16)
   841fc:	0005883a 	mov	r2,zero
   84200:	80c00015 	stw	r3,0(r16)
   84204:	003fd206 	br	84150 <tx_descriptor+0xfff840f0>
   84208:	800b883a 	mov	r5,r16
   8420c:	8809883a 	mov	r4,r17
   84210:	0082b800 	call	82b80 <_fflush_r>
   84214:	10000a1e 	bne	r2,zero,84240 <__srefill_r+0x1bc>
   84218:	8080030b 	ldhu	r2,12(r16)
   8421c:	00fffdc4 	movi	r3,-9
   84220:	80000215 	stw	zero,8(r16)
   84224:	1886703a 	and	r3,r3,r2
   84228:	80000615 	stw	zero,24(r16)
   8422c:	003fd206 	br	84178 <tx_descriptor+0xfff84118>
   84230:	00800244 	movi	r2,9
   84234:	88800015 	stw	r2,0(r17)
   84238:	18c01014 	ori	r3,r3,64
   8423c:	80c0030d 	sth	r3,12(r16)
   84240:	00bfffc4 	movi	r2,-1
   84244:	003fc206 	br	84150 <tx_descriptor+0xfff840f0>
   84248:	800b883a 	mov	r5,r16
   8424c:	8809883a 	mov	r4,r17
   84250:	00835780 	call	83578 <__smakebuf_r>
   84254:	003fb106 	br	8411c <tx_descriptor+0xfff840bc>

00084258 <_sbrk_r>:
   84258:	defffd04 	addi	sp,sp,-12
   8425c:	dc000015 	stw	r16,0(sp)
   84260:	04000274 	movhi	r16,9
   84264:	dc400115 	stw	r17,4(sp)
   84268:	8422ca04 	addi	r16,r16,-29912
   8426c:	2023883a 	mov	r17,r4
   84270:	2809883a 	mov	r4,r5
   84274:	dfc00215 	stw	ra,8(sp)
   84278:	80000015 	stw	zero,0(r16)
   8427c:	0084aa80 	call	84aa8 <sbrk>
   84280:	00ffffc4 	movi	r3,-1
   84284:	10c00526 	beq	r2,r3,8429c <_sbrk_r+0x44>
   84288:	dfc00217 	ldw	ra,8(sp)
   8428c:	dc400117 	ldw	r17,4(sp)
   84290:	dc000017 	ldw	r16,0(sp)
   84294:	dec00304 	addi	sp,sp,12
   84298:	f800283a 	ret
   8429c:	80c00017 	ldw	r3,0(r16)
   842a0:	183ff926 	beq	r3,zero,84288 <tx_descriptor+0xfff84228>
   842a4:	88c00015 	stw	r3,0(r17)
   842a8:	003ff706 	br	84288 <tx_descriptor+0xfff84228>

000842ac <__sread>:
   842ac:	defffe04 	addi	sp,sp,-8
   842b0:	dc000015 	stw	r16,0(sp)
   842b4:	2821883a 	mov	r16,r5
   842b8:	2940038f 	ldh	r5,14(r5)
   842bc:	dfc00115 	stw	ra,4(sp)
   842c0:	00846b00 	call	846b0 <_read_r>
   842c4:	10000716 	blt	r2,zero,842e4 <__sread+0x38>
   842c8:	80c01417 	ldw	r3,80(r16)
   842cc:	1887883a 	add	r3,r3,r2
   842d0:	80c01415 	stw	r3,80(r16)
   842d4:	dfc00117 	ldw	ra,4(sp)
   842d8:	dc000017 	ldw	r16,0(sp)
   842dc:	dec00204 	addi	sp,sp,8
   842e0:	f800283a 	ret
   842e4:	80c0030b 	ldhu	r3,12(r16)
   842e8:	18fbffcc 	andi	r3,r3,61439
   842ec:	80c0030d 	sth	r3,12(r16)
   842f0:	dfc00117 	ldw	ra,4(sp)
   842f4:	dc000017 	ldw	r16,0(sp)
   842f8:	dec00204 	addi	sp,sp,8
   842fc:	f800283a 	ret

00084300 <__seofread>:
   84300:	0005883a 	mov	r2,zero
   84304:	f800283a 	ret

00084308 <__swrite>:
   84308:	2880030b 	ldhu	r2,12(r5)
   8430c:	defffb04 	addi	sp,sp,-20
   84310:	dcc00315 	stw	r19,12(sp)
   84314:	dc800215 	stw	r18,8(sp)
   84318:	dc400115 	stw	r17,4(sp)
   8431c:	dc000015 	stw	r16,0(sp)
   84320:	dfc00415 	stw	ra,16(sp)
   84324:	10c0400c 	andi	r3,r2,256
   84328:	2821883a 	mov	r16,r5
   8432c:	2023883a 	mov	r17,r4
   84330:	3025883a 	mov	r18,r6
   84334:	3827883a 	mov	r19,r7
   84338:	18000526 	beq	r3,zero,84350 <__swrite+0x48>
   8433c:	2940038f 	ldh	r5,14(r5)
   84340:	01c00084 	movi	r7,2
   84344:	000d883a 	mov	r6,zero
   84348:	00846500 	call	84650 <_lseek_r>
   8434c:	8080030b 	ldhu	r2,12(r16)
   84350:	8140038f 	ldh	r5,14(r16)
   84354:	10bbffcc 	andi	r2,r2,61439
   84358:	980f883a 	mov	r7,r19
   8435c:	900d883a 	mov	r6,r18
   84360:	8809883a 	mov	r4,r17
   84364:	8080030d 	sth	r2,12(r16)
   84368:	dfc00417 	ldw	ra,16(sp)
   8436c:	dcc00317 	ldw	r19,12(sp)
   84370:	dc800217 	ldw	r18,8(sp)
   84374:	dc400117 	ldw	r17,4(sp)
   84378:	dc000017 	ldw	r16,0(sp)
   8437c:	dec00504 	addi	sp,sp,20
   84380:	00843e81 	jmpi	843e8 <_write_r>

00084384 <__sseek>:
   84384:	defffe04 	addi	sp,sp,-8
   84388:	dc000015 	stw	r16,0(sp)
   8438c:	2821883a 	mov	r16,r5
   84390:	2940038f 	ldh	r5,14(r5)
   84394:	dfc00115 	stw	ra,4(sp)
   84398:	00846500 	call	84650 <_lseek_r>
   8439c:	00ffffc4 	movi	r3,-1
   843a0:	10c00826 	beq	r2,r3,843c4 <__sseek+0x40>
   843a4:	80c0030b 	ldhu	r3,12(r16)
   843a8:	80801415 	stw	r2,80(r16)
   843ac:	18c40014 	ori	r3,r3,4096
   843b0:	80c0030d 	sth	r3,12(r16)
   843b4:	dfc00117 	ldw	ra,4(sp)
   843b8:	dc000017 	ldw	r16,0(sp)
   843bc:	dec00204 	addi	sp,sp,8
   843c0:	f800283a 	ret
   843c4:	80c0030b 	ldhu	r3,12(r16)
   843c8:	18fbffcc 	andi	r3,r3,61439
   843cc:	80c0030d 	sth	r3,12(r16)
   843d0:	dfc00117 	ldw	ra,4(sp)
   843d4:	dc000017 	ldw	r16,0(sp)
   843d8:	dec00204 	addi	sp,sp,8
   843dc:	f800283a 	ret

000843e0 <__sclose>:
   843e0:	2940038f 	ldh	r5,14(r5)
   843e4:	00844481 	jmpi	84448 <_close_r>

000843e8 <_write_r>:
   843e8:	defffd04 	addi	sp,sp,-12
   843ec:	2805883a 	mov	r2,r5
   843f0:	dc000015 	stw	r16,0(sp)
   843f4:	04000274 	movhi	r16,9
   843f8:	dc400115 	stw	r17,4(sp)
   843fc:	300b883a 	mov	r5,r6
   84400:	8422ca04 	addi	r16,r16,-29912
   84404:	2023883a 	mov	r17,r4
   84408:	380d883a 	mov	r6,r7
   8440c:	1009883a 	mov	r4,r2
   84410:	dfc00215 	stw	ra,8(sp)
   84414:	80000015 	stw	zero,0(r16)
   84418:	0084af40 	call	84af4 <write>
   8441c:	00ffffc4 	movi	r3,-1
   84420:	10c00526 	beq	r2,r3,84438 <_write_r+0x50>
   84424:	dfc00217 	ldw	ra,8(sp)
   84428:	dc400117 	ldw	r17,4(sp)
   8442c:	dc000017 	ldw	r16,0(sp)
   84430:	dec00304 	addi	sp,sp,12
   84434:	f800283a 	ret
   84438:	80c00017 	ldw	r3,0(r16)
   8443c:	183ff926 	beq	r3,zero,84424 <tx_descriptor+0xfff843c4>
   84440:	88c00015 	stw	r3,0(r17)
   84444:	003ff706 	br	84424 <tx_descriptor+0xfff843c4>

00084448 <_close_r>:
   84448:	defffd04 	addi	sp,sp,-12
   8444c:	dc000015 	stw	r16,0(sp)
   84450:	04000274 	movhi	r16,9
   84454:	dc400115 	stw	r17,4(sp)
   84458:	8422ca04 	addi	r16,r16,-29912
   8445c:	2023883a 	mov	r17,r4
   84460:	2809883a 	mov	r4,r5
   84464:	dfc00215 	stw	ra,8(sp)
   84468:	80000015 	stw	zero,0(r16)
   8446c:	00816c80 	call	816c8 <close>
   84470:	00ffffc4 	movi	r3,-1
   84474:	10c00526 	beq	r2,r3,8448c <_close_r+0x44>
   84478:	dfc00217 	ldw	ra,8(sp)
   8447c:	dc400117 	ldw	r17,4(sp)
   84480:	dc000017 	ldw	r16,0(sp)
   84484:	dec00304 	addi	sp,sp,12
   84488:	f800283a 	ret
   8448c:	80c00017 	ldw	r3,0(r16)
   84490:	183ff926 	beq	r3,zero,84478 <tx_descriptor+0xfff84418>
   84494:	88c00015 	stw	r3,0(r17)
   84498:	003ff706 	br	84478 <tx_descriptor+0xfff84418>

0008449c <_fclose_r>:
   8449c:	28003926 	beq	r5,zero,84584 <_fclose_r+0xe8>
   844a0:	defffc04 	addi	sp,sp,-16
   844a4:	dc400115 	stw	r17,4(sp)
   844a8:	dc000015 	stw	r16,0(sp)
   844ac:	dfc00315 	stw	ra,12(sp)
   844b0:	dc800215 	stw	r18,8(sp)
   844b4:	2023883a 	mov	r17,r4
   844b8:	2821883a 	mov	r16,r5
   844bc:	20000226 	beq	r4,zero,844c8 <_fclose_r+0x2c>
   844c0:	20800e17 	ldw	r2,56(r4)
   844c4:	10002726 	beq	r2,zero,84564 <_fclose_r+0xc8>
   844c8:	8080030f 	ldh	r2,12(r16)
   844cc:	1000071e 	bne	r2,zero,844ec <_fclose_r+0x50>
   844d0:	0005883a 	mov	r2,zero
   844d4:	dfc00317 	ldw	ra,12(sp)
   844d8:	dc800217 	ldw	r18,8(sp)
   844dc:	dc400117 	ldw	r17,4(sp)
   844e0:	dc000017 	ldw	r16,0(sp)
   844e4:	dec00404 	addi	sp,sp,16
   844e8:	f800283a 	ret
   844ec:	800b883a 	mov	r5,r16
   844f0:	8809883a 	mov	r4,r17
   844f4:	00829640 	call	82964 <__sflush_r>
   844f8:	1025883a 	mov	r18,r2
   844fc:	80800b17 	ldw	r2,44(r16)
   84500:	10000426 	beq	r2,zero,84514 <_fclose_r+0x78>
   84504:	81400717 	ldw	r5,28(r16)
   84508:	8809883a 	mov	r4,r17
   8450c:	103ee83a 	callr	r2
   84510:	10001616 	blt	r2,zero,8456c <_fclose_r+0xd0>
   84514:	8080030b 	ldhu	r2,12(r16)
   84518:	1080200c 	andi	r2,r2,128
   8451c:	1000151e 	bne	r2,zero,84574 <_fclose_r+0xd8>
   84520:	81400c17 	ldw	r5,48(r16)
   84524:	28000526 	beq	r5,zero,8453c <_fclose_r+0xa0>
   84528:	80801004 	addi	r2,r16,64
   8452c:	28800226 	beq	r5,r2,84538 <_fclose_r+0x9c>
   84530:	8809883a 	mov	r4,r17
   84534:	00830e00 	call	830e0 <_free_r>
   84538:	80000c15 	stw	zero,48(r16)
   8453c:	81401117 	ldw	r5,68(r16)
   84540:	28000326 	beq	r5,zero,84550 <_fclose_r+0xb4>
   84544:	8809883a 	mov	r4,r17
   84548:	00830e00 	call	830e0 <_free_r>
   8454c:	80001115 	stw	zero,68(r16)
   84550:	0082f7c0 	call	82f7c <__sfp_lock_acquire>
   84554:	8000030d 	sth	zero,12(r16)
   84558:	0082f800 	call	82f80 <__sfp_lock_release>
   8455c:	9005883a 	mov	r2,r18
   84560:	003fdc06 	br	844d4 <tx_descriptor+0xfff84474>
   84564:	0082f6c0 	call	82f6c <__sinit>
   84568:	003fd706 	br	844c8 <tx_descriptor+0xfff84468>
   8456c:	04bfffc4 	movi	r18,-1
   84570:	003fe806 	br	84514 <tx_descriptor+0xfff844b4>
   84574:	81400417 	ldw	r5,16(r16)
   84578:	8809883a 	mov	r4,r17
   8457c:	00830e00 	call	830e0 <_free_r>
   84580:	003fe706 	br	84520 <tx_descriptor+0xfff844c0>
   84584:	0005883a 	mov	r2,zero
   84588:	f800283a 	ret

0008458c <fclose>:
   8458c:	00800234 	movhi	r2,8
   84590:	109b0704 	addi	r2,r2,27676
   84594:	200b883a 	mov	r5,r4
   84598:	11000017 	ldw	r4,0(r2)
   8459c:	008449c1 	jmpi	8449c <_fclose_r>

000845a0 <_fstat_r>:
   845a0:	defffd04 	addi	sp,sp,-12
   845a4:	2805883a 	mov	r2,r5
   845a8:	dc000015 	stw	r16,0(sp)
   845ac:	04000274 	movhi	r16,9
   845b0:	dc400115 	stw	r17,4(sp)
   845b4:	8422ca04 	addi	r16,r16,-29912
   845b8:	2023883a 	mov	r17,r4
   845bc:	300b883a 	mov	r5,r6
   845c0:	1009883a 	mov	r4,r2
   845c4:	dfc00215 	stw	ra,8(sp)
   845c8:	80000015 	stw	zero,0(r16)
   845cc:	008474c0 	call	8474c <fstat>
   845d0:	00ffffc4 	movi	r3,-1
   845d4:	10c00526 	beq	r2,r3,845ec <_fstat_r+0x4c>
   845d8:	dfc00217 	ldw	ra,8(sp)
   845dc:	dc400117 	ldw	r17,4(sp)
   845e0:	dc000017 	ldw	r16,0(sp)
   845e4:	dec00304 	addi	sp,sp,12
   845e8:	f800283a 	ret
   845ec:	80c00017 	ldw	r3,0(r16)
   845f0:	183ff926 	beq	r3,zero,845d8 <tx_descriptor+0xfff84578>
   845f4:	88c00015 	stw	r3,0(r17)
   845f8:	003ff706 	br	845d8 <tx_descriptor+0xfff84578>

000845fc <_isatty_r>:
   845fc:	defffd04 	addi	sp,sp,-12
   84600:	dc000015 	stw	r16,0(sp)
   84604:	04000274 	movhi	r16,9
   84608:	dc400115 	stw	r17,4(sp)
   8460c:	8422ca04 	addi	r16,r16,-29912
   84610:	2023883a 	mov	r17,r4
   84614:	2809883a 	mov	r4,r5
   84618:	dfc00215 	stw	ra,8(sp)
   8461c:	80000015 	stw	zero,0(r16)
   84620:	00848000 	call	84800 <isatty>
   84624:	00ffffc4 	movi	r3,-1
   84628:	10c00526 	beq	r2,r3,84640 <_isatty_r+0x44>
   8462c:	dfc00217 	ldw	ra,8(sp)
   84630:	dc400117 	ldw	r17,4(sp)
   84634:	dc000017 	ldw	r16,0(sp)
   84638:	dec00304 	addi	sp,sp,12
   8463c:	f800283a 	ret
   84640:	80c00017 	ldw	r3,0(r16)
   84644:	183ff926 	beq	r3,zero,8462c <tx_descriptor+0xfff845cc>
   84648:	88c00015 	stw	r3,0(r17)
   8464c:	003ff706 	br	8462c <tx_descriptor+0xfff845cc>

00084650 <_lseek_r>:
   84650:	defffd04 	addi	sp,sp,-12
   84654:	2805883a 	mov	r2,r5
   84658:	dc000015 	stw	r16,0(sp)
   8465c:	04000274 	movhi	r16,9
   84660:	dc400115 	stw	r17,4(sp)
   84664:	300b883a 	mov	r5,r6
   84668:	8422ca04 	addi	r16,r16,-29912
   8466c:	2023883a 	mov	r17,r4
   84670:	380d883a 	mov	r6,r7
   84674:	1009883a 	mov	r4,r2
   84678:	dfc00215 	stw	ra,8(sp)
   8467c:	80000015 	stw	zero,0(r16)
   84680:	00848a00 	call	848a0 <lseek>
   84684:	00ffffc4 	movi	r3,-1
   84688:	10c00526 	beq	r2,r3,846a0 <_lseek_r+0x50>
   8468c:	dfc00217 	ldw	ra,8(sp)
   84690:	dc400117 	ldw	r17,4(sp)
   84694:	dc000017 	ldw	r16,0(sp)
   84698:	dec00304 	addi	sp,sp,12
   8469c:	f800283a 	ret
   846a0:	80c00017 	ldw	r3,0(r16)
   846a4:	183ff926 	beq	r3,zero,8468c <tx_descriptor+0xfff8462c>
   846a8:	88c00015 	stw	r3,0(r17)
   846ac:	003ff706 	br	8468c <tx_descriptor+0xfff8462c>

000846b0 <_read_r>:
   846b0:	defffd04 	addi	sp,sp,-12
   846b4:	2805883a 	mov	r2,r5
   846b8:	dc000015 	stw	r16,0(sp)
   846bc:	04000274 	movhi	r16,9
   846c0:	dc400115 	stw	r17,4(sp)
   846c4:	300b883a 	mov	r5,r6
   846c8:	8422ca04 	addi	r16,r16,-29912
   846cc:	2023883a 	mov	r17,r4
   846d0:	380d883a 	mov	r6,r7
   846d4:	1009883a 	mov	r4,r2
   846d8:	dfc00215 	stw	ra,8(sp)
   846dc:	80000015 	stw	zero,0(r16)
   846e0:	00849800 	call	84980 <read>
   846e4:	00ffffc4 	movi	r3,-1
   846e8:	10c00526 	beq	r2,r3,84700 <_read_r+0x50>
   846ec:	dfc00217 	ldw	ra,8(sp)
   846f0:	dc400117 	ldw	r17,4(sp)
   846f4:	dc000017 	ldw	r16,0(sp)
   846f8:	dec00304 	addi	sp,sp,12
   846fc:	f800283a 	ret
   84700:	80c00017 	ldw	r3,0(r16)
   84704:	183ff926 	beq	r3,zero,846ec <tx_descriptor+0xfff8468c>
   84708:	88c00015 	stw	r3,0(r17)
   8470c:	003ff706 	br	846ec <tx_descriptor+0xfff8468c>

00084710 <__mulsi3>:
   84710:	0005883a 	mov	r2,zero
   84714:	20000726 	beq	r4,zero,84734 <__mulsi3+0x24>
   84718:	20c0004c 	andi	r3,r4,1
   8471c:	2008d07a 	srli	r4,r4,1
   84720:	18000126 	beq	r3,zero,84728 <__mulsi3+0x18>
   84724:	1145883a 	add	r2,r2,r5
   84728:	294b883a 	add	r5,r5,r5
   8472c:	203ffa1e 	bne	r4,zero,84718 <tx_descriptor+0xfff846b8>
   84730:	f800283a 	ret
   84734:	f800283a 	ret

00084738 <_exit>:
   84738:	20000226 	beq	r4,zero,84744 <_exit+0xc>
   8473c:	002af070 	cmpltui	zero,zero,43969
   84740:	00000106 	br	84748 <_exit+0x10>
   84744:	002af0b0 	cmpltui	zero,zero,43970
   84748:	003fff06 	br	84748 <tx_descriptor+0xfff846e8>

0008474c <fstat>:
   8474c:	defffc04 	addi	sp,sp,-16
   84750:	dfc00315 	stw	ra,12(sp)
   84754:	dc800215 	stw	r18,8(sp)
   84758:	dc400115 	stw	r17,4(sp)
   8475c:	dc000015 	stw	r16,0(sp)
   84760:	20001916 	blt	r4,zero,847c8 <fstat+0x7c>
   84764:	2021883a 	mov	r16,r4
   84768:	2825883a 	mov	r18,r5
   8476c:	01400304 	movi	r5,12
   84770:	00847100 	call	84710 <__mulsi3>
   84774:	04400234 	movhi	r17,8
   84778:	8c588604 	addi	r17,r17,25112
   8477c:	1463883a 	add	r17,r2,r17
   84780:	88001126 	beq	r17,zero,847c8 <fstat+0x7c>
   84784:	01400304 	movi	r5,12
   84788:	8009883a 	mov	r4,r16
   8478c:	00847100 	call	84710 <__mulsi3>
   84790:	00c00234 	movhi	r3,8
   84794:	18d88604 	addi	r3,r3,25112
   84798:	1885883a 	add	r2,r3,r2
   8479c:	10800017 	ldw	r2,0(r2)
   847a0:	10800817 	ldw	r2,32(r2)
   847a4:	10000426 	beq	r2,zero,847b8 <fstat+0x6c>
   847a8:	900b883a 	mov	r5,r18
   847ac:	8809883a 	mov	r4,r17
   847b0:	103ee83a 	callr	r2
   847b4:	00000c06 	br	847e8 <fstat+0x9c>
   847b8:	00880004 	movi	r2,8192
   847bc:	90800115 	stw	r2,4(r18)
   847c0:	0005883a 	mov	r2,zero
   847c4:	00000806 	br	847e8 <fstat+0x9c>
   847c8:	d0a00717 	ldw	r2,-32740(gp)
   847cc:	10000226 	beq	r2,zero,847d8 <fstat+0x8c>
   847d0:	103ee83a 	callr	r2
   847d4:	00000106 	br	847dc <fstat+0x90>
   847d8:	d0a7cf04 	addi	r2,gp,-24772
   847dc:	00c01444 	movi	r3,81
   847e0:	10c00015 	stw	r3,0(r2)
   847e4:	00bfffc4 	movi	r2,-1
   847e8:	dfc00317 	ldw	ra,12(sp)
   847ec:	dc800217 	ldw	r18,8(sp)
   847f0:	dc400117 	ldw	r17,4(sp)
   847f4:	dc000017 	ldw	r16,0(sp)
   847f8:	dec00404 	addi	sp,sp,16
   847fc:	f800283a 	ret

00084800 <isatty>:
   84800:	deffef04 	addi	sp,sp,-68
   84804:	dfc01015 	stw	ra,64(sp)
   84808:	dc000f15 	stw	r16,60(sp)
   8480c:	20001616 	blt	r4,zero,84868 <isatty+0x68>
   84810:	2021883a 	mov	r16,r4
   84814:	01400304 	movi	r5,12
   84818:	00847100 	call	84710 <__mulsi3>
   8481c:	00c00234 	movhi	r3,8
   84820:	18d88604 	addi	r3,r3,25112
   84824:	10c5883a 	add	r2,r2,r3
   84828:	10000f26 	beq	r2,zero,84868 <isatty+0x68>
   8482c:	01400304 	movi	r5,12
   84830:	8009883a 	mov	r4,r16
   84834:	00847100 	call	84710 <__mulsi3>
   84838:	00c00234 	movhi	r3,8
   8483c:	18d88604 	addi	r3,r3,25112
   84840:	1885883a 	add	r2,r3,r2
   84844:	10800017 	ldw	r2,0(r2)
   84848:	10800817 	ldw	r2,32(r2)
   8484c:	10000f26 	beq	r2,zero,8488c <isatty+0x8c>
   84850:	d80b883a 	mov	r5,sp
   84854:	8009883a 	mov	r4,r16
   84858:	008474c0 	call	8474c <fstat>
   8485c:	d8800117 	ldw	r2,4(sp)
   84860:	10880020 	cmpeqi	r2,r2,8192
   84864:	00000a06 	br	84890 <isatty+0x90>
   84868:	d0a00717 	ldw	r2,-32740(gp)
   8486c:	10000226 	beq	r2,zero,84878 <isatty+0x78>
   84870:	103ee83a 	callr	r2
   84874:	00000106 	br	8487c <isatty+0x7c>
   84878:	d0a7cf04 	addi	r2,gp,-24772
   8487c:	00c01444 	movi	r3,81
   84880:	10c00015 	stw	r3,0(r2)
   84884:	0005883a 	mov	r2,zero
   84888:	00000106 	br	84890 <isatty+0x90>
   8488c:	00800044 	movi	r2,1
   84890:	dfc01017 	ldw	ra,64(sp)
   84894:	dc000f17 	ldw	r16,60(sp)
   84898:	dec01104 	addi	sp,sp,68
   8489c:	f800283a 	ret

000848a0 <lseek>:
   848a0:	defffb04 	addi	sp,sp,-20
   848a4:	dfc00415 	stw	ra,16(sp)
   848a8:	dcc00315 	stw	r19,12(sp)
   848ac:	dc800215 	stw	r18,8(sp)
   848b0:	dc400115 	stw	r17,4(sp)
   848b4:	dc000015 	stw	r16,0(sp)
   848b8:	20001916 	blt	r4,zero,84920 <lseek+0x80>
   848bc:	2021883a 	mov	r16,r4
   848c0:	2825883a 	mov	r18,r5
   848c4:	3027883a 	mov	r19,r6
   848c8:	01400304 	movi	r5,12
   848cc:	00847100 	call	84710 <__mulsi3>
   848d0:	04400234 	movhi	r17,8
   848d4:	8c588604 	addi	r17,r17,25112
   848d8:	1463883a 	add	r17,r2,r17
   848dc:	88001a26 	beq	r17,zero,84948 <lseek+0xa8>
   848e0:	01400304 	movi	r5,12
   848e4:	8009883a 	mov	r4,r16
   848e8:	00847100 	call	84710 <__mulsi3>
   848ec:	00c00234 	movhi	r3,8
   848f0:	18d88604 	addi	r3,r3,25112
   848f4:	1885883a 	add	r2,r3,r2
   848f8:	10800017 	ldw	r2,0(r2)
   848fc:	10800717 	ldw	r2,28(r2)
   84900:	10001326 	beq	r2,zero,84950 <lseek+0xb0>
   84904:	980d883a 	mov	r6,r19
   84908:	900b883a 	mov	r5,r18
   8490c:	8809883a 	mov	r4,r17
   84910:	103ee83a 	callr	r2
   84914:	1021883a 	mov	r16,r2
   84918:	10000f0e 	bge	r2,zero,84958 <lseek+0xb8>
   8491c:	00000106 	br	84924 <lseek+0x84>
   84920:	043febc4 	movi	r16,-81
   84924:	d0a00717 	ldw	r2,-32740(gp)
   84928:	10000226 	beq	r2,zero,84934 <lseek+0x94>
   8492c:	103ee83a 	callr	r2
   84930:	00000106 	br	84938 <lseek+0x98>
   84934:	d0a7cf04 	addi	r2,gp,-24772
   84938:	0421c83a 	sub	r16,zero,r16
   8493c:	14000015 	stw	r16,0(r2)
   84940:	043fffc4 	movi	r16,-1
   84944:	00000406 	br	84958 <lseek+0xb8>
   84948:	043febc4 	movi	r16,-81
   8494c:	003ff506 	br	84924 <tx_descriptor+0xfff848c4>
   84950:	043fde84 	movi	r16,-134
   84954:	003ff306 	br	84924 <tx_descriptor+0xfff848c4>
   84958:	8005883a 	mov	r2,r16
   8495c:	dfc00417 	ldw	ra,16(sp)
   84960:	dcc00317 	ldw	r19,12(sp)
   84964:	dc800217 	ldw	r18,8(sp)
   84968:	dc400117 	ldw	r17,4(sp)
   8496c:	dc000017 	ldw	r16,0(sp)
   84970:	dec00504 	addi	sp,sp,20
   84974:	f800283a 	ret

00084978 <__malloc_lock>:
   84978:	f800283a 	ret

0008497c <__malloc_unlock>:
   8497c:	f800283a 	ret

00084980 <read>:
   84980:	defffb04 	addi	sp,sp,-20
   84984:	dfc00415 	stw	ra,16(sp)
   84988:	dcc00315 	stw	r19,12(sp)
   8498c:	dc800215 	stw	r18,8(sp)
   84990:	dc400115 	stw	r17,4(sp)
   84994:	dc000015 	stw	r16,0(sp)
   84998:	20003416 	blt	r4,zero,84a6c <read+0xec>
   8499c:	2021883a 	mov	r16,r4
   849a0:	2825883a 	mov	r18,r5
   849a4:	3027883a 	mov	r19,r6
   849a8:	01400304 	movi	r5,12
   849ac:	00847100 	call	84710 <__mulsi3>
   849b0:	04400234 	movhi	r17,8
   849b4:	8c588604 	addi	r17,r17,25112
   849b8:	1463883a 	add	r17,r2,r17
   849bc:	88002b26 	beq	r17,zero,84a6c <read+0xec>
   849c0:	01400304 	movi	r5,12
   849c4:	8009883a 	mov	r4,r16
   849c8:	00847100 	call	84710 <__mulsi3>
   849cc:	00c00234 	movhi	r3,8
   849d0:	18d88804 	addi	r3,r3,25120
   849d4:	10c5883a 	add	r2,r2,r3
   849d8:	10800017 	ldw	r2,0(r2)
   849dc:	108000cc 	andi	r2,r2,3
   849e0:	00c00044 	movi	r3,1
   849e4:	10c01826 	beq	r2,r3,84a48 <read+0xc8>
   849e8:	01400304 	movi	r5,12
   849ec:	8009883a 	mov	r4,r16
   849f0:	00847100 	call	84710 <__mulsi3>
   849f4:	00c00234 	movhi	r3,8
   849f8:	18d88604 	addi	r3,r3,25112
   849fc:	1885883a 	add	r2,r3,r2
   84a00:	10800017 	ldw	r2,0(r2)
   84a04:	10800517 	ldw	r2,20(r2)
   84a08:	10000f26 	beq	r2,zero,84a48 <read+0xc8>
   84a0c:	980d883a 	mov	r6,r19
   84a10:	900b883a 	mov	r5,r18
   84a14:	8809883a 	mov	r4,r17
   84a18:	103ee83a 	callr	r2
   84a1c:	1021883a 	mov	r16,r2
   84a20:	10001a0e 	bge	r2,zero,84a8c <read+0x10c>
   84a24:	d0a00717 	ldw	r2,-32740(gp)
   84a28:	10000226 	beq	r2,zero,84a34 <read+0xb4>
   84a2c:	103ee83a 	callr	r2
   84a30:	00000106 	br	84a38 <read+0xb8>
   84a34:	d0a7cf04 	addi	r2,gp,-24772
   84a38:	0421c83a 	sub	r16,zero,r16
   84a3c:	14000015 	stw	r16,0(r2)
   84a40:	00bfffc4 	movi	r2,-1
   84a44:	00001106 	br	84a8c <read+0x10c>
   84a48:	d0a00717 	ldw	r2,-32740(gp)
   84a4c:	10000226 	beq	r2,zero,84a58 <read+0xd8>
   84a50:	103ee83a 	callr	r2
   84a54:	00000106 	br	84a5c <read+0xdc>
   84a58:	d0a7cf04 	addi	r2,gp,-24772
   84a5c:	00c00344 	movi	r3,13
   84a60:	10c00015 	stw	r3,0(r2)
   84a64:	00bfffc4 	movi	r2,-1
   84a68:	00000806 	br	84a8c <read+0x10c>
   84a6c:	d0a00717 	ldw	r2,-32740(gp)
   84a70:	10000226 	beq	r2,zero,84a7c <read+0xfc>
   84a74:	103ee83a 	callr	r2
   84a78:	00000106 	br	84a80 <read+0x100>
   84a7c:	d0a7cf04 	addi	r2,gp,-24772
   84a80:	00c01444 	movi	r3,81
   84a84:	10c00015 	stw	r3,0(r2)
   84a88:	00bfffc4 	movi	r2,-1
   84a8c:	dfc00417 	ldw	ra,16(sp)
   84a90:	dcc00317 	ldw	r19,12(sp)
   84a94:	dc800217 	ldw	r18,8(sp)
   84a98:	dc400117 	ldw	r17,4(sp)
   84a9c:	dc000017 	ldw	r16,0(sp)
   84aa0:	dec00504 	addi	sp,sp,20
   84aa4:	f800283a 	ret

00084aa8 <sbrk>:
   84aa8:	000b303a 	rdctl	r5,status
   84aac:	00bfff84 	movi	r2,-2
   84ab0:	2884703a 	and	r2,r5,r2
   84ab4:	1001703a 	wrctl	status,r2
   84ab8:	d0a00f17 	ldw	r2,-32708(gp)
   84abc:	108000c4 	addi	r2,r2,3
   84ac0:	00ffff04 	movi	r3,-4
   84ac4:	10c4703a 	and	r2,r2,r3
   84ac8:	d0a00f15 	stw	r2,-32708(gp)
   84acc:	1109883a 	add	r4,r2,r4
   84ad0:	00c00374 	movhi	r3,13
   84ad4:	18ec0004 	addi	r3,r3,-20480
   84ad8:	1900032e 	bgeu	r3,r4,84ae8 <sbrk+0x40>
   84adc:	2801703a 	wrctl	status,r5
   84ae0:	00bfffc4 	movi	r2,-1
   84ae4:	f800283a 	ret
   84ae8:	d1200f15 	stw	r4,-32708(gp)
   84aec:	2801703a 	wrctl	status,r5
   84af0:	f800283a 	ret

00084af4 <write>:
   84af4:	defffb04 	addi	sp,sp,-20
   84af8:	dfc00415 	stw	ra,16(sp)
   84afc:	dcc00315 	stw	r19,12(sp)
   84b00:	dc800215 	stw	r18,8(sp)
   84b04:	dc400115 	stw	r17,4(sp)
   84b08:	dc000015 	stw	r16,0(sp)
   84b0c:	20003316 	blt	r4,zero,84bdc <write+0xe8>
   84b10:	2021883a 	mov	r16,r4
   84b14:	2825883a 	mov	r18,r5
   84b18:	3027883a 	mov	r19,r6
   84b1c:	01400304 	movi	r5,12
   84b20:	00847100 	call	84710 <__mulsi3>
   84b24:	04400234 	movhi	r17,8
   84b28:	8c588604 	addi	r17,r17,25112
   84b2c:	1463883a 	add	r17,r2,r17
   84b30:	88002a26 	beq	r17,zero,84bdc <write+0xe8>
   84b34:	01400304 	movi	r5,12
   84b38:	8009883a 	mov	r4,r16
   84b3c:	00847100 	call	84710 <__mulsi3>
   84b40:	00c00234 	movhi	r3,8
   84b44:	18d88804 	addi	r3,r3,25120
   84b48:	10c5883a 	add	r2,r2,r3
   84b4c:	10800017 	ldw	r2,0(r2)
   84b50:	108000cc 	andi	r2,r2,3
   84b54:	10001826 	beq	r2,zero,84bb8 <write+0xc4>
   84b58:	01400304 	movi	r5,12
   84b5c:	8009883a 	mov	r4,r16
   84b60:	00847100 	call	84710 <__mulsi3>
   84b64:	00c00234 	movhi	r3,8
   84b68:	18d88604 	addi	r3,r3,25112
   84b6c:	1885883a 	add	r2,r3,r2
   84b70:	10800017 	ldw	r2,0(r2)
   84b74:	10800617 	ldw	r2,24(r2)
   84b78:	10000f26 	beq	r2,zero,84bb8 <write+0xc4>
   84b7c:	980d883a 	mov	r6,r19
   84b80:	900b883a 	mov	r5,r18
   84b84:	8809883a 	mov	r4,r17
   84b88:	103ee83a 	callr	r2
   84b8c:	1021883a 	mov	r16,r2
   84b90:	10001a0e 	bge	r2,zero,84bfc <write+0x108>
   84b94:	d0a00717 	ldw	r2,-32740(gp)
   84b98:	10000226 	beq	r2,zero,84ba4 <write+0xb0>
   84b9c:	103ee83a 	callr	r2
   84ba0:	00000106 	br	84ba8 <write+0xb4>
   84ba4:	d0a7cf04 	addi	r2,gp,-24772
   84ba8:	0421c83a 	sub	r16,zero,r16
   84bac:	14000015 	stw	r16,0(r2)
   84bb0:	00bfffc4 	movi	r2,-1
   84bb4:	00001106 	br	84bfc <write+0x108>
   84bb8:	d0a00717 	ldw	r2,-32740(gp)
   84bbc:	10000226 	beq	r2,zero,84bc8 <write+0xd4>
   84bc0:	103ee83a 	callr	r2
   84bc4:	00000106 	br	84bcc <write+0xd8>
   84bc8:	d0a7cf04 	addi	r2,gp,-24772
   84bcc:	00c00344 	movi	r3,13
   84bd0:	10c00015 	stw	r3,0(r2)
   84bd4:	00bfffc4 	movi	r2,-1
   84bd8:	00000806 	br	84bfc <write+0x108>
   84bdc:	d0a00717 	ldw	r2,-32740(gp)
   84be0:	10000226 	beq	r2,zero,84bec <write+0xf8>
   84be4:	103ee83a 	callr	r2
   84be8:	00000106 	br	84bf0 <write+0xfc>
   84bec:	d0a7cf04 	addi	r2,gp,-24772
   84bf0:	00c01444 	movi	r3,81
   84bf4:	10c00015 	stw	r3,0(r2)
   84bf8:	00bfffc4 	movi	r2,-1
   84bfc:	dfc00417 	ldw	ra,16(sp)
   84c00:	dcc00317 	ldw	r19,12(sp)
   84c04:	dc800217 	ldw	r18,8(sp)
   84c08:	dc400117 	ldw	r17,4(sp)
   84c0c:	dc000017 	ldw	r16,0(sp)
   84c10:	dec00504 	addi	sp,sp,20
   84c14:	f800283a 	ret
